Component: ARM Compiler 5.06 update 6 (build 750) Tool: armlink [4d35ed]

==============================================================================

Section Cross References

    main.o(i._Z4loopv) refers to delay.o(i.millis) for millis
    main.o(i._Z4loopv) refers to bsp_touchpad.o(i._Z15TouchPad_Updatev) for TouchPad_Update()
    main.o(i._Z4loopv) refers to bsp_imu.o(i._Z10IMU_Updatev) for IMU_Update()
    main.o(i._Z4loopv) refers to bsp_particlesensor.o(i._Z21ParticleSensor_Updatev) for ParticleSensor_Update()
    main.o(i._Z4loopv) refers to bsp_comslave.o(i._Z15ComSlave_Updatev) for ComSlave_Update()
    main.o(i._Z4loopv) refers to main.o(.data) for .data
    main.o(i._Z4loopv) refers to gpio.o(.constdata) for PIN_MAP
    main.o(i._Z5setupv) refers to hardwareserial.o(i._ZN14HardwareSerial5beginEj) for HardwareSerial::begin(unsigned)
    main.o(i._Z5setupv) refers to arduino.o(i.pinMode) for pinMode
    main.o(i._Z5setupv) refers to bsp_comslave.o(i._Z13ComSlave_Initv) for ComSlave_Init()
    main.o(i._Z5setupv) refers to wire.o(i._ZN7TwoWire5beginEh) for TwoWire::begin(unsigned char)
    main.o(i._Z5setupv) refers to bsp_i2c_scan.o(i._Z8I2C_Scanb) for I2C_Scan(bool)
    main.o(i._Z5setupv) refers to bsp_touchpad.o(i._Z13TouchPad_Initv) for TouchPad_Init()
    main.o(i._Z5setupv) refers to bsp_imu.o(i._Z8IMU_Initv) for IMU_Init()
    main.o(i._Z5setupv) refers to bsp_particlesensor.o(i._Z19ParticleSensor_Initv) for ParticleSensor_Init()
    main.o(i._Z5setupv) refers to hardwareserial.o(.bss) for Serial
    main.o(i._Z5setupv) refers to wire.o(.bss) for Wire
    main.o(i.main) refers to misc.o(i.NVIC_PriorityGroupConfig) for NVIC_PriorityGroupConfig
    main.o(i.main) refers to gpio.o(i.GPIO_JTAG_Disable) for GPIO_JTAG_Disable
    main.o(i.main) refers to delay.o(i.Delay_Init) for Delay_Init
    main.o(i.main) refers to adc.o(i.ADCx_Init) for ADCx_Init
    main.o(i.main) refers to main.o(i._Z5setupv) for setup()
    main.o(i.main) refers to main.o(i._Z4loopv) for loop()
    main.o(.ARM.exidx) refers to main.o(i._Z5setupv) for i._Z5setupv
    main.o(.ARM.exidx) refers to main.o(i._Z4loopv) for i._Z4loopv
    main.o(.ARM.exidx) refers to main.o(i.main) for i.main
    bsp_i2c_scan.o(i._Z8I2C_Scanb) refers to wire.o(i._ZN7TwoWire5beginEh) for TwoWire::begin(unsigned char)
    bsp_i2c_scan.o(i._Z8I2C_Scanb) refers to print.o(i._ZN5Print7printlnEPKc) for Print::println(const char*)
    bsp_i2c_scan.o(i._Z8I2C_Scanb) refers to wirebase.o(i._ZN8WireBase17beginTransmissionEh) for WireBase::beginTransmission(unsigned char)
    bsp_i2c_scan.o(i._Z8I2C_Scanb) refers to wirebase.o(i._ZN8WireBase15endTransmissionEv) for WireBase::endTransmission()
    bsp_i2c_scan.o(i._Z8I2C_Scanb) refers to print.o(i._ZN5Print5printEPKc) for Print::print(const char*)
    bsp_i2c_scan.o(i._Z8I2C_Scanb) refers to print.o(i._ZN5Print5printEhi) for Print::print(unsigned char, int)
    bsp_i2c_scan.o(i._Z8I2C_Scanb) refers to print.o(i._ZN5Print7printlnEhi) for Print::println(unsigned char, int)
    bsp_i2c_scan.o(i._Z8I2C_Scanb) refers to print.o(i._ZN5Print6printfEPKcz) for Print::printf(const char*, ...)
    bsp_i2c_scan.o(i._Z8I2C_Scanb) refers to wire.o(.bss) for Wire
    bsp_i2c_scan.o(i._Z8I2C_Scanb) refers to hardwareserial.o(.bss) for Serial
    bsp_i2c_scan.o(.ARM.exidx) refers to bsp_i2c_scan.o(i._Z8I2C_Scanb) for i._Z8I2C_Scanb
    bsp_imu.o(i._Z10IMU_Updatev) refers to lis2ds12_acc.o(i._Z26LIS2DS12_ACC_R_STEP_DETECTPvP26LIS2DS12_ACC_STEP_DETECT_t) for LIS2DS12_ACC_R_STEP_DETECT(void*, LIS2DS12_ACC_STEP_DETECT_t*)
    bsp_imu.o(i._Z10IMU_Updatev) refers to bsp_comslave.o(i._Z35ComSlave_ReqExecuteUserCallbackNodePK21ComSlave_UserCallback) for ComSlave_ReqExecuteUserCallbackNode(const ComSlave_UserCallback*)
    bsp_imu.o(i._Z10IMU_Updatev) refers to lis2ds12_acc.o(i._Z28LIS2DS12_ACC_Get_StepCounterPvPh) for LIS2DS12_ACC_Get_StepCounter(void*, unsigned char*)
    bsp_imu.o(i._Z10IMU_Updatev) refers to lis2ds12_acc.o(i._Z24LIS2DS12_ACC_W_RST_NSTEPPv24LIS2DS12_ACC_RST_NSTEP_t) for LIS2DS12_ACC_W_RST_NSTEP(void*, LIS2DS12_ACC_RST_NSTEP_t)
    bsp_imu.o(i._Z10IMU_Updatev) refers to bsp_imu.o(.data) for .data
    bsp_imu.o(i._Z10IMU_Updatev) refers to bsp_imu.o(.bss) for .bss
    bsp_imu.o(i._Z12IMU_GetStepsv) refers to bsp_imu.o(.data) for .data
    bsp_imu.o(i._Z16IMU_NodeCallbackPvh) refers to bsp_imu.o(.data) for .data
    bsp_imu.o(i._Z8IMU_Initv) refers to lis2ds12_acc.o(i._Z20LIS2DS12_ACC_ReadRegPvhPht) for LIS2DS12_ACC_ReadReg(void*, unsigned char, unsigned char*, unsigned short)
    bsp_imu.o(i._Z8IMU_Initv) refers to lis2ds12_acc.o(i._Z25LIS2DS12_ACC_W_SOFT_RESETPv25LIS2DS12_ACC_SOFT_RESET_t) for LIS2DS12_ACC_W_SOFT_RESET(void*, LIS2DS12_ACC_SOFT_RESET_t)
    bsp_imu.o(i._Z8IMU_Initv) refers to lis2ds12_acc.o(i._Z25LIS2DS12_ACC_R_SOFT_RESETPvP25LIS2DS12_ACC_SOFT_RESET_t) for LIS2DS12_ACC_R_SOFT_RESET(void*, LIS2DS12_ACC_SOFT_RESET_t*)
    bsp_imu.o(i._Z8IMU_Initv) refers to lis2ds12_acc.o(i._Z23LIS2DS12_ACC_W_FUNC_CFGPv23LIS2DS12_ACC_FUNC_CFG_t) for LIS2DS12_ACC_W_FUNC_CFG(void*, LIS2DS12_ACC_FUNC_CFG_t)
    bsp_imu.o(i._Z8IMU_Initv) refers to lis2ds12_acc.o(i._Z21LIS2DS12_ACC_WriteRegPvhPht) for LIS2DS12_ACC_WriteReg(void*, unsigned char, unsigned char*, unsigned short)
    bsp_imu.o(i._Z8IMU_Initv) refers to lis2ds12_acc.o(i._Z22LIS2DS12_ACC_W_SC_MTHSPvh) for LIS2DS12_ACC_W_SC_MTHS(void*, unsigned char)
    bsp_imu.o(i._Z8IMU_Initv) refers to lis2ds12_acc.o(i._Z24LIS2DS12_ACC_W_FullScalePv17LIS2DS12_ACC_FS_t) for LIS2DS12_ACC_W_FullScale(void*, LIS2DS12_ACC_FS_t)
    bsp_imu.o(i._Z8IMU_Initv) refers to lis2ds12_acc.o(i._Z21LIS2DS12_ACC_W_PEDO4GPv21LIS2DS12_ACC_PEDO4G_t) for LIS2DS12_ACC_W_PEDO4G(void*, LIS2DS12_ACC_PEDO4G_t)
    bsp_imu.o(i._Z8IMU_Initv) refers to lis2ds12_acc.o(i._Z26LIS2DS12_ACC_W_STEP_CNT_ONPv26LIS2DS12_ACC_STEP_CNT_ON_t) for LIS2DS12_ACC_W_STEP_CNT_ON(void*, LIS2DS12_ACC_STEP_CNT_ON_t)
    bsp_imu.o(i._Z8IMU_Initv) refers to lis2ds12_acc.o(i._Z28LIS2DS12_ACC_W_INT2_STEP_DETPv28LIS2DS12_ACC_INT2_STEP_DET_t) for LIS2DS12_ACC_W_INT2_STEP_DET(void*, LIS2DS12_ACC_INT2_STEP_DET_t)
    bsp_imu.o(i._Z8IMU_Initv) refers to lis2ds12_acc.o(i._Z18LIS2DS12_ACC_W_LIRPv18LIS2DS12_ACC_LIR_t) for LIS2DS12_ACC_W_LIR(void*, LIS2DS12_ACC_LIR_t)
    bsp_imu.o(i._Z8IMU_Initv) refers to lis2ds12_acc.o(i._Z18LIS2DS12_ACC_W_ODRPv18LIS2DS12_ACC_ODR_t) for LIS2DS12_ACC_W_ODR(void*, LIS2DS12_ACC_ODR_t)
    bsp_imu.o(i._Z8IMU_Initv) refers to bsp_imu.o(.bss) for .bss
    bsp_imu.o(i._Z8IMU_Initv) refers to bsp_imu.o(i._Z16IMU_NodeCallbackPvh) for IMU_NodeCallback(void*, unsigned char)
    bsp_imu.o(i._Z8IMU_Initv) refers to bsp_imu.o(.data) for .data
    bsp_imu.o(.ARM.exidx) refers to bsp_imu.o(i._Z16IMU_NodeCallbackPvh) for i._Z16IMU_NodeCallbackPvh
    bsp_imu.o(.ARM.exidx) refers to bsp_imu.o(i._Z8IMU_Initv) for i._Z8IMU_Initv
    bsp_imu.o(.ARM.exidx) refers to bsp_imu.o(i._Z10IMU_Updatev) for i._Z10IMU_Updatev
    bsp_imu.o(.ARM.exidx) refers to bsp_imu.o(i._Z12IMU_GetStepsv) for i._Z12IMU_GetStepsv
    bsp_particlesensor.o(i._Z19ParticleSensor_Initv) refers to print.o(i._ZN5Print7printlnEPKc) for Print::println(const char*)
    bsp_particlesensor.o(i._Z19ParticleSensor_Initv) refers to max30105.o(i._ZN8MAX301055beginER7TwoWirejh) for MAX30105::begin(TwoWire&, unsigned, unsigned char)
    bsp_particlesensor.o(i._Z19ParticleSensor_Initv) refers to max30105.o(i._ZN8MAX301055setupEhhhiii) for MAX30105::setup(unsigned char, unsigned char, unsigned char, int, int, int)
    bsp_particlesensor.o(i._Z19ParticleSensor_Initv) refers to max30105.o(i._ZN8MAX3010520setPulseAmplitudeRedEh) for MAX30105::setPulseAmplitudeRed(unsigned char)
    bsp_particlesensor.o(i._Z19ParticleSensor_Initv) refers to max30105.o(i._ZN8MAX3010522setPulseAmplitudeGreenEh) for MAX30105::setPulseAmplitudeGreen(unsigned char)
    bsp_particlesensor.o(i._Z19ParticleSensor_Initv) refers to bsp_particlesensor.o(.bss) for .bss
    bsp_particlesensor.o(i._Z19ParticleSensor_Initv) refers to bsp_particlesensor.o(i._Z27ParticleSensor_NodeCallbackPvh) for ParticleSensor_NodeCallback(void*, unsigned char)
    bsp_particlesensor.o(i._Z19ParticleSensor_Initv) refers to hardwareserial.o(.bss) for Serial
    bsp_particlesensor.o(i._Z19ParticleSensor_Initv) refers to wire.o(.bss) for Wire
    bsp_particlesensor.o(i._Z21ParticleSensor_Updatev) refers to max30105.o(i._ZN8MAX301055getIREv) for MAX30105::getIR()
    bsp_particlesensor.o(i._Z21ParticleSensor_Updatev) refers to heartrate.o(i._Z12checkForBeati) for checkForBeat(int)
    bsp_particlesensor.o(i._Z21ParticleSensor_Updatev) refers to delay.o(i.millis) for millis
    bsp_particlesensor.o(i._Z21ParticleSensor_Updatev) refers to dflt_clz.o(x$fpl$dflt) for __aeabi_i2d
    bsp_particlesensor.o(i._Z21ParticleSensor_Updatev) refers to ddiv.o(x$fpl$ddiv) for __aeabi_ddiv
    bsp_particlesensor.o(i._Z21ParticleSensor_Updatev) refers to d2f.o(x$fpl$d2f) for __aeabi_d2f
    bsp_particlesensor.o(i._Z21ParticleSensor_Updatev) refers to ffixu.o(x$fpl$ffixu) for __aeabi_f2uiz
    bsp_particlesensor.o(i._Z21ParticleSensor_Updatev) refers to fmul.o(x$fpl$fmul) for __aeabi_fmul
    bsp_particlesensor.o(i._Z21ParticleSensor_Updatev) refers to ffix.o(x$fpl$ffix) for __aeabi_f2iz
    bsp_particlesensor.o(i._Z21ParticleSensor_Updatev) refers to bsp_comslave.o(i._Z35ComSlave_ReqExecuteUserCallbackNodePK21ComSlave_UserCallback) for ComSlave_ReqExecuteUserCallbackNode(const ComSlave_UserCallback*)
    bsp_particlesensor.o(i._Z21ParticleSensor_Updatev) refers to bsp_particlesensor.o(.bss) for .bss
    bsp_particlesensor.o(i._Z21ParticleSensor_Updatev) refers to bsp_particlesensor.o(.data) for .data
    bsp_particlesensor.o(i._Z27ParticleSensor_NodeCallbackPvh) refers to bsp_particlesensor.o(.data) for .data
    bsp_particlesensor.o(i.__sti___22_BSP_ParticleSensor_cpp_rateSpot) refers to max30105.o(i._ZN8MAX30105C1Ev) for MAX30105::MAX30105()
    bsp_particlesensor.o(i.__sti___22_BSP_ParticleSensor_cpp_rateSpot) refers to bsp_particlesensor.o(.bss) for .bss
    bsp_particlesensor.o(.ARM.exidx) refers to bsp_particlesensor.o(i._Z27ParticleSensor_NodeCallbackPvh) for i._Z27ParticleSensor_NodeCallbackPvh
    bsp_particlesensor.o(.ARM.exidx) refers to bsp_particlesensor.o(i._Z19ParticleSensor_Initv) for i._Z19ParticleSensor_Initv
    bsp_particlesensor.o(.ARM.exidx) refers to bsp_particlesensor.o(i._Z21ParticleSensor_Updatev) for i._Z21ParticleSensor_Updatev
    bsp_particlesensor.o(.ARM.exidx) refers to bsp_particlesensor.o(i.__sti___22_BSP_ParticleSensor_cpp_rateSpot) for i.__sti___22_BSP_ParticleSensor_cpp_rateSpot
    bsp_particlesensor.o(.init_array) refers to bsp_particlesensor.o(i.__sti___22_BSP_ParticleSensor_cpp_rateSpot) for __sti___22_BSP_ParticleSensor_cpp_rateSpot
    bsp_particlesensor.o(.init_array) refers to init_aeabi.o(.text) for __cpp_initialize__aeabi_
    bsp_touchpad.o(i._Z13TouchPad_Initv) refers to bsp_touchpad.o(.bss) for .bss
    bsp_touchpad.o(i._Z13TouchPad_Initv) refers to bsp_touchpad.o(i._Z21TouchPad_NodeCallbackPvh) for TouchPad_NodeCallback(void*, unsigned char)
    bsp_touchpad.o(i._Z15TouchPad_Updatev) refers to ft6336u.o(i._ZN7FT6336U17read_touch1_eventEv) for FT6336U::read_touch1_event()
    bsp_touchpad.o(i._Z15TouchPad_Updatev) refers to ft6336u.o(i._ZN7FT6336U13read_touch1_xEv) for FT6336U::read_touch1_x()
    bsp_touchpad.o(i._Z15TouchPad_Updatev) refers to ft6336u.o(i._ZN7FT6336U13read_touch1_yEv) for FT6336U::read_touch1_y()
    bsp_touchpad.o(i._Z15TouchPad_Updatev) refers to bsp_comslave.o(i._Z35ComSlave_ReqExecuteUserCallbackNodePK21ComSlave_UserCallback) for ComSlave_ReqExecuteUserCallbackNode(const ComSlave_UserCallback*)
    bsp_touchpad.o(i._Z15TouchPad_Updatev) refers to bsp_touchpad.o(.bss) for .bss
    bsp_touchpad.o(i._Z15TouchPad_Updatev) refers to bsp_touchpad.o(.data) for .data
    bsp_touchpad.o(i._Z18TouchPad_GetPointsPsS_) refers to bsp_touchpad.o(.data) for .data
    bsp_touchpad.o(i._Z19TouchPad_GetPressedv) refers to bsp_touchpad.o(.data) for .data
    bsp_touchpad.o(i._Z21TouchPad_NodeCallbackPvh) refers to bsp_touchpad.o(.data) for .data
    bsp_touchpad.o(i.__sti___16_BSP_TouchPad_cpp_880b6338) refers to ft6336u.o(i._ZN7FT6336UC1Ev) for FT6336U::FT6336U()
    bsp_touchpad.o(i.__sti___16_BSP_TouchPad_cpp_880b6338) refers to aeabi_atexit.o(.text) for __aeabi_atexit
    bsp_touchpad.o(i.__sti___16_BSP_TouchPad_cpp_880b6338) refers to bsp_touchpad.o(.bss) for .bss
    bsp_touchpad.o(i.__sti___16_BSP_TouchPad_cpp_880b6338) refers to ft6336u.o(i._ZN7FT6336UD1Ev) for FT6336U::~FT6336U()
    bsp_touchpad.o(.ARM.exidx) refers to bsp_touchpad.o(i._Z21TouchPad_NodeCallbackPvh) for i._Z21TouchPad_NodeCallbackPvh
    bsp_touchpad.o(.ARM.exidx) refers to bsp_touchpad.o(i._Z13TouchPad_Initv) for i._Z13TouchPad_Initv
    bsp_touchpad.o(.ARM.exidx) refers to bsp_touchpad.o(i._Z15TouchPad_Updatev) for i._Z15TouchPad_Updatev
    bsp_touchpad.o(.ARM.exidx) refers to bsp_touchpad.o(i._Z19TouchPad_GetPressedv) for i._Z19TouchPad_GetPressedv
    bsp_touchpad.o(.ARM.exidx) refers to bsp_touchpad.o(i._Z18TouchPad_GetPointsPsS_) for i._Z18TouchPad_GetPointsPsS_
    bsp_touchpad.o(.ARM.exidx) refers to bsp_touchpad.o(i.__sti___16_BSP_TouchPad_cpp_880b6338) for i.__sti___16_BSP_TouchPad_cpp_880b6338
    bsp_touchpad.o(.init_array) refers to bsp_touchpad.o(i.__sti___16_BSP_TouchPad_cpp_880b6338) for __sti___16_BSP_TouchPad_cpp_880b6338
    bsp_touchpad.o(.init_array) refers to init_aeabi.o(.text) for __cpp_initialize__aeabi_
    bsp_comslave.o(i._Z13ComSlave_Initv) refers to hardwareserial.o(i._ZN14HardwareSerial5beginEj) for HardwareSerial::begin(unsigned)
    bsp_comslave.o(i._Z13ComSlave_Initv) refers to hardwareserial.o(.bss) for Serial2
    bsp_comslave.o(i._Z14CS_StateUpdatev) refers to rt_memclr.o(.text) for __aeabi_memclr
    bsp_comslave.o(i._Z14CS_StateUpdatev) refers to print.o(i._ZN5Print5writeEPKvj) for Print::write(const void*, unsigned)
    bsp_comslave.o(i._Z14CS_StateUpdatev) refers to bsp_comslave.o(.data) for .data
    bsp_comslave.o(i._Z14CS_StateUpdatev) refers to bsp_comslave.o(.bss) for .bss
    bsp_comslave.o(i._Z14CS_StateUpdatev) refers to hardwareserial.o(.bss) for Serial2
    bsp_comslave.o(i._Z15ComSlave_Updatev) refers to bsp_comslave.o(i._Z14CS_StateUpdatev) for CS_StateUpdate()
    bsp_comslave.o(i._Z35ComSlave_ReqExecuteUserCallbackNodePK21ComSlave_UserCallback) refers to bsp_comslave.o(.data) for .data
    bsp_comslave.o(.ARM.exidx) refers to bsp_comslave.o(i._Z14CS_StateUpdatev) for i._Z14CS_StateUpdatev
    bsp_comslave.o(.ARM.exidx) refers to bsp_comslave.o(i._Z13ComSlave_Initv) for i._Z13ComSlave_Initv
    bsp_comslave.o(.ARM.exidx) refers to bsp_comslave.o(i._Z15ComSlave_Updatev) for i._Z15ComSlave_Updatev
    bsp_comslave.o(.ARM.exidx) refers to bsp_comslave.o(i._Z35ComSlave_ReqExecuteUserCallbackNodePK21ComSlave_UserCallback) for i._Z35ComSlave_ReqExecuteUserCallbackNodePK21ComSlave_UserCallback
    ft6336u.o(i._ZN7FT6336U10read_stateEv) refers to ft6336u.o(i._ZN7FT6336U8readByteEh) for FT6336U::readByte(unsigned char)
    ft6336u.o(i._ZN7FT6336U11read_g_modeEv) refers to ft6336u.o(i._ZN7FT6336U8readByteEh) for FT6336U::readByte(unsigned char)
    ft6336u.o(i._ZN7FT6336U12read_chip_idEv) refers to ft6336u.o(i._ZN7FT6336U8readByteEh) for FT6336U::readByte(unsigned char)
    ft6336u.o(i._ZN7FT6336U12read_pwrmodeEv) refers to ft6336u.o(i._ZN7FT6336U8readByteEh) for FT6336U::readByte(unsigned char)
    ft6336u.o(i._ZN7FT6336U12write_g_modeE11G_MODE_Enum) refers to ft6336u.o(i._ZN7FT6336U9writeByteEhh) for FT6336U::writeByte(unsigned char, unsigned char)
    ft6336u.o(i._ZN7FT6336U13read_touch1_xEv) refers to ft6336u.o(i._ZN7FT6336U8readByteEh) for FT6336U::readByte(unsigned char)
    ft6336u.o(i._ZN7FT6336U13read_touch1_yEv) refers to ft6336u.o(i._ZN7FT6336U8readByteEh) for FT6336U::readByte(unsigned char)
    ft6336u.o(i._ZN7FT6336U13read_touch2_xEv) refers to ft6336u.o(i._ZN7FT6336U8readByteEh) for FT6336U::readByte(unsigned char)
    ft6336u.o(i._ZN7FT6336U13read_touch2_yEv) refers to ft6336u.o(i._ZN7FT6336U8readByteEh) for FT6336U::readByte(unsigned char)
    ft6336u.o(i._ZN7FT6336U14read_ctrl_modeEv) refers to ft6336u.o(i._ZN7FT6336U8readByteEh) for FT6336U::readByte(unsigned char)
    ft6336u.o(i._ZN7FT6336U14read_td_statusEv) refers to ft6336u.o(i._ZN7FT6336U8readByteEh) for FT6336U::readByte(unsigned char)
    ft6336u.o(i._ZN7FT6336U14read_touch1_idEv) refers to ft6336u.o(i._ZN7FT6336U8readByteEh) for FT6336U::readByte(unsigned char)
    ft6336u.o(i._ZN7FT6336U14read_touch2_idEv) refers to ft6336u.o(i._ZN7FT6336U8readByteEh) for FT6336U::readByte(unsigned char)
    ft6336u.o(i._ZN7FT6336U15read_gesture_idEv) refers to ft6336u.o(i._ZN7FT6336U8readByteEh) for FT6336U::readByte(unsigned char)
    ft6336u.o(i._ZN7FT6336U15write_ctrl_modeE14CTRL_MODE_Enum) refers to ft6336u.o(i._ZN7FT6336U9writeByteEhh) for FT6336U::writeByte(unsigned char, unsigned char)
    ft6336u.o(i._ZN7FT6336U16read_active_rateEv) refers to ft6336u.o(i._ZN7FT6336U8readByteEh) for FT6336U::readByte(unsigned char)
    ft6336u.o(i._ZN7FT6336U16read_device_modeEv) refers to ft6336u.o(i._ZN7FT6336U8readByteEh) for FT6336U::readByte(unsigned char)
    ft6336u.o(i._ZN7FT6336U16read_firmware_idEv) refers to ft6336u.o(i._ZN7FT6336U8readByteEh) for FT6336U::readByte(unsigned char)
    ft6336u.o(i._ZN7FT6336U16read_touch1_miscEv) refers to ft6336u.o(i._ZN7FT6336U8readByteEh) for FT6336U::readByte(unsigned char)
    ft6336u.o(i._ZN7FT6336U16read_touch2_miscEv) refers to ft6336u.o(i._ZN7FT6336U8readByteEh) for FT6336U::readByte(unsigned char)
    ft6336u.o(i._ZN7FT6336U17read_focaltech_idEv) refers to ft6336u.o(i._ZN7FT6336U8readByteEh) for FT6336U::readByte(unsigned char)
    ft6336u.o(i._ZN7FT6336U17read_monitor_rateEv) refers to ft6336u.o(i._ZN7FT6336U8readByteEh) for FT6336U::readByte(unsigned char)
    ft6336u.o(i._ZN7FT6336U17read_radian_valueEv) refers to ft6336u.o(i._ZN7FT6336U8readByteEh) for FT6336U::readByte(unsigned char)
    ft6336u.o(i._ZN7FT6336U17read_touch1_eventEv) refers to ft6336u.o(i._ZN7FT6336U8readByteEh) for FT6336U::readByte(unsigned char)
    ft6336u.o(i._ZN7FT6336U17read_touch2_eventEv) refers to ft6336u.o(i._ZN7FT6336U8readByteEh) for FT6336U::readByte(unsigned char)
    ft6336u.o(i._ZN7FT6336U17read_touch_numberEv) refers to ft6336u.o(i._ZN7FT6336U8readByteEh) for FT6336U::readByte(unsigned char)
    ft6336u.o(i._ZN7FT6336U17write_device_modeE16DEVICE_MODE_Enum) refers to ft6336u.o(i._ZN7FT6336U9writeByteEhh) for FT6336U::writeByte(unsigned char, unsigned char)
    ft6336u.o(i._ZN7FT6336U18read_distance_zoomEv) refers to ft6336u.o(i._ZN7FT6336U8readByteEh) for FT6336U::readByte(unsigned char)
    ft6336u.o(i._ZN7FT6336U18read_touch1_weightEv) refers to ft6336u.o(i._ZN7FT6336U8readByteEh) for FT6336U::readByte(unsigned char)
    ft6336u.o(i._ZN7FT6336U18read_touch2_weightEv) refers to ft6336u.o(i._ZN7FT6336U8readByteEh) for FT6336U::readByte(unsigned char)
    ft6336u.o(i._ZN7FT6336U18write_radian_valueEh) refers to ft6336u.o(i._ZN7FT6336U9writeByteEhh) for FT6336U::writeByte(unsigned char, unsigned char)
    ft6336u.o(i._ZN7FT6336U19read_offset_up_downEv) refers to ft6336u.o(i._ZN7FT6336U8readByteEh) for FT6336U::readByte(unsigned char)
    ft6336u.o(i._ZN7FT6336U19write_distance_zoomEh) refers to ft6336u.o(i._ZN7FT6336U9writeByteEhh) for FT6336U::writeByte(unsigned char, unsigned char)
    ft6336u.o(i._ZN7FT6336U20read_library_versionEv) refers to ft6336u.o(i._ZN7FT6336U8readByteEh) for FT6336U::readByte(unsigned char)
    ft6336u.o(i._ZN7FT6336U20read_release_code_idEv) refers to ft6336u.o(i._ZN7FT6336U8readByteEh) for FT6336U::readByte(unsigned char)
    ft6336u.o(i._ZN7FT6336U20read_touch_thresholdEv) refers to ft6336u.o(i._ZN7FT6336U8readByteEh) for FT6336U::readByte(unsigned char)
    ft6336u.o(i._ZN7FT6336U20write_offset_up_downEh) refers to ft6336u.o(i._ZN7FT6336U9writeByteEhh) for FT6336U::writeByte(unsigned char, unsigned char)
    ft6336u.o(i._ZN7FT6336U21read_distance_up_downEv) refers to ft6336u.o(i._ZN7FT6336U8readByteEh) for FT6336U::readByte(unsigned char)
    ft6336u.o(i._ZN7FT6336U22read_offset_left_rightEv) refers to ft6336u.o(i._ZN7FT6336U8readByteEh) for FT6336U::readByte(unsigned char)
    ft6336u.o(i._ZN7FT6336U22write_distance_up_downEh) refers to ft6336u.o(i._ZN7FT6336U9writeByteEhh) for FT6336U::writeByte(unsigned char, unsigned char)
    ft6336u.o(i._ZN7FT6336U23read_filter_coefficientEv) refers to ft6336u.o(i._ZN7FT6336U8readByteEh) for FT6336U::readByte(unsigned char)
    ft6336u.o(i._ZN7FT6336U23write_offset_left_rightEh) refers to ft6336u.o(i._ZN7FT6336U9writeByteEhh) for FT6336U::writeByte(unsigned char, unsigned char)
    ft6336u.o(i._ZN7FT6336U24read_distance_left_rightEv) refers to ft6336u.o(i._ZN7FT6336U8readByteEh) for FT6336U::readByte(unsigned char)
    ft6336u.o(i._ZN7FT6336U25write_distance_left_rightEh) refers to ft6336u.o(i._ZN7FT6336U9writeByteEhh) for FT6336U::writeByte(unsigned char, unsigned char)
    ft6336u.o(i._ZN7FT6336U30read_time_period_enter_monitorEv) refers to ft6336u.o(i._ZN7FT6336U8readByteEh) for FT6336U::readByte(unsigned char)
    ft6336u.o(i._ZN7FT6336U4scanEv) refers to ft6336u.o(i._ZN7FT6336U14read_td_statusEv) for FT6336U::read_td_status()
    ft6336u.o(i._ZN7FT6336U4scanEv) refers to ft6336u.o(i._ZN7FT6336U14read_touch1_idEv) for FT6336U::read_touch1_id()
    ft6336u.o(i._ZN7FT6336U4scanEv) refers to ft6336u.o(i._ZN7FT6336U13read_touch1_xEv) for FT6336U::read_touch1_x()
    ft6336u.o(i._ZN7FT6336U4scanEv) refers to ft6336u.o(i._ZN7FT6336U13read_touch1_yEv) for FT6336U::read_touch1_y()
    ft6336u.o(i._ZN7FT6336U4scanEv) refers to ft6336u.o(i._ZN7FT6336U14read_touch2_idEv) for FT6336U::read_touch2_id()
    ft6336u.o(i._ZN7FT6336U4scanEv) refers to ft6336u.o(i._ZN7FT6336U13read_touch2_xEv) for FT6336U::read_touch2_x()
    ft6336u.o(i._ZN7FT6336U4scanEv) refers to ft6336u.o(i._ZN7FT6336U13read_touch2_yEv) for FT6336U::read_touch2_y()
    ft6336u.o(i._ZN7FT6336U4scanEv) refers to rt_memcpy_v6.o(.text) for __aeabi_memcpy
    ft6336u.o(i._ZN7FT6336U5beginEv) refers to wire.o(i._ZN7TwoWire5beginEh) for TwoWire::begin(unsigned char)
    ft6336u.o(i._ZN7FT6336U5beginEv) refers to wire.o(.bss) for Wire
    ft6336u.o(i._ZN7FT6336U8readByteEh) refers to wirebase.o(i._ZN8WireBase17beginTransmissionEi) for WireBase::beginTransmission(int)
    ft6336u.o(i._ZN7FT6336U8readByteEh) refers to wirebase.o(i._ZN8WireBase5writeEh) for WireBase::write(unsigned char)
    ft6336u.o(i._ZN7FT6336U8readByteEh) refers to wirebase.o(i._ZN8WireBase15endTransmissionEv) for WireBase::endTransmission()
    ft6336u.o(i._ZN7FT6336U8readByteEh) refers to wirebase.o(i._ZN8WireBase11requestFromEii) for WireBase::requestFrom(int, int)
    ft6336u.o(i._ZN7FT6336U8readByteEh) refers to wirebase.o(i._ZN8WireBase4readEv) for WireBase::read()
    ft6336u.o(i._ZN7FT6336U8readByteEh) refers to wirebase.o(i._ZN8WireBase9availableEv) for WireBase::available()
    ft6336u.o(i._ZN7FT6336U8readByteEh) refers to wire.o(.bss) for Wire
    ft6336u.o(i._ZN7FT6336U9writeByteEhh) refers to wirebase.o(i._ZN8WireBase17beginTransmissionEi) for WireBase::beginTransmission(int)
    ft6336u.o(i._ZN7FT6336U9writeByteEhh) refers to wirebase.o(i._ZN8WireBase5writeEh) for WireBase::write(unsigned char)
    ft6336u.o(i._ZN7FT6336U9writeByteEhh) refers to wirebase.o(i._ZN8WireBase15endTransmissionEv) for WireBase::endTransmission()
    ft6336u.o(i._ZN7FT6336U9writeByteEhh) refers to wire.o(.bss) for Wire
    ft6336u.o(i._ZN7FT6336UC1Ev) refers to ft6336u.o(.constdata__ZTV7FT6336U) for vtable for FT6336U
    ft6336u.o(i._ZN7FT6336UD0Ev) refers to delete.o(i._ZdlPv) for operator delete (void*)
    ft6336u.o(.ARM.exidx) refers to ft6336u.o(i._ZN7FT6336UC1Ev) for i._ZN7FT6336UC1Ev
    ft6336u.o(.ARM.exidx) refers to ft6336u.o(i._ZN7FT6336UD1Ev) for i._ZN7FT6336UD1Ev
    ft6336u.o(.ARM.exidx) refers to ft6336u.o(i._ZN7FT6336UD0Ev) for i._ZN7FT6336UD0Ev
    ft6336u.o(.ARM.exidx) refers to ft6336u.o(i._ZN7FT6336U5beginEv) for i._ZN7FT6336U5beginEv
    ft6336u.o(.ARM.exidx) refers to ft6336u.o(i._ZN7FT6336U8readByteEh) for i._ZN7FT6336U8readByteEh
    ft6336u.o(.ARM.exidx) refers to ft6336u.o(i._ZN7FT6336U16read_device_modeEv) for i._ZN7FT6336U16read_device_modeEv
    ft6336u.o(.ARM.exidx) refers to ft6336u.o(i._ZN7FT6336U9writeByteEhh) for i._ZN7FT6336U9writeByteEhh
    ft6336u.o(.ARM.exidx) refers to ft6336u.o(i._ZN7FT6336U17write_device_modeE16DEVICE_MODE_Enum) for i._ZN7FT6336U17write_device_modeE16DEVICE_MODE_Enum
    ft6336u.o(.ARM.exidx) refers to ft6336u.o(i._ZN7FT6336U15read_gesture_idEv) for i._ZN7FT6336U15read_gesture_idEv
    ft6336u.o(.ARM.exidx) refers to ft6336u.o(i._ZN7FT6336U14read_td_statusEv) for i._ZN7FT6336U14read_td_statusEv
    ft6336u.o(.ARM.exidx) refers to ft6336u.o(i._ZN7FT6336U17read_touch_numberEv) for i._ZN7FT6336U17read_touch_numberEv
    ft6336u.o(.ARM.exidx) refers to ft6336u.o(i._ZN7FT6336U13read_touch1_xEv) for i._ZN7FT6336U13read_touch1_xEv
    ft6336u.o(.ARM.exidx) refers to ft6336u.o(i._ZN7FT6336U13read_touch1_yEv) for i._ZN7FT6336U13read_touch1_yEv
    ft6336u.o(.ARM.exidx) refers to ft6336u.o(i._ZN7FT6336U17read_touch1_eventEv) for i._ZN7FT6336U17read_touch1_eventEv
    ft6336u.o(.ARM.exidx) refers to ft6336u.o(i._ZN7FT6336U14read_touch1_idEv) for i._ZN7FT6336U14read_touch1_idEv
    ft6336u.o(.ARM.exidx) refers to ft6336u.o(i._ZN7FT6336U18read_touch1_weightEv) for i._ZN7FT6336U18read_touch1_weightEv
    ft6336u.o(.ARM.exidx) refers to ft6336u.o(i._ZN7FT6336U16read_touch1_miscEv) for i._ZN7FT6336U16read_touch1_miscEv
    ft6336u.o(.ARM.exidx) refers to ft6336u.o(i._ZN7FT6336U13read_touch2_xEv) for i._ZN7FT6336U13read_touch2_xEv
    ft6336u.o(.ARM.exidx) refers to ft6336u.o(i._ZN7FT6336U13read_touch2_yEv) for i._ZN7FT6336U13read_touch2_yEv
    ft6336u.o(.ARM.exidx) refers to ft6336u.o(i._ZN7FT6336U17read_touch2_eventEv) for i._ZN7FT6336U17read_touch2_eventEv
    ft6336u.o(.ARM.exidx) refers to ft6336u.o(i._ZN7FT6336U14read_touch2_idEv) for i._ZN7FT6336U14read_touch2_idEv
    ft6336u.o(.ARM.exidx) refers to ft6336u.o(i._ZN7FT6336U18read_touch2_weightEv) for i._ZN7FT6336U18read_touch2_weightEv
    ft6336u.o(.ARM.exidx) refers to ft6336u.o(i._ZN7FT6336U16read_touch2_miscEv) for i._ZN7FT6336U16read_touch2_miscEv
    ft6336u.o(.ARM.exidx) refers to ft6336u.o(i._ZN7FT6336U20read_touch_thresholdEv) for i._ZN7FT6336U20read_touch_thresholdEv
    ft6336u.o(.ARM.exidx) refers to ft6336u.o(i._ZN7FT6336U23read_filter_coefficientEv) for i._ZN7FT6336U23read_filter_coefficientEv
    ft6336u.o(.ARM.exidx) refers to ft6336u.o(i._ZN7FT6336U14read_ctrl_modeEv) for i._ZN7FT6336U14read_ctrl_modeEv
    ft6336u.o(.ARM.exidx) refers to ft6336u.o(i._ZN7FT6336U15write_ctrl_modeE14CTRL_MODE_Enum) for i._ZN7FT6336U15write_ctrl_modeE14CTRL_MODE_Enum
    ft6336u.o(.ARM.exidx) refers to ft6336u.o(i._ZN7FT6336U30read_time_period_enter_monitorEv) for i._ZN7FT6336U30read_time_period_enter_monitorEv
    ft6336u.o(.ARM.exidx) refers to ft6336u.o(i._ZN7FT6336U16read_active_rateEv) for i._ZN7FT6336U16read_active_rateEv
    ft6336u.o(.ARM.exidx) refers to ft6336u.o(i._ZN7FT6336U17read_monitor_rateEv) for i._ZN7FT6336U17read_monitor_rateEv
    ft6336u.o(.ARM.exidx) refers to ft6336u.o(i._ZN7FT6336U17read_radian_valueEv) for i._ZN7FT6336U17read_radian_valueEv
    ft6336u.o(.ARM.exidx) refers to ft6336u.o(i._ZN7FT6336U18write_radian_valueEh) for i._ZN7FT6336U18write_radian_valueEh
    ft6336u.o(.ARM.exidx) refers to ft6336u.o(i._ZN7FT6336U22read_offset_left_rightEv) for i._ZN7FT6336U22read_offset_left_rightEv
    ft6336u.o(.ARM.exidx) refers to ft6336u.o(i._ZN7FT6336U23write_offset_left_rightEh) for i._ZN7FT6336U23write_offset_left_rightEh
    ft6336u.o(.ARM.exidx) refers to ft6336u.o(i._ZN7FT6336U19read_offset_up_downEv) for i._ZN7FT6336U19read_offset_up_downEv
    ft6336u.o(.ARM.exidx) refers to ft6336u.o(i._ZN7FT6336U20write_offset_up_downEh) for i._ZN7FT6336U20write_offset_up_downEh
    ft6336u.o(.ARM.exidx) refers to ft6336u.o(i._ZN7FT6336U24read_distance_left_rightEv) for i._ZN7FT6336U24read_distance_left_rightEv
    ft6336u.o(.ARM.exidx) refers to ft6336u.o(i._ZN7FT6336U25write_distance_left_rightEh) for i._ZN7FT6336U25write_distance_left_rightEh
    ft6336u.o(.ARM.exidx) refers to ft6336u.o(i._ZN7FT6336U21read_distance_up_downEv) for i._ZN7FT6336U21read_distance_up_downEv
    ft6336u.o(.ARM.exidx) refers to ft6336u.o(i._ZN7FT6336U22write_distance_up_downEh) for i._ZN7FT6336U22write_distance_up_downEh
    ft6336u.o(.ARM.exidx) refers to ft6336u.o(i._ZN7FT6336U18read_distance_zoomEv) for i._ZN7FT6336U18read_distance_zoomEv
    ft6336u.o(.ARM.exidx) refers to ft6336u.o(i._ZN7FT6336U19write_distance_zoomEh) for i._ZN7FT6336U19write_distance_zoomEh
    ft6336u.o(.ARM.exidx) refers to ft6336u.o(i._ZN7FT6336U20read_library_versionEv) for i._ZN7FT6336U20read_library_versionEv
    ft6336u.o(.ARM.exidx) refers to ft6336u.o(i._ZN7FT6336U12read_chip_idEv) for i._ZN7FT6336U12read_chip_idEv
    ft6336u.o(.ARM.exidx) refers to ft6336u.o(i._ZN7FT6336U11read_g_modeEv) for i._ZN7FT6336U11read_g_modeEv
    ft6336u.o(.ARM.exidx) refers to ft6336u.o(i._ZN7FT6336U12write_g_modeE11G_MODE_Enum) for i._ZN7FT6336U12write_g_modeE11G_MODE_Enum
    ft6336u.o(.ARM.exidx) refers to ft6336u.o(i._ZN7FT6336U12read_pwrmodeEv) for i._ZN7FT6336U12read_pwrmodeEv
    ft6336u.o(.ARM.exidx) refers to ft6336u.o(i._ZN7FT6336U16read_firmware_idEv) for i._ZN7FT6336U16read_firmware_idEv
    ft6336u.o(.ARM.exidx) refers to ft6336u.o(i._ZN7FT6336U17read_focaltech_idEv) for i._ZN7FT6336U17read_focaltech_idEv
    ft6336u.o(.ARM.exidx) refers to ft6336u.o(i._ZN7FT6336U20read_release_code_idEv) for i._ZN7FT6336U20read_release_code_idEv
    ft6336u.o(.ARM.exidx) refers to ft6336u.o(i._ZN7FT6336U10read_stateEv) for i._ZN7FT6336U10read_stateEv
    ft6336u.o(.ARM.exidx) refers to ft6336u.o(i._ZN7FT6336U4scanEv) for i._ZN7FT6336U4scanEv
    lis2ds12_acc.o(i._Z17LIS2DS12_ACC_R_STPvP17LIS2DS12_ACC_ST_t) refers to lis2ds12_acc.o(i._Z20LIS2DS12_ACC_ReadRegPvhPht) for LIS2DS12_ACC_ReadReg(void*, unsigned char, unsigned char*, unsigned short)
    lis2ds12_acc.o(i._Z17LIS2DS12_ACC_R_XHPvP17LIS2DS12_ACC_XH_t) refers to lis2ds12_acc.o(i._Z20LIS2DS12_ACC_ReadRegPvhPht) for LIS2DS12_ACC_ReadReg(void*, unsigned char, unsigned char*, unsigned short)
    lis2ds12_acc.o(i._Z17LIS2DS12_ACC_R_XLPvP17LIS2DS12_ACC_XL_t) refers to lis2ds12_acc.o(i._Z20LIS2DS12_ACC_ReadRegPvhPht) for LIS2DS12_ACC_ReadReg(void*, unsigned char, unsigned char*, unsigned short)
    lis2ds12_acc.o(i._Z17LIS2DS12_ACC_R_YHPvP17LIS2DS12_ACC_YH_t) refers to lis2ds12_acc.o(i._Z20LIS2DS12_ACC_ReadRegPvhPht) for LIS2DS12_ACC_ReadReg(void*, unsigned char, unsigned char*, unsigned short)
    lis2ds12_acc.o(i._Z17LIS2DS12_ACC_R_YLPvP17LIS2DS12_ACC_YL_t) refers to lis2ds12_acc.o(i._Z20LIS2DS12_ACC_ReadRegPvhPht) for LIS2DS12_ACC_ReadReg(void*, unsigned char, unsigned char*, unsigned short)
    lis2ds12_acc.o(i._Z17LIS2DS12_ACC_R_ZHPvP17LIS2DS12_ACC_ZH_t) refers to lis2ds12_acc.o(i._Z20LIS2DS12_ACC_ReadRegPvhPht) for LIS2DS12_ACC_ReadReg(void*, unsigned char, unsigned char*, unsigned short)
    lis2ds12_acc.o(i._Z17LIS2DS12_ACC_R_ZLPvP17LIS2DS12_ACC_ZL_t) refers to lis2ds12_acc.o(i._Z20LIS2DS12_ACC_ReadRegPvhPht) for LIS2DS12_ACC_ReadReg(void*, unsigned char, unsigned char*, unsigned short)
    lis2ds12_acc.o(i._Z17LIS2DS12_ACC_W_STPv17LIS2DS12_ACC_ST_t) refers to lis2ds12_acc.o(i._Z20LIS2DS12_ACC_ReadRegPvhPht) for LIS2DS12_ACC_ReadReg(void*, unsigned char, unsigned char*, unsigned short)
    lis2ds12_acc.o(i._Z17LIS2DS12_ACC_W_STPv17LIS2DS12_ACC_ST_t) refers to lis2ds12_acc.o(i._Z21LIS2DS12_ACC_WriteRegPvhPht) for LIS2DS12_ACC_WriteReg(void*, unsigned char, unsigned char*, unsigned short)
    lis2ds12_acc.o(i._Z18LIS2DS12_ACC_R_BDUPvP18LIS2DS12_ACC_BDU_t) refers to lis2ds12_acc.o(i._Z20LIS2DS12_ACC_ReadRegPvhPht) for LIS2DS12_ACC_ReadReg(void*, unsigned char, unsigned char*, unsigned short)
    lis2ds12_acc.o(i._Z18LIS2DS12_ACC_R_FTHPvP25LIS2DS12_ACC_FTH_STATUS_t) refers to lis2ds12_acc.o(i._Z20LIS2DS12_ACC_ReadRegPvhPht) for LIS2DS12_ACC_ReadReg(void*, unsigned char, unsigned char*, unsigned short)
    lis2ds12_acc.o(i._Z18LIS2DS12_ACC_R_LATPvPh) refers to lis2ds12_acc.o(i._Z20LIS2DS12_ACC_ReadRegPvhPht) for LIS2DS12_ACC_ReadReg(void*, unsigned char, unsigned char*, unsigned short)
    lis2ds12_acc.o(i._Z18LIS2DS12_ACC_R_LIRPvP18LIS2DS12_ACC_LIR_t) refers to lis2ds12_acc.o(i._Z20LIS2DS12_ACC_ReadRegPvhPht) for LIS2DS12_ACC_ReadReg(void*, unsigned char, unsigned char*, unsigned short)
    lis2ds12_acc.o(i._Z18LIS2DS12_ACC_R_ODRPvP18LIS2DS12_ACC_ODR_t) refers to lis2ds12_acc.o(i._Z20LIS2DS12_ACC_ReadRegPvhPht) for LIS2DS12_ACC_ReadReg(void*, unsigned char, unsigned char*, unsigned short)
    lis2ds12_acc.o(i._Z18LIS2DS12_ACC_R_SIMPvP18LIS2DS12_ACC_SIM_t) refers to lis2ds12_acc.o(i._Z20LIS2DS12_ACC_ReadRegPvhPht) for LIS2DS12_ACC_ReadReg(void*, unsigned char, unsigned char*, unsigned short)
    lis2ds12_acc.o(i._Z18LIS2DS12_ACC_W_BDUPv18LIS2DS12_ACC_BDU_t) refers to lis2ds12_acc.o(i._Z20LIS2DS12_ACC_ReadRegPvhPht) for LIS2DS12_ACC_ReadReg(void*, unsigned char, unsigned char*, unsigned short)
    lis2ds12_acc.o(i._Z18LIS2DS12_ACC_W_BDUPv18LIS2DS12_ACC_BDU_t) refers to lis2ds12_acc.o(i._Z21LIS2DS12_ACC_WriteRegPvhPht) for LIS2DS12_ACC_WriteReg(void*, unsigned char, unsigned char*, unsigned short)
    lis2ds12_acc.o(i._Z18LIS2DS12_ACC_W_LATPvh) refers to lis2ds12_acc.o(i._Z20LIS2DS12_ACC_ReadRegPvhPht) for LIS2DS12_ACC_ReadReg(void*, unsigned char, unsigned char*, unsigned short)
    lis2ds12_acc.o(i._Z18LIS2DS12_ACC_W_LATPvh) refers to lis2ds12_acc.o(i._Z21LIS2DS12_ACC_WriteRegPvhPht) for LIS2DS12_ACC_WriteReg(void*, unsigned char, unsigned char*, unsigned short)
    lis2ds12_acc.o(i._Z18LIS2DS12_ACC_W_LIRPv18LIS2DS12_ACC_LIR_t) refers to lis2ds12_acc.o(i._Z20LIS2DS12_ACC_ReadRegPvhPht) for LIS2DS12_ACC_ReadReg(void*, unsigned char, unsigned char*, unsigned short)
    lis2ds12_acc.o(i._Z18LIS2DS12_ACC_W_LIRPv18LIS2DS12_ACC_LIR_t) refers to lis2ds12_acc.o(i._Z21LIS2DS12_ACC_WriteRegPvhPht) for LIS2DS12_ACC_WriteReg(void*, unsigned char, unsigned char*, unsigned short)
    lis2ds12_acc.o(i._Z18LIS2DS12_ACC_W_ODRPv18LIS2DS12_ACC_ODR_t) refers to lis2ds12_acc.o(i._Z20LIS2DS12_ACC_ReadRegPvhPht) for LIS2DS12_ACC_ReadReg(void*, unsigned char, unsigned char*, unsigned short)
    lis2ds12_acc.o(i._Z18LIS2DS12_ACC_W_ODRPv18LIS2DS12_ACC_ODR_t) refers to lis2ds12_acc.o(i._Z21LIS2DS12_ACC_WriteRegPvhPht) for LIS2DS12_ACC_WriteReg(void*, unsigned char, unsigned char*, unsigned short)
    lis2ds12_acc.o(i._Z18LIS2DS12_ACC_W_SIMPv18LIS2DS12_ACC_SIM_t) refers to lis2ds12_acc.o(i._Z20LIS2DS12_ACC_ReadRegPvhPht) for LIS2DS12_ACC_ReadReg(void*, unsigned char, unsigned char*, unsigned short)
    lis2ds12_acc.o(i._Z18LIS2DS12_ACC_W_SIMPv18LIS2DS12_ACC_SIM_t) refers to lis2ds12_acc.o(i._Z21LIS2DS12_ACC_WriteRegPvhPht) for LIS2DS12_ACC_WriteReg(void*, unsigned char, unsigned char*, unsigned short)
    lis2ds12_acc.o(i._Z19LIS2DS12_ACC_R_BOOTPvP19LIS2DS12_ACC_BOOT_t) refers to lis2ds12_acc.o(i._Z20LIS2DS12_ACC_ReadRegPvhPht) for LIS2DS12_ACC_ReadReg(void*, unsigned char, unsigned char*, unsigned short)
    lis2ds12_acc.o(i._Z19LIS2DS12_ACC_R_DRDYPvP19LIS2DS12_ACC_DRDY_t) refers to lis2ds12_acc.o(i._Z20LIS2DS12_ACC_ReadRegPvhPht) for LIS2DS12_ACC_ReadReg(void*, unsigned char, unsigned char*, unsigned short)
    lis2ds12_acc.o(i._Z19LIS2DS12_ACC_R_X_WUPvP19LIS2DS12_ACC_X_WU_t) refers to lis2ds12_acc.o(i._Z20LIS2DS12_ACC_ReadRegPvhPht) for LIS2DS12_ACC_ReadReg(void*, unsigned char, unsigned char*, unsigned short)
    lis2ds12_acc.o(i._Z19LIS2DS12_ACC_R_Y_WUPvP19LIS2DS12_ACC_Y_WU_t) refers to lis2ds12_acc.o(i._Z20LIS2DS12_ACC_ReadRegPvhPht) for LIS2DS12_ACC_ReadReg(void*, unsigned char, unsigned char*, unsigned short)
    lis2ds12_acc.o(i._Z19LIS2DS12_ACC_R_Z_WUPvP19LIS2DS12_ACC_Z_WU_t) refers to lis2ds12_acc.o(i._Z20LIS2DS12_ACC_ReadRegPvhPht) for LIS2DS12_ACC_ReadReg(void*, unsigned char, unsigned char*, unsigned short)
    lis2ds12_acc.o(i._Z19LIS2DS12_ACC_W_BOOTPv19LIS2DS12_ACC_BOOT_t) refers to lis2ds12_acc.o(i._Z20LIS2DS12_ACC_ReadRegPvhPht) for LIS2DS12_ACC_ReadReg(void*, unsigned char, unsigned char*, unsigned short)
    lis2ds12_acc.o(i._Z19LIS2DS12_ACC_W_BOOTPv19LIS2DS12_ACC_BOOT_t) refers to lis2ds12_acc.o(i._Z21LIS2DS12_ACC_WriteRegPvhPht) for LIS2DS12_ACC_WriteReg(void*, unsigned char, unsigned char*, unsigned short)
    lis2ds12_acc.o(i._Z20LIS2DS12_ACC_R_4D_ENPvP20LIS2DS12_ACC_4D_EN_t) refers to lis2ds12_acc.o(i._Z20LIS2DS12_ACC_ReadRegPvhPht) for LIS2DS12_ACC_ReadReg(void*, unsigned char, unsigned char*, unsigned short)
    lis2ds12_acc.o(i._Z20LIS2DS12_ACC_R_6D_IAPvP20LIS2DS12_ACC_6D_IA_t) refers to lis2ds12_acc.o(i._Z20LIS2DS12_ACC_ReadRegPvhPht) for LIS2DS12_ACC_ReadReg(void*, unsigned char, unsigned char*, unsigned short)
    lis2ds12_acc.o(i._Z20LIS2DS12_ACC_R_FF_IAPvP20LIS2DS12_ACC_FF_IA_t) refers to lis2ds12_acc.o(i._Z20LIS2DS12_ACC_ReadRegPvhPht) for LIS2DS12_ACC_ReadReg(void*, unsigned char, unsigned char*, unsigned short)
    lis2ds12_acc.o(i._Z20LIS2DS12_ACC_R_FMODEPvP20LIS2DS12_ACC_FMODE_t) refers to lis2ds12_acc.o(i._Z20LIS2DS12_ACC_ReadRegPvhPht) for LIS2DS12_ACC_ReadReg(void*, unsigned char, unsigned char*, unsigned short)
    lis2ds12_acc.o(i._Z20LIS2DS12_ACC_R_PP_ODPvP20LIS2DS12_ACC_PP_OD_t) refers to lis2ds12_acc.o(i._Z20LIS2DS12_ACC_ReadRegPvhPht) for LIS2DS12_ACC_ReadReg(void*, unsigned char, unsigned char*, unsigned short)
    lis2ds12_acc.o(i._Z20LIS2DS12_ACC_R_QUIETPvPh) refers to lis2ds12_acc.o(i._Z20LIS2DS12_ACC_ReadRegPvhPht) for LIS2DS12_ACC_ReadReg(void*, unsigned char, unsigned char*, unsigned short)
    lis2ds12_acc.o(i._Z20LIS2DS12_ACC_R_SHOCKPvPh) refers to lis2ds12_acc.o(i._Z20LIS2DS12_ACC_ReadRegPvhPht) for LIS2DS12_ACC_ReadReg(void*, unsigned char, unsigned char*, unsigned short)
    lis2ds12_acc.o(i._Z20LIS2DS12_ACC_R_WU_IAPvP20LIS2DS12_ACC_WU_IA_t) refers to lis2ds12_acc.o(i._Z20LIS2DS12_ACC_ReadRegPvhPht) for LIS2DS12_ACC_ReadReg(void*, unsigned char, unsigned char*, unsigned short)
    lis2ds12_acc.o(i._Z20LIS2DS12_ACC_R_X_TAPPvP20LIS2DS12_ACC_X_TAP_t) refers to lis2ds12_acc.o(i._Z20LIS2DS12_ACC_ReadRegPvhPht) for LIS2DS12_ACC_ReadReg(void*, unsigned char, unsigned char*, unsigned short)
    lis2ds12_acc.o(i._Z20LIS2DS12_ACC_R_Y_TAPPvP20LIS2DS12_ACC_Y_TAP_t) refers to lis2ds12_acc.o(i._Z20LIS2DS12_ACC_ReadRegPvhPht) for LIS2DS12_ACC_ReadReg(void*, unsigned char, unsigned char*, unsigned short)
    lis2ds12_acc.o(i._Z20LIS2DS12_ACC_R_Z_TAPPvP20LIS2DS12_ACC_Z_TAP_t) refers to lis2ds12_acc.o(i._Z20LIS2DS12_ACC_ReadRegPvhPht) for LIS2DS12_ACC_ReadReg(void*, unsigned char, unsigned char*, unsigned short)
    lis2ds12_acc.o(i._Z20LIS2DS12_ACC_ReadRegPvhPht) refers to wirebase.o(i._ZN8WireBase17beginTransmissionEh) for WireBase::beginTransmission(unsigned char)
    lis2ds12_acc.o(i._Z20LIS2DS12_ACC_ReadRegPvhPht) refers to wirebase.o(i._ZN8WireBase5writeEh) for WireBase::write(unsigned char)
    lis2ds12_acc.o(i._Z20LIS2DS12_ACC_ReadRegPvhPht) refers to wirebase.o(i._ZN8WireBase15endTransmissionEv) for WireBase::endTransmission()
    lis2ds12_acc.o(i._Z20LIS2DS12_ACC_ReadRegPvhPht) refers to wirebase.o(i._ZN8WireBase11requestFromEhi) for WireBase::requestFrom(unsigned char, int)
    lis2ds12_acc.o(i._Z20LIS2DS12_ACC_ReadRegPvhPht) refers to wirebase.o(i._ZN8WireBase4readEv) for WireBase::read()
    lis2ds12_acc.o(i._Z20LIS2DS12_ACC_ReadRegPvhPht) refers to wire.o(.bss) for Wire
    lis2ds12_acc.o(i._Z20LIS2DS12_ACC_W_4D_ENPv20LIS2DS12_ACC_4D_EN_t) refers to lis2ds12_acc.o(i._Z20LIS2DS12_ACC_ReadRegPvhPht) for LIS2DS12_ACC_ReadReg(void*, unsigned char, unsigned char*, unsigned short)
    lis2ds12_acc.o(i._Z20LIS2DS12_ACC_W_4D_ENPv20LIS2DS12_ACC_4D_EN_t) refers to lis2ds12_acc.o(i._Z21LIS2DS12_ACC_WriteRegPvhPht) for LIS2DS12_ACC_WriteReg(void*, unsigned char, unsigned char*, unsigned short)
    lis2ds12_acc.o(i._Z20LIS2DS12_ACC_W_FMODEPv20LIS2DS12_ACC_FMODE_t) refers to lis2ds12_acc.o(i._Z20LIS2DS12_ACC_ReadRegPvhPht) for LIS2DS12_ACC_ReadReg(void*, unsigned char, unsigned char*, unsigned short)
    lis2ds12_acc.o(i._Z20LIS2DS12_ACC_W_FMODEPv20LIS2DS12_ACC_FMODE_t) refers to lis2ds12_acc.o(i._Z21LIS2DS12_ACC_WriteRegPvhPht) for LIS2DS12_ACC_WriteReg(void*, unsigned char, unsigned char*, unsigned short)
    lis2ds12_acc.o(i._Z20LIS2DS12_ACC_W_PP_ODPv20LIS2DS12_ACC_PP_OD_t) refers to lis2ds12_acc.o(i._Z20LIS2DS12_ACC_ReadRegPvhPht) for LIS2DS12_ACC_ReadReg(void*, unsigned char, unsigned char*, unsigned short)
    lis2ds12_acc.o(i._Z20LIS2DS12_ACC_W_PP_ODPv20LIS2DS12_ACC_PP_OD_t) refers to lis2ds12_acc.o(i._Z21LIS2DS12_ACC_WriteRegPvhPht) for LIS2DS12_ACC_WriteReg(void*, unsigned char, unsigned char*, unsigned short)
    lis2ds12_acc.o(i._Z20LIS2DS12_ACC_W_QUIETPvh) refers to lis2ds12_acc.o(i._Z20LIS2DS12_ACC_ReadRegPvhPht) for LIS2DS12_ACC_ReadReg(void*, unsigned char, unsigned char*, unsigned short)
    lis2ds12_acc.o(i._Z20LIS2DS12_ACC_W_QUIETPvh) refers to lis2ds12_acc.o(i._Z21LIS2DS12_ACC_WriteRegPvhPht) for LIS2DS12_ACC_WriteReg(void*, unsigned char, unsigned char*, unsigned short)
    lis2ds12_acc.o(i._Z20LIS2DS12_ACC_W_SHOCKPvh) refers to lis2ds12_acc.o(i._Z20LIS2DS12_ACC_ReadRegPvhPht) for LIS2DS12_ACC_ReadReg(void*, unsigned char, unsigned char*, unsigned short)
    lis2ds12_acc.o(i._Z20LIS2DS12_ACC_W_SHOCKPvh) refers to lis2ds12_acc.o(i._Z21LIS2DS12_ACC_WriteRegPvhPht) for LIS2DS12_ACC_WriteReg(void*, unsigned char, unsigned char*, unsigned short)
    lis2ds12_acc.o(i._Z21LIS2DS12_ACC_R_6D_THSPvP21LIS2DS12_ACC_6D_THS_t) refers to lis2ds12_acc.o(i._Z20LIS2DS12_ACC_ReadRegPvhPht) for LIS2DS12_ACC_ReadReg(void*, unsigned char, unsigned char*, unsigned short)
    lis2ds12_acc.o(i._Z21LIS2DS12_ACC_R_FS_SRCPvP21LIS2DS12_ACC_FS_SRC_t) refers to lis2ds12_acc.o(i._Z20LIS2DS12_ACC_ReadRegPvhPht) for LIS2DS12_ACC_ReadReg(void*, unsigned char, unsigned char*, unsigned short)
    lis2ds12_acc.o(i._Z21LIS2DS12_ACC_R_HF_ODRPvP21LIS2DS12_ACC_HF_ODR_t) refers to lis2ds12_acc.o(i._Z20LIS2DS12_ACC_ReadRegPvhPht) for LIS2DS12_ACC_ReadReg(void*, unsigned char, unsigned char*, unsigned short)
    lis2ds12_acc.o(i._Z21LIS2DS12_ACC_R_PEDO4GPvP21LIS2DS12_ACC_PEDO4G_t) refers to lis2ds12_acc.o(i._Z20LIS2DS12_ACC_ReadRegPvhPht) for LIS2DS12_ACC_ReadReg(void*, unsigned char, unsigned char*, unsigned short)
    lis2ds12_acc.o(i._Z21LIS2DS12_ACC_R_TAP_IAPvP21LIS2DS12_ACC_TAP_IA_t) refers to lis2ds12_acc.o(i._Z20LIS2DS12_ACC_ReadRegPvhPht) for LIS2DS12_ACC_ReadReg(void*, unsigned char, unsigned char*, unsigned short)
    lis2ds12_acc.o(i._Z21LIS2DS12_ACC_R_TUD_ENPvP21LIS2DS12_ACC_TUD_EN_t) refers to lis2ds12_acc.o(i._Z20LIS2DS12_ACC_ReadRegPvhPht) for LIS2DS12_ACC_ReadReg(void*, unsigned char, unsigned char*, unsigned short)
    lis2ds12_acc.o(i._Z21LIS2DS12_ACC_R_WU_THSPvPh) refers to lis2ds12_acc.o(i._Z20LIS2DS12_ACC_ReadRegPvhPht) for LIS2DS12_ACC_ReadReg(void*, unsigned char, unsigned char*, unsigned short)
    lis2ds12_acc.o(i._Z21LIS2DS12_ACC_W_6D_THSPv21LIS2DS12_ACC_6D_THS_t) refers to lis2ds12_acc.o(i._Z20LIS2DS12_ACC_ReadRegPvhPht) for LIS2DS12_ACC_ReadReg(void*, unsigned char, unsigned char*, unsigned short)
    lis2ds12_acc.o(i._Z21LIS2DS12_ACC_W_6D_THSPv21LIS2DS12_ACC_6D_THS_t) refers to lis2ds12_acc.o(i._Z21LIS2DS12_ACC_WriteRegPvhPht) for LIS2DS12_ACC_WriteReg(void*, unsigned char, unsigned char*, unsigned short)
    lis2ds12_acc.o(i._Z21LIS2DS12_ACC_W_HF_ODRPv21LIS2DS12_ACC_HF_ODR_t) refers to lis2ds12_acc.o(i._Z20LIS2DS12_ACC_ReadRegPvhPht) for LIS2DS12_ACC_ReadReg(void*, unsigned char, unsigned char*, unsigned short)
    lis2ds12_acc.o(i._Z21LIS2DS12_ACC_W_HF_ODRPv21LIS2DS12_ACC_HF_ODR_t) refers to lis2ds12_acc.o(i._Z21LIS2DS12_ACC_WriteRegPvhPht) for LIS2DS12_ACC_WriteReg(void*, unsigned char, unsigned char*, unsigned short)
    lis2ds12_acc.o(i._Z21LIS2DS12_ACC_W_PEDO4GPv21LIS2DS12_ACC_PEDO4G_t) refers to lis2ds12_acc.o(i._Z20LIS2DS12_ACC_ReadRegPvhPht) for LIS2DS12_ACC_ReadReg(void*, unsigned char, unsigned char*, unsigned short)
    lis2ds12_acc.o(i._Z21LIS2DS12_ACC_W_PEDO4GPv21LIS2DS12_ACC_PEDO4G_t) refers to lis2ds12_acc.o(i._Z21LIS2DS12_ACC_WriteRegPvhPht) for LIS2DS12_ACC_WriteReg(void*, unsigned char, unsigned char*, unsigned short)
    lis2ds12_acc.o(i._Z21LIS2DS12_ACC_W_TUD_ENPv21LIS2DS12_ACC_TUD_EN_t) refers to lis2ds12_acc.o(i._Z20LIS2DS12_ACC_ReadRegPvhPht) for LIS2DS12_ACC_ReadReg(void*, unsigned char, unsigned char*, unsigned short)
    lis2ds12_acc.o(i._Z21LIS2DS12_ACC_W_TUD_ENPv21LIS2DS12_ACC_TUD_EN_t) refers to lis2ds12_acc.o(i._Z21LIS2DS12_ACC_WriteRegPvhPht) for LIS2DS12_ACC_WriteReg(void*, unsigned char, unsigned char*, unsigned short)
    lis2ds12_acc.o(i._Z21LIS2DS12_ACC_W_WU_THSPvh) refers to lis2ds12_acc.o(i._Z20LIS2DS12_ACC_ReadRegPvhPht) for LIS2DS12_ACC_ReadReg(void*, unsigned char, unsigned char*, unsigned short)
    lis2ds12_acc.o(i._Z21LIS2DS12_ACC_W_WU_THSPvh) refers to lis2ds12_acc.o(i._Z21LIS2DS12_ACC_WriteRegPvhPht) for LIS2DS12_ACC_WriteReg(void*, unsigned char, unsigned char*, unsigned short)
    lis2ds12_acc.o(i._Z21LIS2DS12_ACC_WriteRegPvhPht) refers to wirebase.o(i._ZN8WireBase17beginTransmissionEh) for WireBase::beginTransmission(unsigned char)
    lis2ds12_acc.o(i._Z21LIS2DS12_ACC_WriteRegPvhPht) refers to wirebase.o(i._ZN8WireBase5writeEh) for WireBase::write(unsigned char)
    lis2ds12_acc.o(i._Z21LIS2DS12_ACC_WriteRegPvhPht) refers to wirebase.o(i._ZN8WireBase15endTransmissionEv) for WireBase::endTransmission()
    lis2ds12_acc.o(i._Z21LIS2DS12_ACC_WriteRegPvhPht) refers to wire.o(.bss) for Wire
    lis2ds12_acc.o(i._Z22LIS2DS12_ACC_R_INT1_6DPvP22LIS2DS12_ACC_INT1_6D_t) refers to lis2ds12_acc.o(i._Z20LIS2DS12_ACC_ReadRegPvhPht) for LIS2DS12_ACC_ReadReg(void*, unsigned char, unsigned char*, unsigned short)
    lis2ds12_acc.o(i._Z22LIS2DS12_ACC_R_INT1_FFPvP22LIS2DS12_ACC_INT1_FF_t) refers to lis2ds12_acc.o(i._Z20LIS2DS12_ACC_ReadRegPvhPht) for LIS2DS12_ACC_ReadReg(void*, unsigned char, unsigned char*, unsigned short)
    lis2ds12_acc.o(i._Z22LIS2DS12_ACC_R_INT1_WUPvP22LIS2DS12_ACC_INT1_WU_t) refers to lis2ds12_acc.o(i._Z20LIS2DS12_ACC_ReadRegPvhPht) for LIS2DS12_ACC_ReadReg(void*, unsigned char, unsigned char*, unsigned short)
    lis2ds12_acc.o(i._Z22LIS2DS12_ACC_R_OVR_DUPPvP22LIS2DS12_ACC_OVR_DUP_t) refers to lis2ds12_acc.o(i._Z20LIS2DS12_ACC_ReadRegPvhPht) for LIS2DS12_ACC_ReadReg(void*, unsigned char, unsigned char*, unsigned short)
    lis2ds12_acc.o(i._Z22LIS2DS12_ACC_R_SC_MTHSPvPh) refers to lis2ds12_acc.o(i._Z20LIS2DS12_ACC_ReadRegPvhPht) for LIS2DS12_ACC_ReadReg(void*, unsigned char, unsigned char*, unsigned short)
    lis2ds12_acc.o(i._Z22LIS2DS12_ACC_R_TAP_THSPvPh) refers to lis2ds12_acc.o(i._Z20LIS2DS12_ACC_ReadRegPvhPht) for LIS2DS12_ACC_ReadReg(void*, unsigned char, unsigned char*, unsigned short)
    lis2ds12_acc.o(i._Z22LIS2DS12_ACC_R_TILT_ONPvP22LIS2DS12_ACC_TILT_ON_t) refers to lis2ds12_acc.o(i._Z20LIS2DS12_ACC_ReadRegPvhPht) for LIS2DS12_ACC_ReadReg(void*, unsigned char, unsigned char*, unsigned short)
    lis2ds12_acc.o(i._Z22LIS2DS12_ACC_W_INT1_6DPv22LIS2DS12_ACC_INT1_6D_t) refers to lis2ds12_acc.o(i._Z20LIS2DS12_ACC_ReadRegPvhPht) for LIS2DS12_ACC_ReadReg(void*, unsigned char, unsigned char*, unsigned short)
    lis2ds12_acc.o(i._Z22LIS2DS12_ACC_W_INT1_6DPv22LIS2DS12_ACC_INT1_6D_t) refers to lis2ds12_acc.o(i._Z21LIS2DS12_ACC_WriteRegPvhPht) for LIS2DS12_ACC_WriteReg(void*, unsigned char, unsigned char*, unsigned short)
    lis2ds12_acc.o(i._Z22LIS2DS12_ACC_W_INT1_FFPv22LIS2DS12_ACC_INT1_FF_t) refers to lis2ds12_acc.o(i._Z20LIS2DS12_ACC_ReadRegPvhPht) for LIS2DS12_ACC_ReadReg(void*, unsigned char, unsigned char*, unsigned short)
    lis2ds12_acc.o(i._Z22LIS2DS12_ACC_W_INT1_FFPv22LIS2DS12_ACC_INT1_FF_t) refers to lis2ds12_acc.o(i._Z21LIS2DS12_ACC_WriteRegPvhPht) for LIS2DS12_ACC_WriteReg(void*, unsigned char, unsigned char*, unsigned short)
    lis2ds12_acc.o(i._Z22LIS2DS12_ACC_W_INT1_WUPv22LIS2DS12_ACC_INT1_WU_t) refers to lis2ds12_acc.o(i._Z20LIS2DS12_ACC_ReadRegPvhPht) for LIS2DS12_ACC_ReadReg(void*, unsigned char, unsigned char*, unsigned short)
    lis2ds12_acc.o(i._Z22LIS2DS12_ACC_W_INT1_WUPv22LIS2DS12_ACC_INT1_WU_t) refers to lis2ds12_acc.o(i._Z21LIS2DS12_ACC_WriteRegPvhPht) for LIS2DS12_ACC_WriteReg(void*, unsigned char, unsigned char*, unsigned short)
    lis2ds12_acc.o(i._Z22LIS2DS12_ACC_W_SC_MTHSPvh) refers to lis2ds12_acc.o(i._Z20LIS2DS12_ACC_ReadRegPvhPht) for LIS2DS12_ACC_ReadReg(void*, unsigned char, unsigned char*, unsigned short)
    lis2ds12_acc.o(i._Z22LIS2DS12_ACC_W_SC_MTHSPvh) refers to lis2ds12_acc.o(i._Z21LIS2DS12_ACC_WriteRegPvhPht) for LIS2DS12_ACC_WriteReg(void*, unsigned char, unsigned char*, unsigned short)
    lis2ds12_acc.o(i._Z22LIS2DS12_ACC_W_TAP_THSPvh) refers to lis2ds12_acc.o(i._Z20LIS2DS12_ACC_ReadRegPvhPht) for LIS2DS12_ACC_ReadReg(void*, unsigned char, unsigned char*, unsigned short)
    lis2ds12_acc.o(i._Z22LIS2DS12_ACC_W_TAP_THSPvh) refers to lis2ds12_acc.o(i._Z21LIS2DS12_ACC_WriteRegPvhPht) for LIS2DS12_ACC_WriteReg(void*, unsigned char, unsigned char*, unsigned short)
    lis2ds12_acc.o(i._Z22LIS2DS12_ACC_W_TILT_ONPv22LIS2DS12_ACC_TILT_ON_t) refers to lis2ds12_acc.o(i._Z20LIS2DS12_ACC_ReadRegPvhPht) for LIS2DS12_ACC_ReadReg(void*, unsigned char, unsigned char*, unsigned short)
    lis2ds12_acc.o(i._Z22LIS2DS12_ACC_W_TILT_ONPv22LIS2DS12_ACC_TILT_ON_t) refers to lis2ds12_acc.o(i._Z21LIS2DS12_ACC_WriteRegPvhPht) for LIS2DS12_ACC_WriteReg(void*, unsigned char, unsigned char*, unsigned short)
    lis2ds12_acc.o(i._Z23LIS2DS12_ACC_R_DRDY_DUPPvP23LIS2DS12_ACC_DRDY_DUP_t) refers to lis2ds12_acc.o(i._Z20LIS2DS12_ACC_ReadRegPvhPht) for LIS2DS12_ACC_ReadReg(void*, unsigned char, unsigned char*, unsigned short)
    lis2ds12_acc.o(i._Z23LIS2DS12_ACC_R_FIFO_OVRPvP23LIS2DS12_ACC_FIFO_OVR_t) refers to lis2ds12_acc.o(i._Z20LIS2DS12_ACC_ReadRegPvhPht) for LIS2DS12_ACC_ReadReg(void*, unsigned char, unsigned char*, unsigned short)
    lis2ds12_acc.o(i._Z23LIS2DS12_ACC_R_FIFO_THSPvP23LIS2DS12_ACC_FIFO_THS_t) refers to lis2ds12_acc.o(i._Z20LIS2DS12_ACC_ReadRegPvhPht) for LIS2DS12_ACC_ReadReg(void*, unsigned char, unsigned char*, unsigned short)
    lis2ds12_acc.o(i._Z23LIS2DS12_ACC_R_FUNC_CFGPvP23LIS2DS12_ACC_FUNC_CFG_t) refers to lis2ds12_acc.o(i._Z20LIS2DS12_ACC_ReadRegPvhPht) for LIS2DS12_ACC_ReadReg(void*, unsigned char, unsigned char*, unsigned short)
    lis2ds12_acc.o(i._Z23LIS2DS12_ACC_R_INT1_FTHPvP23LIS2DS12_ACC_INT1_FTH_t) refers to lis2ds12_acc.o(i._Z20LIS2DS12_ACC_ReadRegPvhPht) for LIS2DS12_ACC_ReadReg(void*, unsigned char, unsigned char*, unsigned short)
    lis2ds12_acc.o(i._Z23LIS2DS12_ACC_R_INT2_FTHPvP23LIS2DS12_ACC_INT2_FTH_t) refers to lis2ds12_acc.o(i._Z20LIS2DS12_ACC_ReadRegPvhPht) for LIS2DS12_ACC_ReadReg(void*, unsigned char, unsigned char*, unsigned short)
    lis2ds12_acc.o(i._Z23LIS2DS12_ACC_R_RST_PEDOPvP23LIS2DS12_ACC_RST_PEDO_t) refers to lis2ds12_acc.o(i._Z20LIS2DS12_ACC_ReadRegPvhPht) for LIS2DS12_ACC_ReadReg(void*, unsigned char, unsigned char*, unsigned short)
    lis2ds12_acc.o(i._Z23LIS2DS12_ACC_R_RST_TILTPvP23LIS2DS12_ACC_RST_TILT_t) refers to lis2ds12_acc.o(i._Z20LIS2DS12_ACC_ReadRegPvhPht) for LIS2DS12_ACC_ReadReg(void*, unsigned char, unsigned char*, unsigned short)
    lis2ds12_acc.o(i._Z23LIS2DS12_ACC_R_SLEEP_ONPvP23LIS2DS12_ACC_SLEEP_ON_t) refers to lis2ds12_acc.o(i._Z20LIS2DS12_ACC_ReadRegPvhPht) for LIS2DS12_ACC_ReadReg(void*, unsigned char, unsigned char*, unsigned short)
    lis2ds12_acc.o(i._Z23LIS2DS12_ACC_R_TAP_SIGNPvP23LIS2DS12_ACC_TAP_SIGN_t) refers to lis2ds12_acc.o(i._Z20LIS2DS12_ACC_ReadRegPvhPht) for LIS2DS12_ACC_ReadReg(void*, unsigned char, unsigned char*, unsigned short)
    lis2ds12_acc.o(i._Z23LIS2DS12_ACC_R_TAP_X_ENPvP23LIS2DS12_ACC_TAP_X_EN_t) refers to lis2ds12_acc.o(i._Z20LIS2DS12_ACC_ReadRegPvhPht) for LIS2DS12_ACC_ReadReg(void*, unsigned char, unsigned char*, unsigned short)
    lis2ds12_acc.o(i._Z23LIS2DS12_ACC_R_TAP_Y_ENPvP23LIS2DS12_ACC_TAP_Y_EN_t) refers to lis2ds12_acc.o(i._Z20LIS2DS12_ACC_ReadRegPvhPht) for LIS2DS12_ACC_ReadReg(void*, unsigned char, unsigned char*, unsigned short)
    lis2ds12_acc.o(i._Z23LIS2DS12_ACC_R_TAP_Z_ENPvP23LIS2DS12_ACC_TAP_Z_EN_t) refers to lis2ds12_acc.o(i._Z20LIS2DS12_ACC_ReadRegPvhPht) for LIS2DS12_ACC_ReadReg(void*, unsigned char, unsigned char*, unsigned short)
    lis2ds12_acc.o(i._Z23LIS2DS12_ACC_R_TILT_INTPvP23LIS2DS12_ACC_TILT_INT_t) refers to lis2ds12_acc.o(i._Z20LIS2DS12_ACC_ReadRegPvhPht) for LIS2DS12_ACC_ReadReg(void*, unsigned char, unsigned char*, unsigned short)
    lis2ds12_acc.o(i._Z23LIS2DS12_ACC_W_FUNC_CFGPv23LIS2DS12_ACC_FUNC_CFG_t) refers to lis2ds12_acc.o(i._Z20LIS2DS12_ACC_ReadRegPvhPht) for LIS2DS12_ACC_ReadReg(void*, unsigned char, unsigned char*, unsigned short)
    lis2ds12_acc.o(i._Z23LIS2DS12_ACC_W_FUNC_CFGPv23LIS2DS12_ACC_FUNC_CFG_t) refers to lis2ds12_acc.o(i._Z21LIS2DS12_ACC_WriteRegPvhPht) for LIS2DS12_ACC_WriteReg(void*, unsigned char, unsigned char*, unsigned short)
    lis2ds12_acc.o(i._Z23LIS2DS12_ACC_W_INT1_FTHPv23LIS2DS12_ACC_INT1_FTH_t) refers to lis2ds12_acc.o(i._Z20LIS2DS12_ACC_ReadRegPvhPht) for LIS2DS12_ACC_ReadReg(void*, unsigned char, unsigned char*, unsigned short)
    lis2ds12_acc.o(i._Z23LIS2DS12_ACC_W_INT1_FTHPv23LIS2DS12_ACC_INT1_FTH_t) refers to lis2ds12_acc.o(i._Z21LIS2DS12_ACC_WriteRegPvhPht) for LIS2DS12_ACC_WriteReg(void*, unsigned char, unsigned char*, unsigned short)
    lis2ds12_acc.o(i._Z23LIS2DS12_ACC_W_INT2_FTHPv23LIS2DS12_ACC_INT2_FTH_t) refers to lis2ds12_acc.o(i._Z20LIS2DS12_ACC_ReadRegPvhPht) for LIS2DS12_ACC_ReadReg(void*, unsigned char, unsigned char*, unsigned short)
    lis2ds12_acc.o(i._Z23LIS2DS12_ACC_W_INT2_FTHPv23LIS2DS12_ACC_INT2_FTH_t) refers to lis2ds12_acc.o(i._Z21LIS2DS12_ACC_WriteRegPvhPht) for LIS2DS12_ACC_WriteReg(void*, unsigned char, unsigned char*, unsigned short)
    lis2ds12_acc.o(i._Z23LIS2DS12_ACC_W_SLEEP_ONPv23LIS2DS12_ACC_SLEEP_ON_t) refers to lis2ds12_acc.o(i._Z20LIS2DS12_ACC_ReadRegPvhPht) for LIS2DS12_ACC_ReadReg(void*, unsigned char, unsigned char*, unsigned short)
    lis2ds12_acc.o(i._Z23LIS2DS12_ACC_W_SLEEP_ONPv23LIS2DS12_ACC_SLEEP_ON_t) refers to lis2ds12_acc.o(i._Z21LIS2DS12_ACC_WriteRegPvhPht) for LIS2DS12_ACC_WriteReg(void*, unsigned char, unsigned char*, unsigned short)
    lis2ds12_acc.o(i._Z23LIS2DS12_ACC_W_TAP_X_ENPv23LIS2DS12_ACC_TAP_X_EN_t) refers to lis2ds12_acc.o(i._Z20LIS2DS12_ACC_ReadRegPvhPht) for LIS2DS12_ACC_ReadReg(void*, unsigned char, unsigned char*, unsigned short)
    lis2ds12_acc.o(i._Z23LIS2DS12_ACC_W_TAP_X_ENPv23LIS2DS12_ACC_TAP_X_EN_t) refers to lis2ds12_acc.o(i._Z21LIS2DS12_ACC_WriteRegPvhPht) for LIS2DS12_ACC_WriteReg(void*, unsigned char, unsigned char*, unsigned short)
    lis2ds12_acc.o(i._Z23LIS2DS12_ACC_W_TAP_Y_ENPv23LIS2DS12_ACC_TAP_Y_EN_t) refers to lis2ds12_acc.o(i._Z20LIS2DS12_ACC_ReadRegPvhPht) for LIS2DS12_ACC_ReadReg(void*, unsigned char, unsigned char*, unsigned short)
    lis2ds12_acc.o(i._Z23LIS2DS12_ACC_W_TAP_Y_ENPv23LIS2DS12_ACC_TAP_Y_EN_t) refers to lis2ds12_acc.o(i._Z21LIS2DS12_ACC_WriteRegPvhPht) for LIS2DS12_ACC_WriteReg(void*, unsigned char, unsigned char*, unsigned short)
    lis2ds12_acc.o(i._Z23LIS2DS12_ACC_W_TAP_Z_ENPv23LIS2DS12_ACC_TAP_Z_EN_t) refers to lis2ds12_acc.o(i._Z20LIS2DS12_ACC_ReadRegPvhPht) for LIS2DS12_ACC_ReadReg(void*, unsigned char, unsigned char*, unsigned short)
    lis2ds12_acc.o(i._Z23LIS2DS12_ACC_W_TAP_Z_ENPv23LIS2DS12_ACC_TAP_Z_EN_t) refers to lis2ds12_acc.o(i._Z21LIS2DS12_ACC_WriteRegPvhPht) for LIS2DS12_ACC_WriteReg(void*, unsigned char, unsigned char*, unsigned short)
    lis2ds12_acc.o(i._Z24LIS2DS12_ACC_R_6D_IA_DUPPvP24LIS2DS12_ACC_6D_IA_DUP_t) refers to lis2ds12_acc.o(i._Z20LIS2DS12_ACC_ReadRegPvhPht) for LIS2DS12_ACC_ReadReg(void*, unsigned char, unsigned char*, unsigned short)
    lis2ds12_acc.o(i._Z24LIS2DS12_ACC_R_FDS_SLOPEPvP24LIS2DS12_ACC_FDS_SLOPE_t) refers to lis2ds12_acc.o(i._Z20LIS2DS12_ACC_ReadRegPvhPht) for LIS2DS12_ACC_ReadReg(void*, unsigned char, unsigned char*, unsigned short)
    lis2ds12_acc.o(i._Z24LIS2DS12_ACC_R_FF_IA_DUPPvP24LIS2DS12_ACC_FF_IA_DUP_t) refers to lis2ds12_acc.o(i._Z20LIS2DS12_ACC_ReadRegPvhPht) for LIS2DS12_ACC_ReadReg(void*, unsigned char, unsigned char*, unsigned short)
    lis2ds12_acc.o(i._Z24LIS2DS12_ACC_R_FifoThsldPvPh) refers to lis2ds12_acc.o(i._Z20LIS2DS12_ACC_ReadRegPvhPht) for LIS2DS12_ACC_ReadReg(void*, unsigned char, unsigned char*, unsigned short)
    lis2ds12_acc.o(i._Z24LIS2DS12_ACC_R_FullScalePvP17LIS2DS12_ACC_FS_t) refers to lis2ds12_acc.o(i._Z20LIS2DS12_ACC_ReadRegPvhPht) for LIS2DS12_ACC_ReadReg(void*, unsigned char, unsigned char*, unsigned short)
    lis2ds12_acc.o(i._Z24LIS2DS12_ACC_R_H_LACTIVEPvP24LIS2DS12_ACC_H_LACTIVE_t) refers to lis2ds12_acc.o(i._Z20LIS2DS12_ACC_ReadRegPvhPht) for LIS2DS12_ACC_ReadReg(void*, unsigned char, unsigned char*, unsigned short)
    lis2ds12_acc.o(i._Z24LIS2DS12_ACC_R_INT1_DRDYPvP24LIS2DS12_ACC_INT1_DRDY_t) refers to lis2ds12_acc.o(i._Z20LIS2DS12_ACC_ReadRegPvhPht) for LIS2DS12_ACC_ReadReg(void*, unsigned char, unsigned char*, unsigned short)
    lis2ds12_acc.o(i._Z24LIS2DS12_ACC_R_INT2_BOOTPvP24LIS2DS12_ACC_INT2_BOOT_t) refers to lis2ds12_acc.o(i._Z20LIS2DS12_ACC_ReadRegPvhPht) for LIS2DS12_ACC_ReadReg(void*, unsigned char, unsigned char*, unsigned short)
    lis2ds12_acc.o(i._Z24LIS2DS12_ACC_R_INT2_DRDYPvP24LIS2DS12_ACC_INT2_DRDY_t) refers to lis2ds12_acc.o(i._Z20LIS2DS12_ACC_ReadRegPvhPht) for LIS2DS12_ACC_ReadReg(void*, unsigned char, unsigned char*, unsigned short)
    lis2ds12_acc.o(i._Z24LIS2DS12_ACC_R_INT2_TILTPvP24LIS2DS12_ACC_INT2_TILT_t) refers to lis2ds12_acc.o(i._Z20LIS2DS12_ACC_ReadRegPvhPht) for LIS2DS12_ACC_ReadReg(void*, unsigned char, unsigned char*, unsigned short)
    lis2ds12_acc.o(i._Z24LIS2DS12_ACC_R_MASTER_ONPvP24LIS2DS12_ACC_MASTER_ON_t) refers to lis2ds12_acc.o(i._Z20LIS2DS12_ACC_ReadRegPvhPht) for LIS2DS12_ACC_ReadReg(void*, unsigned char, unsigned char*, unsigned short)
    lis2ds12_acc.o(i._Z24LIS2DS12_ACC_R_MODULE_ONPvP24LIS2DS12_ACC_MODULE_ON_t) refers to lis2ds12_acc.o(i._Z20LIS2DS12_ACC_ReadRegPvhPht) for LIS2DS12_ACC_ReadReg(void*, unsigned char, unsigned char*, unsigned short)
    lis2ds12_acc.o(i._Z24LIS2DS12_ACC_R_RST_NSTEPPvP24LIS2DS12_ACC_RST_NSTEP_t) refers to lis2ds12_acc.o(i._Z20LIS2DS12_ACC_ReadRegPvhPht) for LIS2DS12_ACC_ReadReg(void*, unsigned char, unsigned char*, unsigned short)
    lis2ds12_acc.o(i._Z24LIS2DS12_ACC_R_WU_IA_DUPPvP24LIS2DS12_ACC_WU_IA_DUP_t) refers to lis2ds12_acc.o(i._Z20LIS2DS12_ACC_ReadRegPvhPht) for LIS2DS12_ACC_ReadReg(void*, unsigned char, unsigned char*, unsigned short)
    lis2ds12_acc.o(i._Z24LIS2DS12_ACC_W_FDS_SLOPEPv24LIS2DS12_ACC_FDS_SLOPE_t) refers to lis2ds12_acc.o(i._Z20LIS2DS12_ACC_ReadRegPvhPht) for LIS2DS12_ACC_ReadReg(void*, unsigned char, unsigned char*, unsigned short)
    lis2ds12_acc.o(i._Z24LIS2DS12_ACC_W_FDS_SLOPEPv24LIS2DS12_ACC_FDS_SLOPE_t) refers to lis2ds12_acc.o(i._Z21LIS2DS12_ACC_WriteRegPvhPht) for LIS2DS12_ACC_WriteReg(void*, unsigned char, unsigned char*, unsigned short)
    lis2ds12_acc.o(i._Z24LIS2DS12_ACC_W_FifoThsldPvh) refers to lis2ds12_acc.o(i._Z20LIS2DS12_ACC_ReadRegPvhPht) for LIS2DS12_ACC_ReadReg(void*, unsigned char, unsigned char*, unsigned short)
    lis2ds12_acc.o(i._Z24LIS2DS12_ACC_W_FifoThsldPvh) refers to lis2ds12_acc.o(i._Z21LIS2DS12_ACC_WriteRegPvhPht) for LIS2DS12_ACC_WriteReg(void*, unsigned char, unsigned char*, unsigned short)
    lis2ds12_acc.o(i._Z24LIS2DS12_ACC_W_FullScalePv17LIS2DS12_ACC_FS_t) refers to lis2ds12_acc.o(i._Z20LIS2DS12_ACC_ReadRegPvhPht) for LIS2DS12_ACC_ReadReg(void*, unsigned char, unsigned char*, unsigned short)
    lis2ds12_acc.o(i._Z24LIS2DS12_ACC_W_FullScalePv17LIS2DS12_ACC_FS_t) refers to lis2ds12_acc.o(i._Z21LIS2DS12_ACC_WriteRegPvhPht) for LIS2DS12_ACC_WriteReg(void*, unsigned char, unsigned char*, unsigned short)
    lis2ds12_acc.o(i._Z24LIS2DS12_ACC_W_H_LACTIVEPv24LIS2DS12_ACC_H_LACTIVE_t) refers to lis2ds12_acc.o(i._Z20LIS2DS12_ACC_ReadRegPvhPht) for LIS2DS12_ACC_ReadReg(void*, unsigned char, unsigned char*, unsigned short)
    lis2ds12_acc.o(i._Z24LIS2DS12_ACC_W_H_LACTIVEPv24LIS2DS12_ACC_H_LACTIVE_t) refers to lis2ds12_acc.o(i._Z21LIS2DS12_ACC_WriteRegPvhPht) for LIS2DS12_ACC_WriteReg(void*, unsigned char, unsigned char*, unsigned short)
    lis2ds12_acc.o(i._Z24LIS2DS12_ACC_W_INT1_DRDYPv24LIS2DS12_ACC_INT1_DRDY_t) refers to lis2ds12_acc.o(i._Z20LIS2DS12_ACC_ReadRegPvhPht) for LIS2DS12_ACC_ReadReg(void*, unsigned char, unsigned char*, unsigned short)
    lis2ds12_acc.o(i._Z24LIS2DS12_ACC_W_INT1_DRDYPv24LIS2DS12_ACC_INT1_DRDY_t) refers to lis2ds12_acc.o(i._Z21LIS2DS12_ACC_WriteRegPvhPht) for LIS2DS12_ACC_WriteReg(void*, unsigned char, unsigned char*, unsigned short)
    lis2ds12_acc.o(i._Z24LIS2DS12_ACC_W_INT2_BOOTPv24LIS2DS12_ACC_INT2_BOOT_t) refers to lis2ds12_acc.o(i._Z20LIS2DS12_ACC_ReadRegPvhPht) for LIS2DS12_ACC_ReadReg(void*, unsigned char, unsigned char*, unsigned short)
    lis2ds12_acc.o(i._Z24LIS2DS12_ACC_W_INT2_BOOTPv24LIS2DS12_ACC_INT2_BOOT_t) refers to lis2ds12_acc.o(i._Z21LIS2DS12_ACC_WriteRegPvhPht) for LIS2DS12_ACC_WriteReg(void*, unsigned char, unsigned char*, unsigned short)
    lis2ds12_acc.o(i._Z24LIS2DS12_ACC_W_INT2_DRDYPv24LIS2DS12_ACC_INT2_DRDY_t) refers to lis2ds12_acc.o(i._Z20LIS2DS12_ACC_ReadRegPvhPht) for LIS2DS12_ACC_ReadReg(void*, unsigned char, unsigned char*, unsigned short)
    lis2ds12_acc.o(i._Z24LIS2DS12_ACC_W_INT2_DRDYPv24LIS2DS12_ACC_INT2_DRDY_t) refers to lis2ds12_acc.o(i._Z21LIS2DS12_ACC_WriteRegPvhPht) for LIS2DS12_ACC_WriteReg(void*, unsigned char, unsigned char*, unsigned short)
    lis2ds12_acc.o(i._Z24LIS2DS12_ACC_W_INT2_TILTPv24LIS2DS12_ACC_INT2_TILT_t) refers to lis2ds12_acc.o(i._Z20LIS2DS12_ACC_ReadRegPvhPht) for LIS2DS12_ACC_ReadReg(void*, unsigned char, unsigned char*, unsigned short)
    lis2ds12_acc.o(i._Z24LIS2DS12_ACC_W_INT2_TILTPv24LIS2DS12_ACC_INT2_TILT_t) refers to lis2ds12_acc.o(i._Z21LIS2DS12_ACC_WriteRegPvhPht) for LIS2DS12_ACC_WriteReg(void*, unsigned char, unsigned char*, unsigned short)
    lis2ds12_acc.o(i._Z24LIS2DS12_ACC_W_MASTER_ONPv24LIS2DS12_ACC_MASTER_ON_t) refers to lis2ds12_acc.o(i._Z20LIS2DS12_ACC_ReadRegPvhPht) for LIS2DS12_ACC_ReadReg(void*, unsigned char, unsigned char*, unsigned short)
    lis2ds12_acc.o(i._Z24LIS2DS12_ACC_W_MASTER_ONPv24LIS2DS12_ACC_MASTER_ON_t) refers to lis2ds12_acc.o(i._Z21LIS2DS12_ACC_WriteRegPvhPht) for LIS2DS12_ACC_WriteReg(void*, unsigned char, unsigned char*, unsigned short)
    lis2ds12_acc.o(i._Z24LIS2DS12_ACC_W_MODULE_ONPv24LIS2DS12_ACC_MODULE_ON_t) refers to lis2ds12_acc.o(i._Z20LIS2DS12_ACC_ReadRegPvhPht) for LIS2DS12_ACC_ReadReg(void*, unsigned char, unsigned char*, unsigned short)
    lis2ds12_acc.o(i._Z24LIS2DS12_ACC_W_MODULE_ONPv24LIS2DS12_ACC_MODULE_ON_t) refers to lis2ds12_acc.o(i._Z21LIS2DS12_ACC_WriteRegPvhPht) for LIS2DS12_ACC_WriteReg(void*, unsigned char, unsigned char*, unsigned short)
    lis2ds12_acc.o(i._Z24LIS2DS12_ACC_W_RST_NSTEPPv24LIS2DS12_ACC_RST_NSTEP_t) refers to lis2ds12_acc.o(i._Z20LIS2DS12_ACC_ReadRegPvhPht) for LIS2DS12_ACC_ReadReg(void*, unsigned char, unsigned char*, unsigned short)
    lis2ds12_acc.o(i._Z24LIS2DS12_ACC_W_RST_NSTEPPv24LIS2DS12_ACC_RST_NSTEP_t) refers to lis2ds12_acc.o(i._Z21LIS2DS12_ACC_WriteRegPvhPht) for LIS2DS12_ACC_WriteReg(void*, unsigned char, unsigned char*, unsigned short)
    lis2ds12_acc.o(i._Z25LIS2DS12_ACC_R_6D_IA_DUP2PvP25LIS2DS12_ACC_6D_IA_DUP2_t) refers to lis2ds12_acc.o(i._Z20LIS2DS12_ACC_ReadRegPvhPht) for LIS2DS12_ACC_ReadReg(void*, unsigned char, unsigned char*, unsigned short)
    lis2ds12_acc.o(i._Z25LIS2DS12_ACC_R_DOUBLE_TAPPvP25LIS2DS12_ACC_DOUBLE_TAP_t) refers to lis2ds12_acc.o(i._Z20LIS2DS12_ACC_ReadRegPvhPht) for LIS2DS12_ACC_ReadReg(void*, unsigned char, unsigned char*, unsigned short)
    lis2ds12_acc.o(i._Z25LIS2DS12_ACC_R_FF_IA_DUP2PvP25LIS2DS12_ACC_FF_IA_DUP2_t) refers to lis2ds12_acc.o(i._Z20LIS2DS12_ACC_ReadRegPvhPht) for LIS2DS12_ACC_ReadReg(void*, unsigned char, unsigned char*, unsigned short)
    lis2ds12_acc.o(i._Z25LIS2DS12_ACC_R_IF_ADD_INCPvP25LIS2DS12_ACC_IF_ADD_INC_t) refers to lis2ds12_acc.o(i._Z20LIS2DS12_ACC_ReadRegPvhPht) for LIS2DS12_ACC_ReadReg(void*, unsigned char, unsigned char*, unsigned short)
    lis2ds12_acc.o(i._Z25LIS2DS12_ACC_R_INT1_D_TAPPvP25LIS2DS12_ACC_INT1_D_TAP_t) refers to lis2ds12_acc.o(i._Z20LIS2DS12_ACC_ReadRegPvhPht) for LIS2DS12_ACC_ReadReg(void*, unsigned char, unsigned char*, unsigned short)
    lis2ds12_acc.o(i._Z25LIS2DS12_ACC_R_INT1_S_TAPPvP25LIS2DS12_ACC_INT1_S_TAP_t) refers to lis2ds12_acc.o(i._Z20LIS2DS12_ACC_ReadRegPvhPht) for LIS2DS12_ACC_ReadReg(void*, unsigned char, unsigned char*, unsigned short)
    lis2ds12_acc.o(i._Z25LIS2DS12_ACC_R_SINGLE_TAPPvP25LIS2DS12_ACC_SINGLE_TAP_t) refers to lis2ds12_acc.o(i._Z20LIS2DS12_ACC_ReadRegPvhPht) for LIS2DS12_ACC_ReadReg(void*, unsigned char, unsigned char*, unsigned short)
    lis2ds12_acc.o(i._Z25LIS2DS12_ACC_R_SOFT_RESETPvP25LIS2DS12_ACC_SOFT_RESET_t) refers to lis2ds12_acc.o(i._Z20LIS2DS12_ACC_ReadRegPvhPht) for LIS2DS12_ACC_ReadReg(void*, unsigned char, unsigned char*, unsigned short)
    lis2ds12_acc.o(i._Z25LIS2DS12_ACC_R_SamplesNumPvPt) refers to lis2ds12_acc.o(i._Z20LIS2DS12_ACC_ReadRegPvhPht) for LIS2DS12_ACC_ReadReg(void*, unsigned char, unsigned char*, unsigned short)
    lis2ds12_acc.o(i._Z25LIS2DS12_ACC_R_WU_IA_DUP2PvP25LIS2DS12_ACC_WU_IA_DUP2_t) refers to lis2ds12_acc.o(i._Z20LIS2DS12_ACC_ReadRegPvhPht) for LIS2DS12_ACC_ReadReg(void*, unsigned char, unsigned char*, unsigned short)
    lis2ds12_acc.o(i._Z25LIS2DS12_ACC_W_IF_ADD_INCPv25LIS2DS12_ACC_IF_ADD_INC_t) refers to lis2ds12_acc.o(i._Z20LIS2DS12_ACC_ReadRegPvhPht) for LIS2DS12_ACC_ReadReg(void*, unsigned char, unsigned char*, unsigned short)
    lis2ds12_acc.o(i._Z25LIS2DS12_ACC_W_IF_ADD_INCPv25LIS2DS12_ACC_IF_ADD_INC_t) refers to lis2ds12_acc.o(i._Z21LIS2DS12_ACC_WriteRegPvhPht) for LIS2DS12_ACC_WriteReg(void*, unsigned char, unsigned char*, unsigned short)
    lis2ds12_acc.o(i._Z25LIS2DS12_ACC_W_INT1_D_TAPPv25LIS2DS12_ACC_INT1_D_TAP_t) refers to lis2ds12_acc.o(i._Z20LIS2DS12_ACC_ReadRegPvhPht) for LIS2DS12_ACC_ReadReg(void*, unsigned char, unsigned char*, unsigned short)
    lis2ds12_acc.o(i._Z25LIS2DS12_ACC_W_INT1_D_TAPPv25LIS2DS12_ACC_INT1_D_TAP_t) refers to lis2ds12_acc.o(i._Z21LIS2DS12_ACC_WriteRegPvhPht) for LIS2DS12_ACC_WriteReg(void*, unsigned char, unsigned char*, unsigned short)
    lis2ds12_acc.o(i._Z25LIS2DS12_ACC_W_INT1_S_TAPPv25LIS2DS12_ACC_INT1_S_TAP_t) refers to lis2ds12_acc.o(i._Z20LIS2DS12_ACC_ReadRegPvhPht) for LIS2DS12_ACC_ReadReg(void*, unsigned char, unsigned char*, unsigned short)
    lis2ds12_acc.o(i._Z25LIS2DS12_ACC_W_INT1_S_TAPPv25LIS2DS12_ACC_INT1_S_TAP_t) refers to lis2ds12_acc.o(i._Z21LIS2DS12_ACC_WriteRegPvhPht) for LIS2DS12_ACC_WriteReg(void*, unsigned char, unsigned char*, unsigned short)
    lis2ds12_acc.o(i._Z25LIS2DS12_ACC_W_SOFT_RESETPv25LIS2DS12_ACC_SOFT_RESET_t) refers to lis2ds12_acc.o(i._Z20LIS2DS12_ACC_ReadRegPvhPht) for LIS2DS12_ACC_ReadReg(void*, unsigned char, unsigned char*, unsigned short)
    lis2ds12_acc.o(i._Z25LIS2DS12_ACC_W_SOFT_RESETPv25LIS2DS12_ACC_SOFT_RESET_t) refers to lis2ds12_acc.o(i._Z21LIS2DS12_ACC_WriteRegPvhPht) for LIS2DS12_ACC_WriteReg(void*, unsigned char, unsigned char*, unsigned short)
    lis2ds12_acc.o(i._Z26LIS2DS12_ACC_R_DRDY_PULSEDPvP26LIS2DS12_ACC_DRDY_PULSED_t) refers to lis2ds12_acc.o(i._Z20LIS2DS12_ACC_ReadRegPvhPht) for LIS2DS12_ACC_ReadReg(void*, unsigned char, unsigned char*, unsigned short)
    lis2ds12_acc.o(i._Z26LIS2DS12_ACC_R_I2C_DISABLEPvP26LIS2DS12_ACC_I2C_DISABLE_t) refers to lis2ds12_acc.o(i._Z20LIS2DS12_ACC_ReadRegPvhPht) for LIS2DS12_ACC_ReadReg(void*, unsigned char, unsigned char*, unsigned short)
    lis2ds12_acc.o(i._Z26LIS2DS12_ACC_R_MODULE8_BITPvPh) refers to lis2ds12_acc.o(i._Z20LIS2DS12_ACC_ReadRegPvhPht) for LIS2DS12_ACC_ReadReg(void*, unsigned char, unsigned char*, unsigned short)
    lis2ds12_acc.o(i._Z26LIS2DS12_ACC_R_PullUP_DiscPvP27LIS2DS12_ACC_IF_CS_PU_DIS_t) refers to lis2ds12_acc.o(i._Z20LIS2DS12_ACC_ReadRegPvhPht) for LIS2DS12_ACC_ReadReg(void*, unsigned char, unsigned char*, unsigned short)
    lis2ds12_acc.o(i._Z26LIS2DS12_ACC_R_SIGN_MOT_ONPvP26LIS2DS12_ACC_SIGN_MOT_ON_t) refers to lis2ds12_acc.o(i._Z20LIS2DS12_ACC_ReadRegPvhPht) for LIS2DS12_ACC_ReadReg(void*, unsigned char, unsigned char*, unsigned short)
    lis2ds12_acc.o(i._Z26LIS2DS12_ACC_R_SLEEP_STATEPvP26LIS2DS12_ACC_SLEEP_STATE_t) refers to lis2ds12_acc.o(i._Z20LIS2DS12_ACC_ReadRegPvhPht) for LIS2DS12_ACC_ReadReg(void*, unsigned char, unsigned char*, unsigned short)
    lis2ds12_acc.o(i._Z26LIS2DS12_ACC_R_STEP_CNT_ONPvP26LIS2DS12_ACC_STEP_CNT_ON_t) refers to lis2ds12_acc.o(i._Z20LIS2DS12_ACC_ReadRegPvhPht) for LIS2DS12_ACC_ReadReg(void*, unsigned char, unsigned char*, unsigned short)
    lis2ds12_acc.o(i._Z26LIS2DS12_ACC_R_STEP_DETECTPvP26LIS2DS12_ACC_STEP_DETECT_t) refers to lis2ds12_acc.o(i._Z20LIS2DS12_ACC_ReadRegPvhPht) for LIS2DS12_ACC_ReadReg(void*, unsigned char, unsigned char*, unsigned short)
    lis2ds12_acc.o(i._Z26LIS2DS12_ACC_R_TemperaturePvPh) refers to lis2ds12_acc.o(i._Z20LIS2DS12_ACC_ReadRegPvhPht) for LIS2DS12_ACC_ReadReg(void*, unsigned char, unsigned char*, unsigned short)
    lis2ds12_acc.o(i._Z26LIS2DS12_ACC_W_DRDY_PULSEDPv26LIS2DS12_ACC_DRDY_PULSED_t) refers to lis2ds12_acc.o(i._Z20LIS2DS12_ACC_ReadRegPvhPht) for LIS2DS12_ACC_ReadReg(void*, unsigned char, unsigned char*, unsigned short)
    lis2ds12_acc.o(i._Z26LIS2DS12_ACC_W_DRDY_PULSEDPv26LIS2DS12_ACC_DRDY_PULSED_t) refers to lis2ds12_acc.o(i._Z21LIS2DS12_ACC_WriteRegPvhPht) for LIS2DS12_ACC_WriteReg(void*, unsigned char, unsigned char*, unsigned short)
    lis2ds12_acc.o(i._Z26LIS2DS12_ACC_W_I2C_DISABLEPv26LIS2DS12_ACC_I2C_DISABLE_t) refers to lis2ds12_acc.o(i._Z20LIS2DS12_ACC_ReadRegPvhPht) for LIS2DS12_ACC_ReadReg(void*, unsigned char, unsigned char*, unsigned short)
    lis2ds12_acc.o(i._Z26LIS2DS12_ACC_W_I2C_DISABLEPv26LIS2DS12_ACC_I2C_DISABLE_t) refers to lis2ds12_acc.o(i._Z21LIS2DS12_ACC_WriteRegPvhPht) for LIS2DS12_ACC_WriteReg(void*, unsigned char, unsigned char*, unsigned short)
    lis2ds12_acc.o(i._Z26LIS2DS12_ACC_W_PullUP_DiscPv27LIS2DS12_ACC_IF_CS_PU_DIS_t) refers to lis2ds12_acc.o(i._Z20LIS2DS12_ACC_ReadRegPvhPht) for LIS2DS12_ACC_ReadReg(void*, unsigned char, unsigned char*, unsigned short)
    lis2ds12_acc.o(i._Z26LIS2DS12_ACC_W_PullUP_DiscPv27LIS2DS12_ACC_IF_CS_PU_DIS_t) refers to lis2ds12_acc.o(i._Z21LIS2DS12_ACC_WriteRegPvhPht) for LIS2DS12_ACC_WriteReg(void*, unsigned char, unsigned char*, unsigned short)
    lis2ds12_acc.o(i._Z26LIS2DS12_ACC_W_SIGN_MOT_ONPv26LIS2DS12_ACC_SIGN_MOT_ON_t) refers to lis2ds12_acc.o(i._Z20LIS2DS12_ACC_ReadRegPvhPht) for LIS2DS12_ACC_ReadReg(void*, unsigned char, unsigned char*, unsigned short)
    lis2ds12_acc.o(i._Z26LIS2DS12_ACC_W_SIGN_MOT_ONPv26LIS2DS12_ACC_SIGN_MOT_ON_t) refers to lis2ds12_acc.o(i._Z21LIS2DS12_ACC_WriteRegPvhPht) for LIS2DS12_ACC_WriteReg(void*, unsigned char, unsigned char*, unsigned short)
    lis2ds12_acc.o(i._Z26LIS2DS12_ACC_W_STEP_CNT_ONPv26LIS2DS12_ACC_STEP_CNT_ON_t) refers to lis2ds12_acc.o(i._Z20LIS2DS12_ACC_ReadRegPvhPht) for LIS2DS12_ACC_ReadReg(void*, unsigned char, unsigned char*, unsigned short)
    lis2ds12_acc.o(i._Z26LIS2DS12_ACC_W_STEP_CNT_ONPv26LIS2DS12_ACC_STEP_CNT_ON_t) refers to lis2ds12_acc.o(i._Z21LIS2DS12_ACC_WriteRegPvhPht) for LIS2DS12_ACC_WriteReg(void*, unsigned char, unsigned char*, unsigned short)
    lis2ds12_acc.o(i._Z27LIS2DS12_ACC_R_CK_GATE_FUNCPvP27LIS2DS12_ACC_CK_GATE_FUNC_t) refers to lis2ds12_acc.o(i._Z20LIS2DS12_ACC_ReadRegPvhPht) for LIS2DS12_ACC_ReadReg(void*, unsigned char, unsigned char*, unsigned short)
    lis2ds12_acc.o(i._Z27LIS2DS12_ACC_R_INT2_ON_INT1PvP27LIS2DS12_ACC_INT2_ON_INT1_t) refers to lis2ds12_acc.o(i._Z20LIS2DS12_ACC_ReadRegPvhPht) for LIS2DS12_ACC_ReadReg(void*, unsigned char, unsigned char*, unsigned short)
    lis2ds12_acc.o(i._Z27LIS2DS12_ACC_R_INT2_SIG_MOTPvP27LIS2DS12_ACC_INT2_SIG_MOT_t) refers to lis2ds12_acc.o(i._Z20LIS2DS12_ACC_ReadRegPvhPht) for LIS2DS12_ACC_ReadReg(void*, unsigned char, unsigned char*, unsigned short)
    lis2ds12_acc.o(i._Z27LIS2DS12_ACC_R_MODULE_READYPvP27LIS2DS12_ACC_MODULE_READY_t) refers to lis2ds12_acc.o(i._Z20LIS2DS12_ACC_ReadRegPvhPht) for LIS2DS12_ACC_ReadReg(void*, unsigned char, unsigned char*, unsigned short)
    lis2ds12_acc.o(i._Z27LIS2DS12_ACC_R_RST_SIGN_MOTPvP27LIS2DS12_ACC_RST_SIGN_MOT_t) refers to lis2ds12_acc.o(i._Z20LIS2DS12_ACC_ReadRegPvhPht) for LIS2DS12_ACC_ReadReg(void*, unsigned char, unsigned char*, unsigned short)
    lis2ds12_acc.o(i._Z27LIS2DS12_ACC_R_WHO_AM_I_BITPvPh) refers to lis2ds12_acc.o(i._Z20LIS2DS12_ACC_ReadRegPvhPht) for LIS2DS12_ACC_ReadReg(void*, unsigned char, unsigned char*, unsigned short)
    lis2ds12_acc.o(i._Z27LIS2DS12_ACC_W_INT2_ON_INT1Pv27LIS2DS12_ACC_INT2_ON_INT1_t) refers to lis2ds12_acc.o(i._Z20LIS2DS12_ACC_ReadRegPvhPht) for LIS2DS12_ACC_ReadReg(void*, unsigned char, unsigned char*, unsigned short)
    lis2ds12_acc.o(i._Z27LIS2DS12_ACC_W_INT2_ON_INT1Pv27LIS2DS12_ACC_INT2_ON_INT1_t) refers to lis2ds12_acc.o(i._Z21LIS2DS12_ACC_WriteRegPvhPht) for LIS2DS12_ACC_WriteReg(void*, unsigned char, unsigned char*, unsigned short)
    lis2ds12_acc.o(i._Z27LIS2DS12_ACC_W_INT2_SIG_MOTPv27LIS2DS12_ACC_INT2_SIG_MOT_t) refers to lis2ds12_acc.o(i._Z20LIS2DS12_ACC_ReadRegPvhPht) for LIS2DS12_ACC_ReadReg(void*, unsigned char, unsigned char*, unsigned short)
    lis2ds12_acc.o(i._Z27LIS2DS12_ACC_W_INT2_SIG_MOTPv27LIS2DS12_ACC_INT2_SIG_MOT_t) refers to lis2ds12_acc.o(i._Z21LIS2DS12_ACC_WriteRegPvhPht) for LIS2DS12_ACC_WriteReg(void*, unsigned char, unsigned char*, unsigned short)
    lis2ds12_acc.o(i._Z28LIS2DS12_ACC_Get_StepCounterPvPh) refers to lis2ds12_acc.o(i._Z20LIS2DS12_ACC_ReadRegPvhPht) for LIS2DS12_ACC_ReadReg(void*, unsigned char, unsigned char*, unsigned short)
    lis2ds12_acc.o(i._Z28LIS2DS12_ACC_R_INT2_STEP_DETPvP28LIS2DS12_ACC_INT2_STEP_DET_t) refers to lis2ds12_acc.o(i._Z20LIS2DS12_ACC_ReadRegPvhPht) for LIS2DS12_ACC_ReadReg(void*, unsigned char, unsigned char*, unsigned short)
    lis2ds12_acc.o(i._Z28LIS2DS12_ACC_R_SleepDurationPvPh) refers to lis2ds12_acc.o(i._Z20LIS2DS12_ACC_ReadRegPvhPht) for LIS2DS12_ACC_ReadReg(void*, unsigned char, unsigned char*, unsigned short)
    lis2ds12_acc.o(i._Z28LIS2DS12_ACC_W_INT2_STEP_DETPv28LIS2DS12_ACC_INT2_STEP_DET_t) refers to lis2ds12_acc.o(i._Z20LIS2DS12_ACC_ReadRegPvhPht) for LIS2DS12_ACC_ReadReg(void*, unsigned char, unsigned char*, unsigned short)
    lis2ds12_acc.o(i._Z28LIS2DS12_ACC_W_INT2_STEP_DETPv28LIS2DS12_ACC_INT2_STEP_DET_t) refers to lis2ds12_acc.o(i._Z21LIS2DS12_ACC_WriteRegPvhPht) for LIS2DS12_ACC_WriteReg(void*, unsigned char, unsigned char*, unsigned short)
    lis2ds12_acc.o(i._Z28LIS2DS12_ACC_W_SleepDurationPvh) refers to lis2ds12_acc.o(i._Z20LIS2DS12_ACC_ReadRegPvhPht) for LIS2DS12_ACC_ReadReg(void*, unsigned char, unsigned char*, unsigned short)
    lis2ds12_acc.o(i._Z28LIS2DS12_ACC_W_SleepDurationPvh) refers to lis2ds12_acc.o(i._Z21LIS2DS12_ACC_WriteRegPvhPht) for LIS2DS12_ACC_WriteReg(void*, unsigned char, unsigned char*, unsigned short)
    lis2ds12_acc.o(i._Z29LIS2DS12_ACC_Get_AccelerationPvPs) refers to lis2ds12_acc.o(i._Z20LIS2DS12_ACC_ReadRegPvhPht) for LIS2DS12_ACC_ReadReg(void*, unsigned char, unsigned char*, unsigned short)
    lis2ds12_acc.o(i._Z29LIS2DS12_ACC_Get_AccelerationPvPs) refers to lis2ds12_acc.o(i._Z33LIS2DS12_ACC_Get_Raw_AccelerationPvPh) for LIS2DS12_ACC_Get_Raw_Acceleration(void*, unsigned char*)
    lis2ds12_acc.o(i._Z29LIS2DS12_ACC_Get_AccelerationPvPs) refers to llsdiv.o(.text) for __aeabi_ldivmod
    lis2ds12_acc.o(i._Z29LIS2DS12_ACC_Get_AccelerationPvPs) refers to lis2ds12_acc.o(.constdata) for .constdata
    lis2ds12_acc.o(i._Z29LIS2DS12_ACC_R_DOUBLE_TAP_DUPPvP29LIS2DS12_ACC_DOUBLE_TAP_DUP_t) refers to lis2ds12_acc.o(i._Z20LIS2DS12_ACC_ReadRegPvhPht) for LIS2DS12_ACC_ReadReg(void*, unsigned char, unsigned char*, unsigned short)
    lis2ds12_acc.o(i._Z29LIS2DS12_ACC_R_INT1_FIFO_FULLPvP29LIS2DS12_ACC_INT1_FIFO_FULL_t) refers to lis2ds12_acc.o(i._Z20LIS2DS12_ACC_ReadRegPvhPht) for LIS2DS12_ACC_ReadReg(void*, unsigned char, unsigned char*, unsigned short)
    lis2ds12_acc.o(i._Z29LIS2DS12_ACC_R_MODULE_TO_FIFOPvP29LIS2DS12_ACC_MODULE_TO_FIFO_t) refers to lis2ds12_acc.o(i._Z20LIS2DS12_ACC_ReadRegPvhPht) for LIS2DS12_ACC_ReadReg(void*, unsigned char, unsigned char*, unsigned short)
    lis2ds12_acc.o(i._Z29LIS2DS12_ACC_R_SIG_MOT_DETECTPvP29LIS2DS12_ACC_SIG_MOT_DETECT_t) refers to lis2ds12_acc.o(i._Z20LIS2DS12_ACC_ReadRegPvhPht) for LIS2DS12_ACC_ReadReg(void*, unsigned char, unsigned char*, unsigned short)
    lis2ds12_acc.o(i._Z29LIS2DS12_ACC_R_SINGLE_TAP_DUPPvP29LIS2DS12_ACC_SINGLE_TAP_DUP_t) refers to lis2ds12_acc.o(i._Z20LIS2DS12_ACC_ReadRegPvhPht) for LIS2DS12_ACC_ReadReg(void*, unsigned char, unsigned char*, unsigned short)
    lis2ds12_acc.o(i._Z29LIS2DS12_ACC_R_SLEEP_STATE_IAPvP29LIS2DS12_ACC_SLEEP_STATE_IA_t) refers to lis2ds12_acc.o(i._Z20LIS2DS12_ACC_ReadRegPvhPht) for LIS2DS12_ACC_ReadReg(void*, unsigned char, unsigned char*, unsigned short)
    lis2ds12_acc.o(i._Z29LIS2DS12_ACC_R_WakeUpDurationPvPh) refers to lis2ds12_acc.o(i._Z20LIS2DS12_ACC_ReadRegPvhPht) for LIS2DS12_ACC_ReadReg(void*, unsigned char, unsigned char*, unsigned short)
    lis2ds12_acc.o(i._Z29LIS2DS12_ACC_W_INT1_FIFO_FULLPv29LIS2DS12_ACC_INT1_FIFO_FULL_t) refers to lis2ds12_acc.o(i._Z20LIS2DS12_ACC_ReadRegPvhPht) for LIS2DS12_ACC_ReadReg(void*, unsigned char, unsigned char*, unsigned short)
    lis2ds12_acc.o(i._Z29LIS2DS12_ACC_W_INT1_FIFO_FULLPv29LIS2DS12_ACC_INT1_FIFO_FULL_t) refers to lis2ds12_acc.o(i._Z21LIS2DS12_ACC_WriteRegPvhPht) for LIS2DS12_ACC_WriteReg(void*, unsigned char, unsigned char*, unsigned short)
    lis2ds12_acc.o(i._Z29LIS2DS12_ACC_W_MODULE_TO_FIFOPv29LIS2DS12_ACC_MODULE_TO_FIFO_t) refers to lis2ds12_acc.o(i._Z20LIS2DS12_ACC_ReadRegPvhPht) for LIS2DS12_ACC_ReadReg(void*, unsigned char, unsigned char*, unsigned short)
    lis2ds12_acc.o(i._Z29LIS2DS12_ACC_W_MODULE_TO_FIFOPv29LIS2DS12_ACC_MODULE_TO_FIFO_t) refers to lis2ds12_acc.o(i._Z21LIS2DS12_ACC_WriteRegPvhPht) for LIS2DS12_ACC_WriteReg(void*, unsigned char, unsigned char*, unsigned short)
    lis2ds12_acc.o(i._Z29LIS2DS12_ACC_W_WakeUpDurationPvh) refers to lis2ds12_acc.o(i._Z20LIS2DS12_ACC_ReadRegPvhPht) for LIS2DS12_ACC_ReadReg(void*, unsigned char, unsigned char*, unsigned short)
    lis2ds12_acc.o(i._Z29LIS2DS12_ACC_W_WakeUpDurationPvh) refers to lis2ds12_acc.o(i._Z21LIS2DS12_ACC_WriteRegPvhPht) for LIS2DS12_ACC_WriteReg(void*, unsigned char, unsigned char*, unsigned short)
    lis2ds12_acc.o(i._Z30LIS2DS12_ACC_R_DOUBLE_TAP_DUP2PvP30LIS2DS12_ACC_DOUBLE_TAP_DUP2_t) refers to lis2ds12_acc.o(i._Z20LIS2DS12_ACC_ReadRegPvhPht) for LIS2DS12_ACC_ReadReg(void*, unsigned char, unsigned char*, unsigned short)
    lis2ds12_acc.o(i._Z30LIS2DS12_ACC_R_SENS_HUB_END_OPPvP30LIS2DS12_ACC_SENS_HUB_END_OP_t) refers to lis2ds12_acc.o(i._Z20LIS2DS12_ACC_ReadRegPvhPht) for LIS2DS12_ACC_ReadReg(void*, unsigned char, unsigned char*, unsigned short)
    lis2ds12_acc.o(i._Z30LIS2DS12_ACC_R_SINGLE_TAP_DUP2PvP30LIS2DS12_ACC_SINGLE_TAP_DUP2_t) refers to lis2ds12_acc.o(i._Z20LIS2DS12_ACC_ReadRegPvhPht) for LIS2DS12_ACC_ReadReg(void*, unsigned char, unsigned char*, unsigned short)
    lis2ds12_acc.o(i._Z30LIS2DS12_ACC_R_SLEEP_STATE_DUPPvP30LIS2DS12_ACC_SLEEP_STATE_DUP_t) refers to lis2ds12_acc.o(i._Z20LIS2DS12_ACC_ReadRegPvhPht) for LIS2DS12_ACC_ReadReg(void*, unsigned char, unsigned char*, unsigned short)
    lis2ds12_acc.o(i._Z31LIS2DS12_ACC_Get_ExternalSensorPvPh) refers to lis2ds12_acc.o(i._Z20LIS2DS12_ACC_ReadRegPvhPht) for LIS2DS12_ACC_ReadReg(void*, unsigned char, unsigned char*, unsigned short)
    lis2ds12_acc.o(i._Z31LIS2DS12_ACC_R_FreeFallDurationPvPh) refers to lis2ds12_acc.o(i._Z20LIS2DS12_ACC_ReadRegPvhPht) for LIS2DS12_ACC_ReadReg(void*, unsigned char, unsigned char*, unsigned short)
    lis2ds12_acc.o(i._Z31LIS2DS12_ACC_R_INT1_MASTER_DRDYPvP31LIS2DS12_ACC_INT1_MASTER_DRDY_t) refers to lis2ds12_acc.o(i._Z20LIS2DS12_ACC_ReadRegPvhPht) for LIS2DS12_ACC_ReadReg(void*, unsigned char, unsigned char*, unsigned short)
    lis2ds12_acc.o(i._Z31LIS2DS12_ACC_W_FreeFallDurationPvh) refers to lis2ds12_acc.o(i._Z20LIS2DS12_ACC_ReadRegPvhPht) for LIS2DS12_ACC_ReadReg(void*, unsigned char, unsigned char*, unsigned short)
    lis2ds12_acc.o(i._Z31LIS2DS12_ACC_W_FreeFallDurationPvh) refers to lis2ds12_acc.o(i._Z21LIS2DS12_ACC_WriteRegPvhPht) for LIS2DS12_ACC_WriteReg(void*, unsigned char, unsigned char*, unsigned short)
    lis2ds12_acc.o(i._Z31LIS2DS12_ACC_W_INT1_MASTER_DRDYPv31LIS2DS12_ACC_INT1_MASTER_DRDY_t) refers to lis2ds12_acc.o(i._Z20LIS2DS12_ACC_ReadRegPvhPht) for LIS2DS12_ACC_ReadReg(void*, unsigned char, unsigned char*, unsigned short)
    lis2ds12_acc.o(i._Z31LIS2DS12_ACC_W_INT1_MASTER_DRDYPv31LIS2DS12_ACC_INT1_MASTER_DRDY_t) refers to lis2ds12_acc.o(i._Z21LIS2DS12_ACC_WriteRegPvhPht) for LIS2DS12_ACC_WriteReg(void*, unsigned char, unsigned char*, unsigned short)
    lis2ds12_acc.o(i._Z32LIS2DS12_ACC_R_FreeFallThresholdPvPh) refers to lis2ds12_acc.o(i._Z20LIS2DS12_ACC_ReadRegPvhPht) for LIS2DS12_ACC_ReadReg(void*, unsigned char, unsigned char*, unsigned short)
    lis2ds12_acc.o(i._Z32LIS2DS12_ACC_R_SINGLE_DOUBLE_TAPPvP32LIS2DS12_ACC_SINGLE_DOUBLE_TAP_t) refers to lis2ds12_acc.o(i._Z20LIS2DS12_ACC_ReadRegPvhPht) for LIS2DS12_ACC_ReadReg(void*, unsigned char, unsigned char*, unsigned short)
    lis2ds12_acc.o(i._Z32LIS2DS12_ACC_W_FreeFallThresholdPvh) refers to lis2ds12_acc.o(i._Z20LIS2DS12_ACC_ReadRegPvhPht) for LIS2DS12_ACC_ReadReg(void*, unsigned char, unsigned char*, unsigned short)
    lis2ds12_acc.o(i._Z32LIS2DS12_ACC_W_FreeFallThresholdPvh) refers to lis2ds12_acc.o(i._Z21LIS2DS12_ACC_WriteRegPvhPht) for LIS2DS12_ACC_WriteReg(void*, unsigned char, unsigned char*, unsigned short)
    lis2ds12_acc.o(i._Z32LIS2DS12_ACC_W_SINGLE_DOUBLE_TAPPv32LIS2DS12_ACC_SINGLE_DOUBLE_TAP_t) refers to lis2ds12_acc.o(i._Z20LIS2DS12_ACC_ReadRegPvhPht) for LIS2DS12_ACC_ReadReg(void*, unsigned char, unsigned char*, unsigned short)
    lis2ds12_acc.o(i._Z32LIS2DS12_ACC_W_SINGLE_DOUBLE_TAPPv32LIS2DS12_ACC_SINGLE_DOUBLE_TAP_t) refers to lis2ds12_acc.o(i._Z21LIS2DS12_ACC_WriteRegPvhPht) for LIS2DS12_ACC_WriteReg(void*, unsigned char, unsigned char*, unsigned short)
    lis2ds12_acc.o(i._Z33LIS2DS12_ACC_Get_Raw_AccelerationPvPh) refers to lis2ds12_acc.o(i._Z20LIS2DS12_ACC_ReadRegPvhPht) for LIS2DS12_ACC_ReadReg(void*, unsigned char, unsigned char*, unsigned short)
    lis2ds12_acc.o(.ARM.exidx) refers to lis2ds12_acc.o(i._Z21LIS2DS12_ACC_WriteRegPvhPht) for i._Z21LIS2DS12_ACC_WriteRegPvhPht
    lis2ds12_acc.o(.ARM.exidx) refers to lis2ds12_acc.o(i._Z20LIS2DS12_ACC_ReadRegPvhPht) for i._Z20LIS2DS12_ACC_ReadRegPvhPht
    lis2ds12_acc.o(.ARM.exidx) refers to lis2ds12_acc.o(i._Z27LIS2DS12_ACC_R_WHO_AM_I_BITPvPh) for i._Z27LIS2DS12_ACC_R_WHO_AM_I_BITPvPh
    lis2ds12_acc.o(.ARM.exidx) refers to lis2ds12_acc.o(i._Z18LIS2DS12_ACC_W_ODRPv18LIS2DS12_ACC_ODR_t) for i._Z18LIS2DS12_ACC_W_ODRPv18LIS2DS12_ACC_ODR_t
    lis2ds12_acc.o(.ARM.exidx) refers to lis2ds12_acc.o(i._Z18LIS2DS12_ACC_R_ODRPvP18LIS2DS12_ACC_ODR_t) for i._Z18LIS2DS12_ACC_R_ODRPvP18LIS2DS12_ACC_ODR_t
    lis2ds12_acc.o(.ARM.exidx) refers to lis2ds12_acc.o(i._Z24LIS2DS12_ACC_W_FullScalePv17LIS2DS12_ACC_FS_t) for i._Z24LIS2DS12_ACC_W_FullScalePv17LIS2DS12_ACC_FS_t
    lis2ds12_acc.o(.ARM.exidx) refers to lis2ds12_acc.o(i._Z24LIS2DS12_ACC_R_FullScalePvP17LIS2DS12_ACC_FS_t) for i._Z24LIS2DS12_ACC_R_FullScalePvP17LIS2DS12_ACC_FS_t
    lis2ds12_acc.o(.ARM.exidx) refers to lis2ds12_acc.o(i._Z18LIS2DS12_ACC_W_BDUPv18LIS2DS12_ACC_BDU_t) for i._Z18LIS2DS12_ACC_W_BDUPv18LIS2DS12_ACC_BDU_t
    lis2ds12_acc.o(.ARM.exidx) refers to lis2ds12_acc.o(i._Z18LIS2DS12_ACC_R_BDUPvP18LIS2DS12_ACC_BDU_t) for i._Z18LIS2DS12_ACC_R_BDUPvP18LIS2DS12_ACC_BDU_t
    lis2ds12_acc.o(.ARM.exidx) refers to lis2ds12_acc.o(i._Z33LIS2DS12_ACC_Get_Raw_AccelerationPvPh) for i._Z33LIS2DS12_ACC_Get_Raw_AccelerationPvPh
    lis2ds12_acc.o(.ARM.exidx) refers to lis2ds12_acc.o(i._Z29LIS2DS12_ACC_Get_AccelerationPvPs) for i._Z29LIS2DS12_ACC_Get_AccelerationPvPs
    lis2ds12_acc.o(.ARM.exidx) refers to lis2ds12_acc.o(i._Z26LIS2DS12_ACC_R_MODULE8_BITPvPh) for i._Z26LIS2DS12_ACC_R_MODULE8_BITPvPh
    lis2ds12_acc.o(.ARM.exidx) refers to lis2ds12_acc.o(i._Z21LIS2DS12_ACC_W_HF_ODRPv21LIS2DS12_ACC_HF_ODR_t) for i._Z21LIS2DS12_ACC_W_HF_ODRPv21LIS2DS12_ACC_HF_ODR_t
    lis2ds12_acc.o(.ARM.exidx) refers to lis2ds12_acc.o(i._Z21LIS2DS12_ACC_R_HF_ODRPvP21LIS2DS12_ACC_HF_ODR_t) for i._Z21LIS2DS12_ACC_R_HF_ODRPvP21LIS2DS12_ACC_HF_ODR_t
    lis2ds12_acc.o(.ARM.exidx) refers to lis2ds12_acc.o(i._Z18LIS2DS12_ACC_W_SIMPv18LIS2DS12_ACC_SIM_t) for i._Z18LIS2DS12_ACC_W_SIMPv18LIS2DS12_ACC_SIM_t
    lis2ds12_acc.o(.ARM.exidx) refers to lis2ds12_acc.o(i._Z18LIS2DS12_ACC_R_SIMPvP18LIS2DS12_ACC_SIM_t) for i._Z18LIS2DS12_ACC_R_SIMPvP18LIS2DS12_ACC_SIM_t
    lis2ds12_acc.o(.ARM.exidx) refers to lis2ds12_acc.o(i._Z26LIS2DS12_ACC_W_I2C_DISABLEPv26LIS2DS12_ACC_I2C_DISABLE_t) for i._Z26LIS2DS12_ACC_W_I2C_DISABLEPv26LIS2DS12_ACC_I2C_DISABLE_t
    lis2ds12_acc.o(.ARM.exidx) refers to lis2ds12_acc.o(i._Z26LIS2DS12_ACC_R_I2C_DISABLEPvP26LIS2DS12_ACC_I2C_DISABLE_t) for i._Z26LIS2DS12_ACC_R_I2C_DISABLEPvP26LIS2DS12_ACC_I2C_DISABLE_t
    lis2ds12_acc.o(.ARM.exidx) refers to lis2ds12_acc.o(i._Z25LIS2DS12_ACC_W_IF_ADD_INCPv25LIS2DS12_ACC_IF_ADD_INC_t) for i._Z25LIS2DS12_ACC_W_IF_ADD_INCPv25LIS2DS12_ACC_IF_ADD_INC_t
    lis2ds12_acc.o(.ARM.exidx) refers to lis2ds12_acc.o(i._Z25LIS2DS12_ACC_R_IF_ADD_INCPvP25LIS2DS12_ACC_IF_ADD_INC_t) for i._Z25LIS2DS12_ACC_R_IF_ADD_INCPvP25LIS2DS12_ACC_IF_ADD_INC_t
    lis2ds12_acc.o(.ARM.exidx) refers to lis2ds12_acc.o(i._Z24LIS2DS12_ACC_W_FDS_SLOPEPv24LIS2DS12_ACC_FDS_SLOPE_t) for i._Z24LIS2DS12_ACC_W_FDS_SLOPEPv24LIS2DS12_ACC_FDS_SLOPE_t
    lis2ds12_acc.o(.ARM.exidx) refers to lis2ds12_acc.o(i._Z24LIS2DS12_ACC_R_FDS_SLOPEPvP24LIS2DS12_ACC_FDS_SLOPE_t) for i._Z24LIS2DS12_ACC_R_FDS_SLOPEPvP24LIS2DS12_ACC_FDS_SLOPE_t
    lis2ds12_acc.o(.ARM.exidx) refers to lis2ds12_acc.o(i._Z23LIS2DS12_ACC_R_FUNC_CFGPvP23LIS2DS12_ACC_FUNC_CFG_t) for i._Z23LIS2DS12_ACC_R_FUNC_CFGPvP23LIS2DS12_ACC_FUNC_CFG_t
    lis2ds12_acc.o(.ARM.exidx) refers to lis2ds12_acc.o(i._Z23LIS2DS12_ACC_W_FUNC_CFGPv23LIS2DS12_ACC_FUNC_CFG_t) for i._Z23LIS2DS12_ACC_W_FUNC_CFGPv23LIS2DS12_ACC_FUNC_CFG_t
    lis2ds12_acc.o(.ARM.exidx) refers to lis2ds12_acc.o(i._Z25LIS2DS12_ACC_W_SOFT_RESETPv25LIS2DS12_ACC_SOFT_RESET_t) for i._Z25LIS2DS12_ACC_W_SOFT_RESETPv25LIS2DS12_ACC_SOFT_RESET_t
    lis2ds12_acc.o(.ARM.exidx) refers to lis2ds12_acc.o(i._Z25LIS2DS12_ACC_R_SOFT_RESETPvP25LIS2DS12_ACC_SOFT_RESET_t) for i._Z25LIS2DS12_ACC_R_SOFT_RESETPvP25LIS2DS12_ACC_SOFT_RESET_t
    lis2ds12_acc.o(.ARM.exidx) refers to lis2ds12_acc.o(i._Z19LIS2DS12_ACC_W_BOOTPv19LIS2DS12_ACC_BOOT_t) for i._Z19LIS2DS12_ACC_W_BOOTPv19LIS2DS12_ACC_BOOT_t
    lis2ds12_acc.o(.ARM.exidx) refers to lis2ds12_acc.o(i._Z19LIS2DS12_ACC_R_BOOTPvP19LIS2DS12_ACC_BOOT_t) for i._Z19LIS2DS12_ACC_R_BOOTPvP19LIS2DS12_ACC_BOOT_t
    lis2ds12_acc.o(.ARM.exidx) refers to lis2ds12_acc.o(i._Z20LIS2DS12_ACC_W_PP_ODPv20LIS2DS12_ACC_PP_OD_t) for i._Z20LIS2DS12_ACC_W_PP_ODPv20LIS2DS12_ACC_PP_OD_t
    lis2ds12_acc.o(.ARM.exidx) refers to lis2ds12_acc.o(i._Z20LIS2DS12_ACC_R_PP_ODPvP20LIS2DS12_ACC_PP_OD_t) for i._Z20LIS2DS12_ACC_R_PP_ODPvP20LIS2DS12_ACC_PP_OD_t
    lis2ds12_acc.o(.ARM.exidx) refers to lis2ds12_acc.o(i._Z24LIS2DS12_ACC_W_H_LACTIVEPv24LIS2DS12_ACC_H_LACTIVE_t) for i._Z24LIS2DS12_ACC_W_H_LACTIVEPv24LIS2DS12_ACC_H_LACTIVE_t
    lis2ds12_acc.o(.ARM.exidx) refers to lis2ds12_acc.o(i._Z24LIS2DS12_ACC_R_H_LACTIVEPvP24LIS2DS12_ACC_H_LACTIVE_t) for i._Z24LIS2DS12_ACC_R_H_LACTIVEPvP24LIS2DS12_ACC_H_LACTIVE_t
    lis2ds12_acc.o(.ARM.exidx) refers to lis2ds12_acc.o(i._Z18LIS2DS12_ACC_W_LIRPv18LIS2DS12_ACC_LIR_t) for i._Z18LIS2DS12_ACC_W_LIRPv18LIS2DS12_ACC_LIR_t
    lis2ds12_acc.o(.ARM.exidx) refers to lis2ds12_acc.o(i._Z18LIS2DS12_ACC_R_LIRPvP18LIS2DS12_ACC_LIR_t) for i._Z18LIS2DS12_ACC_R_LIRPvP18LIS2DS12_ACC_LIR_t
    lis2ds12_acc.o(.ARM.exidx) refers to lis2ds12_acc.o(i._Z23LIS2DS12_ACC_W_TAP_Z_ENPv23LIS2DS12_ACC_TAP_Z_EN_t) for i._Z23LIS2DS12_ACC_W_TAP_Z_ENPv23LIS2DS12_ACC_TAP_Z_EN_t
    lis2ds12_acc.o(.ARM.exidx) refers to lis2ds12_acc.o(i._Z23LIS2DS12_ACC_R_TAP_Z_ENPvP23LIS2DS12_ACC_TAP_Z_EN_t) for i._Z23LIS2DS12_ACC_R_TAP_Z_ENPvP23LIS2DS12_ACC_TAP_Z_EN_t
    lis2ds12_acc.o(.ARM.exidx) refers to lis2ds12_acc.o(i._Z23LIS2DS12_ACC_W_TAP_Y_ENPv23LIS2DS12_ACC_TAP_Y_EN_t) for i._Z23LIS2DS12_ACC_W_TAP_Y_ENPv23LIS2DS12_ACC_TAP_Y_EN_t
    lis2ds12_acc.o(.ARM.exidx) refers to lis2ds12_acc.o(i._Z23LIS2DS12_ACC_R_TAP_Y_ENPvP23LIS2DS12_ACC_TAP_Y_EN_t) for i._Z23LIS2DS12_ACC_R_TAP_Y_ENPvP23LIS2DS12_ACC_TAP_Y_EN_t
    lis2ds12_acc.o(.ARM.exidx) refers to lis2ds12_acc.o(i._Z23LIS2DS12_ACC_W_TAP_X_ENPv23LIS2DS12_ACC_TAP_X_EN_t) for i._Z23LIS2DS12_ACC_W_TAP_X_ENPv23LIS2DS12_ACC_TAP_X_EN_t
    lis2ds12_acc.o(.ARM.exidx) refers to lis2ds12_acc.o(i._Z23LIS2DS12_ACC_R_TAP_X_ENPvP23LIS2DS12_ACC_TAP_X_EN_t) for i._Z23LIS2DS12_ACC_R_TAP_X_ENPvP23LIS2DS12_ACC_TAP_X_EN_t
    lis2ds12_acc.o(.ARM.exidx) refers to lis2ds12_acc.o(i._Z17LIS2DS12_ACC_W_STPv17LIS2DS12_ACC_ST_t) for i._Z17LIS2DS12_ACC_W_STPv17LIS2DS12_ACC_ST_t
    lis2ds12_acc.o(.ARM.exidx) refers to lis2ds12_acc.o(i._Z17LIS2DS12_ACC_R_STPvP17LIS2DS12_ACC_ST_t) for i._Z17LIS2DS12_ACC_R_STPvP17LIS2DS12_ACC_ST_t
    lis2ds12_acc.o(.ARM.exidx) refers to lis2ds12_acc.o(i._Z24LIS2DS12_ACC_W_INT1_DRDYPv24LIS2DS12_ACC_INT1_DRDY_t) for i._Z24LIS2DS12_ACC_W_INT1_DRDYPv24LIS2DS12_ACC_INT1_DRDY_t
    lis2ds12_acc.o(.ARM.exidx) refers to lis2ds12_acc.o(i._Z24LIS2DS12_ACC_R_INT1_DRDYPvP24LIS2DS12_ACC_INT1_DRDY_t) for i._Z24LIS2DS12_ACC_R_INT1_DRDYPvP24LIS2DS12_ACC_INT1_DRDY_t
    lis2ds12_acc.o(.ARM.exidx) refers to lis2ds12_acc.o(i._Z23LIS2DS12_ACC_W_INT1_FTHPv23LIS2DS12_ACC_INT1_FTH_t) for i._Z23LIS2DS12_ACC_W_INT1_FTHPv23LIS2DS12_ACC_INT1_FTH_t
    lis2ds12_acc.o(.ARM.exidx) refers to lis2ds12_acc.o(i._Z23LIS2DS12_ACC_R_INT1_FTHPvP23LIS2DS12_ACC_INT1_FTH_t) for i._Z23LIS2DS12_ACC_R_INT1_FTHPvP23LIS2DS12_ACC_INT1_FTH_t
    lis2ds12_acc.o(.ARM.exidx) refers to lis2ds12_acc.o(i._Z22LIS2DS12_ACC_W_INT1_6DPv22LIS2DS12_ACC_INT1_6D_t) for i._Z22LIS2DS12_ACC_W_INT1_6DPv22LIS2DS12_ACC_INT1_6D_t
    lis2ds12_acc.o(.ARM.exidx) refers to lis2ds12_acc.o(i._Z22LIS2DS12_ACC_R_INT1_6DPvP22LIS2DS12_ACC_INT1_6D_t) for i._Z22LIS2DS12_ACC_R_INT1_6DPvP22LIS2DS12_ACC_INT1_6D_t
    lis2ds12_acc.o(.ARM.exidx) refers to lis2ds12_acc.o(i._Z25LIS2DS12_ACC_W_INT1_D_TAPPv25LIS2DS12_ACC_INT1_D_TAP_t) for i._Z25LIS2DS12_ACC_W_INT1_D_TAPPv25LIS2DS12_ACC_INT1_D_TAP_t
    lis2ds12_acc.o(.ARM.exidx) refers to lis2ds12_acc.o(i._Z25LIS2DS12_ACC_R_INT1_D_TAPPvP25LIS2DS12_ACC_INT1_D_TAP_t) for i._Z25LIS2DS12_ACC_R_INT1_D_TAPPvP25LIS2DS12_ACC_INT1_D_TAP_t
    lis2ds12_acc.o(.ARM.exidx) refers to lis2ds12_acc.o(i._Z22LIS2DS12_ACC_W_INT1_FFPv22LIS2DS12_ACC_INT1_FF_t) for i._Z22LIS2DS12_ACC_W_INT1_FFPv22LIS2DS12_ACC_INT1_FF_t
    lis2ds12_acc.o(.ARM.exidx) refers to lis2ds12_acc.o(i._Z22LIS2DS12_ACC_R_INT1_FFPvP22LIS2DS12_ACC_INT1_FF_t) for i._Z22LIS2DS12_ACC_R_INT1_FFPvP22LIS2DS12_ACC_INT1_FF_t
    lis2ds12_acc.o(.ARM.exidx) refers to lis2ds12_acc.o(i._Z22LIS2DS12_ACC_W_INT1_WUPv22LIS2DS12_ACC_INT1_WU_t) for i._Z22LIS2DS12_ACC_W_INT1_WUPv22LIS2DS12_ACC_INT1_WU_t
    lis2ds12_acc.o(.ARM.exidx) refers to lis2ds12_acc.o(i._Z22LIS2DS12_ACC_R_INT1_WUPvP22LIS2DS12_ACC_INT1_WU_t) for i._Z22LIS2DS12_ACC_R_INT1_WUPvP22LIS2DS12_ACC_INT1_WU_t
    lis2ds12_acc.o(.ARM.exidx) refers to lis2ds12_acc.o(i._Z25LIS2DS12_ACC_W_INT1_S_TAPPv25LIS2DS12_ACC_INT1_S_TAP_t) for i._Z25LIS2DS12_ACC_W_INT1_S_TAPPv25LIS2DS12_ACC_INT1_S_TAP_t
    lis2ds12_acc.o(.ARM.exidx) refers to lis2ds12_acc.o(i._Z25LIS2DS12_ACC_R_INT1_S_TAPPvP25LIS2DS12_ACC_INT1_S_TAP_t) for i._Z25LIS2DS12_ACC_R_INT1_S_TAPPvP25LIS2DS12_ACC_INT1_S_TAP_t
    lis2ds12_acc.o(.ARM.exidx) refers to lis2ds12_acc.o(i._Z31LIS2DS12_ACC_W_INT1_MASTER_DRDYPv31LIS2DS12_ACC_INT1_MASTER_DRDY_t) for i._Z31LIS2DS12_ACC_W_INT1_MASTER_DRDYPv31LIS2DS12_ACC_INT1_MASTER_DRDY_t
    lis2ds12_acc.o(.ARM.exidx) refers to lis2ds12_acc.o(i._Z31LIS2DS12_ACC_R_INT1_MASTER_DRDYPvP31LIS2DS12_ACC_INT1_MASTER_DRDY_t) for i._Z31LIS2DS12_ACC_R_INT1_MASTER_DRDYPvP31LIS2DS12_ACC_INT1_MASTER_DRDY_t
    lis2ds12_acc.o(.ARM.exidx) refers to lis2ds12_acc.o(i._Z24LIS2DS12_ACC_W_INT2_DRDYPv24LIS2DS12_ACC_INT2_DRDY_t) for i._Z24LIS2DS12_ACC_W_INT2_DRDYPv24LIS2DS12_ACC_INT2_DRDY_t
    lis2ds12_acc.o(.ARM.exidx) refers to lis2ds12_acc.o(i._Z24LIS2DS12_ACC_R_INT2_DRDYPvP24LIS2DS12_ACC_INT2_DRDY_t) for i._Z24LIS2DS12_ACC_R_INT2_DRDYPvP24LIS2DS12_ACC_INT2_DRDY_t
    lis2ds12_acc.o(.ARM.exidx) refers to lis2ds12_acc.o(i._Z23LIS2DS12_ACC_W_INT2_FTHPv23LIS2DS12_ACC_INT2_FTH_t) for i._Z23LIS2DS12_ACC_W_INT2_FTHPv23LIS2DS12_ACC_INT2_FTH_t
    lis2ds12_acc.o(.ARM.exidx) refers to lis2ds12_acc.o(i._Z23LIS2DS12_ACC_R_INT2_FTHPvP23LIS2DS12_ACC_INT2_FTH_t) for i._Z23LIS2DS12_ACC_R_INT2_FTHPvP23LIS2DS12_ACC_INT2_FTH_t
    lis2ds12_acc.o(.ARM.exidx) refers to lis2ds12_acc.o(i._Z28LIS2DS12_ACC_W_INT2_STEP_DETPv28LIS2DS12_ACC_INT2_STEP_DET_t) for i._Z28LIS2DS12_ACC_W_INT2_STEP_DETPv28LIS2DS12_ACC_INT2_STEP_DET_t
    lis2ds12_acc.o(.ARM.exidx) refers to lis2ds12_acc.o(i._Z28LIS2DS12_ACC_R_INT2_STEP_DETPvP28LIS2DS12_ACC_INT2_STEP_DET_t) for i._Z28LIS2DS12_ACC_R_INT2_STEP_DETPvP28LIS2DS12_ACC_INT2_STEP_DET_t
    lis2ds12_acc.o(.ARM.exidx) refers to lis2ds12_acc.o(i._Z27LIS2DS12_ACC_W_INT2_SIG_MOTPv27LIS2DS12_ACC_INT2_SIG_MOT_t) for i._Z27LIS2DS12_ACC_W_INT2_SIG_MOTPv27LIS2DS12_ACC_INT2_SIG_MOT_t
    lis2ds12_acc.o(.ARM.exidx) refers to lis2ds12_acc.o(i._Z27LIS2DS12_ACC_R_INT2_SIG_MOTPvP27LIS2DS12_ACC_INT2_SIG_MOT_t) for i._Z27LIS2DS12_ACC_R_INT2_SIG_MOTPvP27LIS2DS12_ACC_INT2_SIG_MOT_t
    lis2ds12_acc.o(.ARM.exidx) refers to lis2ds12_acc.o(i._Z24LIS2DS12_ACC_W_INT2_TILTPv24LIS2DS12_ACC_INT2_TILT_t) for i._Z24LIS2DS12_ACC_W_INT2_TILTPv24LIS2DS12_ACC_INT2_TILT_t
    lis2ds12_acc.o(.ARM.exidx) refers to lis2ds12_acc.o(i._Z24LIS2DS12_ACC_R_INT2_TILTPvP24LIS2DS12_ACC_INT2_TILT_t) for i._Z24LIS2DS12_ACC_R_INT2_TILTPvP24LIS2DS12_ACC_INT2_TILT_t
    lis2ds12_acc.o(.ARM.exidx) refers to lis2ds12_acc.o(i._Z27LIS2DS12_ACC_W_INT2_ON_INT1Pv27LIS2DS12_ACC_INT2_ON_INT1_t) for i._Z27LIS2DS12_ACC_W_INT2_ON_INT1Pv27LIS2DS12_ACC_INT2_ON_INT1_t
    lis2ds12_acc.o(.ARM.exidx) refers to lis2ds12_acc.o(i._Z27LIS2DS12_ACC_R_INT2_ON_INT1PvP27LIS2DS12_ACC_INT2_ON_INT1_t) for i._Z27LIS2DS12_ACC_R_INT2_ON_INT1PvP27LIS2DS12_ACC_INT2_ON_INT1_t
    lis2ds12_acc.o(.ARM.exidx) refers to lis2ds12_acc.o(i._Z24LIS2DS12_ACC_W_INT2_BOOTPv24LIS2DS12_ACC_INT2_BOOT_t) for i._Z24LIS2DS12_ACC_W_INT2_BOOTPv24LIS2DS12_ACC_INT2_BOOT_t
    lis2ds12_acc.o(.ARM.exidx) refers to lis2ds12_acc.o(i._Z24LIS2DS12_ACC_R_INT2_BOOTPvP24LIS2DS12_ACC_INT2_BOOT_t) for i._Z24LIS2DS12_ACC_R_INT2_BOOTPvP24LIS2DS12_ACC_INT2_BOOT_t
    lis2ds12_acc.o(.ARM.exidx) refers to lis2ds12_acc.o(i._Z26LIS2DS12_ACC_W_DRDY_PULSEDPv26LIS2DS12_ACC_DRDY_PULSED_t) for i._Z26LIS2DS12_ACC_W_DRDY_PULSEDPv26LIS2DS12_ACC_DRDY_PULSED_t
    lis2ds12_acc.o(.ARM.exidx) refers to lis2ds12_acc.o(i._Z26LIS2DS12_ACC_R_DRDY_PULSEDPvP26LIS2DS12_ACC_DRDY_PULSED_t) for i._Z26LIS2DS12_ACC_R_DRDY_PULSEDPvP26LIS2DS12_ACC_DRDY_PULSED_t
    lis2ds12_acc.o(.ARM.exidx) refers to lis2ds12_acc.o(i._Z26LIS2DS12_ACC_W_PullUP_DiscPv27LIS2DS12_ACC_IF_CS_PU_DIS_t) for i._Z26LIS2DS12_ACC_W_PullUP_DiscPv27LIS2DS12_ACC_IF_CS_PU_DIS_t
    lis2ds12_acc.o(.ARM.exidx) refers to lis2ds12_acc.o(i._Z26LIS2DS12_ACC_R_PullUP_DiscPvP27LIS2DS12_ACC_IF_CS_PU_DIS_t) for i._Z26LIS2DS12_ACC_R_PullUP_DiscPvP27LIS2DS12_ACC_IF_CS_PU_DIS_t
    lis2ds12_acc.o(.ARM.exidx) refers to lis2ds12_acc.o(i._Z29LIS2DS12_ACC_W_MODULE_TO_FIFOPv29LIS2DS12_ACC_MODULE_TO_FIFO_t) for i._Z29LIS2DS12_ACC_W_MODULE_TO_FIFOPv29LIS2DS12_ACC_MODULE_TO_FIFO_t
    lis2ds12_acc.o(.ARM.exidx) refers to lis2ds12_acc.o(i._Z29LIS2DS12_ACC_R_MODULE_TO_FIFOPvP29LIS2DS12_ACC_MODULE_TO_FIFO_t) for i._Z29LIS2DS12_ACC_R_MODULE_TO_FIFOPvP29LIS2DS12_ACC_MODULE_TO_FIFO_t
    lis2ds12_acc.o(.ARM.exidx) refers to lis2ds12_acc.o(i._Z20LIS2DS12_ACC_W_FMODEPv20LIS2DS12_ACC_FMODE_t) for i._Z20LIS2DS12_ACC_W_FMODEPv20LIS2DS12_ACC_FMODE_t
    lis2ds12_acc.o(.ARM.exidx) refers to lis2ds12_acc.o(i._Z20LIS2DS12_ACC_R_FMODEPvP20LIS2DS12_ACC_FMODE_t) for i._Z20LIS2DS12_ACC_R_FMODEPvP20LIS2DS12_ACC_FMODE_t
    lis2ds12_acc.o(.ARM.exidx) refers to lis2ds12_acc.o(i._Z26LIS2DS12_ACC_R_TemperaturePvPh) for i._Z26LIS2DS12_ACC_R_TemperaturePvPh
    lis2ds12_acc.o(.ARM.exidx) refers to lis2ds12_acc.o(i._Z19LIS2DS12_ACC_R_DRDYPvP19LIS2DS12_ACC_DRDY_t) for i._Z19LIS2DS12_ACC_R_DRDYPvP19LIS2DS12_ACC_DRDY_t
    lis2ds12_acc.o(.ARM.exidx) refers to lis2ds12_acc.o(i._Z20LIS2DS12_ACC_R_FF_IAPvP20LIS2DS12_ACC_FF_IA_t) for i._Z20LIS2DS12_ACC_R_FF_IAPvP20LIS2DS12_ACC_FF_IA_t
    lis2ds12_acc.o(.ARM.exidx) refers to lis2ds12_acc.o(i._Z20LIS2DS12_ACC_R_6D_IAPvP20LIS2DS12_ACC_6D_IA_t) for i._Z20LIS2DS12_ACC_R_6D_IAPvP20LIS2DS12_ACC_6D_IA_t
    lis2ds12_acc.o(.ARM.exidx) refers to lis2ds12_acc.o(i._Z25LIS2DS12_ACC_R_SINGLE_TAPPvP25LIS2DS12_ACC_SINGLE_TAP_t) for i._Z25LIS2DS12_ACC_R_SINGLE_TAPPvP25LIS2DS12_ACC_SINGLE_TAP_t
    lis2ds12_acc.o(.ARM.exidx) refers to lis2ds12_acc.o(i._Z25LIS2DS12_ACC_R_DOUBLE_TAPPvP25LIS2DS12_ACC_DOUBLE_TAP_t) for i._Z25LIS2DS12_ACC_R_DOUBLE_TAPPvP25LIS2DS12_ACC_DOUBLE_TAP_t
    lis2ds12_acc.o(.ARM.exidx) refers to lis2ds12_acc.o(i._Z26LIS2DS12_ACC_R_SLEEP_STATEPvP26LIS2DS12_ACC_SLEEP_STATE_t) for i._Z26LIS2DS12_ACC_R_SLEEP_STATEPvP26LIS2DS12_ACC_SLEEP_STATE_t
    lis2ds12_acc.o(.ARM.exidx) refers to lis2ds12_acc.o(i._Z20LIS2DS12_ACC_R_WU_IAPvP20LIS2DS12_ACC_WU_IA_t) for i._Z20LIS2DS12_ACC_R_WU_IAPvP20LIS2DS12_ACC_WU_IA_t
    lis2ds12_acc.o(.ARM.exidx) refers to lis2ds12_acc.o(i._Z23LIS2DS12_ACC_R_FIFO_THSPvP23LIS2DS12_ACC_FIFO_THS_t) for i._Z23LIS2DS12_ACC_R_FIFO_THSPvP23LIS2DS12_ACC_FIFO_THS_t
    lis2ds12_acc.o(.ARM.exidx) refers to lis2ds12_acc.o(i._Z24LIS2DS12_ACC_W_FifoThsldPvh) for i._Z24LIS2DS12_ACC_W_FifoThsldPvh
    lis2ds12_acc.o(.ARM.exidx) refers to lis2ds12_acc.o(i._Z24LIS2DS12_ACC_R_FifoThsldPvPh) for i._Z24LIS2DS12_ACC_R_FifoThsldPvPh
    lis2ds12_acc.o(.ARM.exidx) refers to lis2ds12_acc.o(i._Z23LIS2DS12_ACC_R_FIFO_OVRPvP23LIS2DS12_ACC_FIFO_OVR_t) for i._Z23LIS2DS12_ACC_R_FIFO_OVRPvP23LIS2DS12_ACC_FIFO_OVR_t
    lis2ds12_acc.o(.ARM.exidx) refers to lis2ds12_acc.o(i._Z18LIS2DS12_ACC_R_FTHPvP25LIS2DS12_ACC_FTH_STATUS_t) for i._Z18LIS2DS12_ACC_R_FTHPvP25LIS2DS12_ACC_FTH_STATUS_t
    lis2ds12_acc.o(.ARM.exidx) refers to lis2ds12_acc.o(i._Z25LIS2DS12_ACC_R_SamplesNumPvPt) for i._Z25LIS2DS12_ACC_R_SamplesNumPvPt
    lis2ds12_acc.o(.ARM.exidx) refers to lis2ds12_acc.o(i._Z22LIS2DS12_ACC_W_TAP_THSPvh) for i._Z22LIS2DS12_ACC_W_TAP_THSPvh
    lis2ds12_acc.o(.ARM.exidx) refers to lis2ds12_acc.o(i._Z22LIS2DS12_ACC_R_TAP_THSPvPh) for i._Z22LIS2DS12_ACC_R_TAP_THSPvPh
    lis2ds12_acc.o(.ARM.exidx) refers to lis2ds12_acc.o(i._Z21LIS2DS12_ACC_W_6D_THSPv21LIS2DS12_ACC_6D_THS_t) for i._Z21LIS2DS12_ACC_W_6D_THSPv21LIS2DS12_ACC_6D_THS_t
    lis2ds12_acc.o(.ARM.exidx) refers to lis2ds12_acc.o(i._Z21LIS2DS12_ACC_R_6D_THSPvP21LIS2DS12_ACC_6D_THS_t) for i._Z21LIS2DS12_ACC_R_6D_THSPvP21LIS2DS12_ACC_6D_THS_t
    lis2ds12_acc.o(.ARM.exidx) refers to lis2ds12_acc.o(i._Z20LIS2DS12_ACC_W_4D_ENPv20LIS2DS12_ACC_4D_EN_t) for i._Z20LIS2DS12_ACC_W_4D_ENPv20LIS2DS12_ACC_4D_EN_t
    lis2ds12_acc.o(.ARM.exidx) refers to lis2ds12_acc.o(i._Z20LIS2DS12_ACC_R_4D_ENPvP20LIS2DS12_ACC_4D_EN_t) for i._Z20LIS2DS12_ACC_R_4D_ENPvP20LIS2DS12_ACC_4D_EN_t
    lis2ds12_acc.o(.ARM.exidx) refers to lis2ds12_acc.o(i._Z20LIS2DS12_ACC_W_SHOCKPvh) for i._Z20LIS2DS12_ACC_W_SHOCKPvh
    lis2ds12_acc.o(.ARM.exidx) refers to lis2ds12_acc.o(i._Z20LIS2DS12_ACC_R_SHOCKPvPh) for i._Z20LIS2DS12_ACC_R_SHOCKPvPh
    lis2ds12_acc.o(.ARM.exidx) refers to lis2ds12_acc.o(i._Z20LIS2DS12_ACC_W_QUIETPvh) for i._Z20LIS2DS12_ACC_W_QUIETPvh
    lis2ds12_acc.o(.ARM.exidx) refers to lis2ds12_acc.o(i._Z20LIS2DS12_ACC_R_QUIETPvPh) for i._Z20LIS2DS12_ACC_R_QUIETPvPh
    lis2ds12_acc.o(.ARM.exidx) refers to lis2ds12_acc.o(i._Z18LIS2DS12_ACC_W_LATPvh) for i._Z18LIS2DS12_ACC_W_LATPvh
    lis2ds12_acc.o(.ARM.exidx) refers to lis2ds12_acc.o(i._Z18LIS2DS12_ACC_R_LATPvPh) for i._Z18LIS2DS12_ACC_R_LATPvPh
    lis2ds12_acc.o(.ARM.exidx) refers to lis2ds12_acc.o(i._Z21LIS2DS12_ACC_W_WU_THSPvh) for i._Z21LIS2DS12_ACC_W_WU_THSPvh
    lis2ds12_acc.o(.ARM.exidx) refers to lis2ds12_acc.o(i._Z21LIS2DS12_ACC_R_WU_THSPvPh) for i._Z21LIS2DS12_ACC_R_WU_THSPvPh
    lis2ds12_acc.o(.ARM.exidx) refers to lis2ds12_acc.o(i._Z23LIS2DS12_ACC_W_SLEEP_ONPv23LIS2DS12_ACC_SLEEP_ON_t) for i._Z23LIS2DS12_ACC_W_SLEEP_ONPv23LIS2DS12_ACC_SLEEP_ON_t
    lis2ds12_acc.o(.ARM.exidx) refers to lis2ds12_acc.o(i._Z23LIS2DS12_ACC_R_SLEEP_ONPvP23LIS2DS12_ACC_SLEEP_ON_t) for i._Z23LIS2DS12_ACC_R_SLEEP_ONPvP23LIS2DS12_ACC_SLEEP_ON_t
    lis2ds12_acc.o(.ARM.exidx) refers to lis2ds12_acc.o(i._Z32LIS2DS12_ACC_W_SINGLE_DOUBLE_TAPPv32LIS2DS12_ACC_SINGLE_DOUBLE_TAP_t) for i._Z32LIS2DS12_ACC_W_SINGLE_DOUBLE_TAPPv32LIS2DS12_ACC_SINGLE_DOUBLE_TAP_t
    lis2ds12_acc.o(.ARM.exidx) refers to lis2ds12_acc.o(i._Z32LIS2DS12_ACC_R_SINGLE_DOUBLE_TAPPvP32LIS2DS12_ACC_SINGLE_DOUBLE_TAP_t) for i._Z32LIS2DS12_ACC_R_SINGLE_DOUBLE_TAPPvP32LIS2DS12_ACC_SINGLE_DOUBLE_TAP_t
    lis2ds12_acc.o(.ARM.exidx) refers to lis2ds12_acc.o(i._Z28LIS2DS12_ACC_W_SleepDurationPvh) for i._Z28LIS2DS12_ACC_W_SleepDurationPvh
    lis2ds12_acc.o(.ARM.exidx) refers to lis2ds12_acc.o(i._Z28LIS2DS12_ACC_R_SleepDurationPvPh) for i._Z28LIS2DS12_ACC_R_SleepDurationPvPh
    lis2ds12_acc.o(.ARM.exidx) refers to lis2ds12_acc.o(i._Z29LIS2DS12_ACC_W_INT1_FIFO_FULLPv29LIS2DS12_ACC_INT1_FIFO_FULL_t) for i._Z29LIS2DS12_ACC_W_INT1_FIFO_FULLPv29LIS2DS12_ACC_INT1_FIFO_FULL_t
    lis2ds12_acc.o(.ARM.exidx) refers to lis2ds12_acc.o(i._Z29LIS2DS12_ACC_R_INT1_FIFO_FULLPvP29LIS2DS12_ACC_INT1_FIFO_FULL_t) for i._Z29LIS2DS12_ACC_R_INT1_FIFO_FULLPvP29LIS2DS12_ACC_INT1_FIFO_FULL_t
    lis2ds12_acc.o(.ARM.exidx) refers to lis2ds12_acc.o(i._Z29LIS2DS12_ACC_W_WakeUpDurationPvh) for i._Z29LIS2DS12_ACC_W_WakeUpDurationPvh
    lis2ds12_acc.o(.ARM.exidx) refers to lis2ds12_acc.o(i._Z29LIS2DS12_ACC_R_WakeUpDurationPvPh) for i._Z29LIS2DS12_ACC_R_WakeUpDurationPvPh
    lis2ds12_acc.o(.ARM.exidx) refers to lis2ds12_acc.o(i._Z32LIS2DS12_ACC_W_FreeFallThresholdPvh) for i._Z32LIS2DS12_ACC_W_FreeFallThresholdPvh
    lis2ds12_acc.o(.ARM.exidx) refers to lis2ds12_acc.o(i._Z32LIS2DS12_ACC_R_FreeFallThresholdPvPh) for i._Z32LIS2DS12_ACC_R_FreeFallThresholdPvPh
    lis2ds12_acc.o(.ARM.exidx) refers to lis2ds12_acc.o(i._Z31LIS2DS12_ACC_W_FreeFallDurationPvh) for i._Z31LIS2DS12_ACC_W_FreeFallDurationPvh
    lis2ds12_acc.o(.ARM.exidx) refers to lis2ds12_acc.o(i._Z31LIS2DS12_ACC_R_FreeFallDurationPvPh) for i._Z31LIS2DS12_ACC_R_FreeFallDurationPvPh
    lis2ds12_acc.o(.ARM.exidx) refers to lis2ds12_acc.o(i._Z23LIS2DS12_ACC_R_DRDY_DUPPvP23LIS2DS12_ACC_DRDY_DUP_t) for i._Z23LIS2DS12_ACC_R_DRDY_DUPPvP23LIS2DS12_ACC_DRDY_DUP_t
    lis2ds12_acc.o(.ARM.exidx) refers to lis2ds12_acc.o(i._Z24LIS2DS12_ACC_R_FF_IA_DUPPvP24LIS2DS12_ACC_FF_IA_DUP_t) for i._Z24LIS2DS12_ACC_R_FF_IA_DUPPvP24LIS2DS12_ACC_FF_IA_DUP_t
    lis2ds12_acc.o(.ARM.exidx) refers to lis2ds12_acc.o(i._Z24LIS2DS12_ACC_R_6D_IA_DUPPvP24LIS2DS12_ACC_6D_IA_DUP_t) for i._Z24LIS2DS12_ACC_R_6D_IA_DUPPvP24LIS2DS12_ACC_6D_IA_DUP_t
    lis2ds12_acc.o(.ARM.exidx) refers to lis2ds12_acc.o(i._Z29LIS2DS12_ACC_R_SINGLE_TAP_DUPPvP29LIS2DS12_ACC_SINGLE_TAP_DUP_t) for i._Z29LIS2DS12_ACC_R_SINGLE_TAP_DUPPvP29LIS2DS12_ACC_SINGLE_TAP_DUP_t
    lis2ds12_acc.o(.ARM.exidx) refers to lis2ds12_acc.o(i._Z29LIS2DS12_ACC_R_DOUBLE_TAP_DUPPvP29LIS2DS12_ACC_DOUBLE_TAP_DUP_t) for i._Z29LIS2DS12_ACC_R_DOUBLE_TAP_DUPPvP29LIS2DS12_ACC_DOUBLE_TAP_DUP_t
    lis2ds12_acc.o(.ARM.exidx) refers to lis2ds12_acc.o(i._Z30LIS2DS12_ACC_R_SLEEP_STATE_DUPPvP30LIS2DS12_ACC_SLEEP_STATE_DUP_t) for i._Z30LIS2DS12_ACC_R_SLEEP_STATE_DUPPvP30LIS2DS12_ACC_SLEEP_STATE_DUP_t
    lis2ds12_acc.o(.ARM.exidx) refers to lis2ds12_acc.o(i._Z24LIS2DS12_ACC_R_WU_IA_DUPPvP24LIS2DS12_ACC_WU_IA_DUP_t) for i._Z24LIS2DS12_ACC_R_WU_IA_DUPPvP24LIS2DS12_ACC_WU_IA_DUP_t
    lis2ds12_acc.o(.ARM.exidx) refers to lis2ds12_acc.o(i._Z22LIS2DS12_ACC_R_OVR_DUPPvP22LIS2DS12_ACC_OVR_DUP_t) for i._Z22LIS2DS12_ACC_R_OVR_DUPPvP22LIS2DS12_ACC_OVR_DUP_t
    lis2ds12_acc.o(.ARM.exidx) refers to lis2ds12_acc.o(i._Z19LIS2DS12_ACC_R_Z_WUPvP19LIS2DS12_ACC_Z_WU_t) for i._Z19LIS2DS12_ACC_R_Z_WUPvP19LIS2DS12_ACC_Z_WU_t
    lis2ds12_acc.o(.ARM.exidx) refers to lis2ds12_acc.o(i._Z19LIS2DS12_ACC_R_Y_WUPvP19LIS2DS12_ACC_Y_WU_t) for i._Z19LIS2DS12_ACC_R_Y_WUPvP19LIS2DS12_ACC_Y_WU_t
    lis2ds12_acc.o(.ARM.exidx) refers to lis2ds12_acc.o(i._Z19LIS2DS12_ACC_R_X_WUPvP19LIS2DS12_ACC_X_WU_t) for i._Z19LIS2DS12_ACC_R_X_WUPvP19LIS2DS12_ACC_X_WU_t
    lis2ds12_acc.o(.ARM.exidx) refers to lis2ds12_acc.o(i._Z25LIS2DS12_ACC_R_WU_IA_DUP2PvP25LIS2DS12_ACC_WU_IA_DUP2_t) for i._Z25LIS2DS12_ACC_R_WU_IA_DUP2PvP25LIS2DS12_ACC_WU_IA_DUP2_t
    lis2ds12_acc.o(.ARM.exidx) refers to lis2ds12_acc.o(i._Z29LIS2DS12_ACC_R_SLEEP_STATE_IAPvP29LIS2DS12_ACC_SLEEP_STATE_IA_t) for i._Z29LIS2DS12_ACC_R_SLEEP_STATE_IAPvP29LIS2DS12_ACC_SLEEP_STATE_IA_t
    lis2ds12_acc.o(.ARM.exidx) refers to lis2ds12_acc.o(i._Z25LIS2DS12_ACC_R_FF_IA_DUP2PvP25LIS2DS12_ACC_FF_IA_DUP2_t) for i._Z25LIS2DS12_ACC_R_FF_IA_DUP2PvP25LIS2DS12_ACC_FF_IA_DUP2_t
    lis2ds12_acc.o(.ARM.exidx) refers to lis2ds12_acc.o(i._Z20LIS2DS12_ACC_R_Z_TAPPvP20LIS2DS12_ACC_Z_TAP_t) for i._Z20LIS2DS12_ACC_R_Z_TAPPvP20LIS2DS12_ACC_Z_TAP_t
    lis2ds12_acc.o(.ARM.exidx) refers to lis2ds12_acc.o(i._Z20LIS2DS12_ACC_R_Y_TAPPvP20LIS2DS12_ACC_Y_TAP_t) for i._Z20LIS2DS12_ACC_R_Y_TAPPvP20LIS2DS12_ACC_Y_TAP_t
    lis2ds12_acc.o(.ARM.exidx) refers to lis2ds12_acc.o(i._Z20LIS2DS12_ACC_R_X_TAPPvP20LIS2DS12_ACC_X_TAP_t) for i._Z20LIS2DS12_ACC_R_X_TAPPvP20LIS2DS12_ACC_X_TAP_t
    lis2ds12_acc.o(.ARM.exidx) refers to lis2ds12_acc.o(i._Z23LIS2DS12_ACC_R_TAP_SIGNPvP23LIS2DS12_ACC_TAP_SIGN_t) for i._Z23LIS2DS12_ACC_R_TAP_SIGNPvP23LIS2DS12_ACC_TAP_SIGN_t
    lis2ds12_acc.o(.ARM.exidx) refers to lis2ds12_acc.o(i._Z30LIS2DS12_ACC_R_DOUBLE_TAP_DUP2PvP30LIS2DS12_ACC_DOUBLE_TAP_DUP2_t) for i._Z30LIS2DS12_ACC_R_DOUBLE_TAP_DUP2PvP30LIS2DS12_ACC_DOUBLE_TAP_DUP2_t
    lis2ds12_acc.o(.ARM.exidx) refers to lis2ds12_acc.o(i._Z30LIS2DS12_ACC_R_SINGLE_TAP_DUP2PvP30LIS2DS12_ACC_SINGLE_TAP_DUP2_t) for i._Z30LIS2DS12_ACC_R_SINGLE_TAP_DUP2PvP30LIS2DS12_ACC_SINGLE_TAP_DUP2_t
    lis2ds12_acc.o(.ARM.exidx) refers to lis2ds12_acc.o(i._Z21LIS2DS12_ACC_R_TAP_IAPvP21LIS2DS12_ACC_TAP_IA_t) for i._Z21LIS2DS12_ACC_R_TAP_IAPvP21LIS2DS12_ACC_TAP_IA_t
    lis2ds12_acc.o(.ARM.exidx) refers to lis2ds12_acc.o(i._Z17LIS2DS12_ACC_R_XLPvP17LIS2DS12_ACC_XL_t) for i._Z17LIS2DS12_ACC_R_XLPvP17LIS2DS12_ACC_XL_t
    lis2ds12_acc.o(.ARM.exidx) refers to lis2ds12_acc.o(i._Z17LIS2DS12_ACC_R_XHPvP17LIS2DS12_ACC_XH_t) for i._Z17LIS2DS12_ACC_R_XHPvP17LIS2DS12_ACC_XH_t
    lis2ds12_acc.o(.ARM.exidx) refers to lis2ds12_acc.o(i._Z17LIS2DS12_ACC_R_YLPvP17LIS2DS12_ACC_YL_t) for i._Z17LIS2DS12_ACC_R_YLPvP17LIS2DS12_ACC_YL_t
    lis2ds12_acc.o(.ARM.exidx) refers to lis2ds12_acc.o(i._Z17LIS2DS12_ACC_R_YHPvP17LIS2DS12_ACC_YH_t) for i._Z17LIS2DS12_ACC_R_YHPvP17LIS2DS12_ACC_YH_t
    lis2ds12_acc.o(.ARM.exidx) refers to lis2ds12_acc.o(i._Z17LIS2DS12_ACC_R_ZLPvP17LIS2DS12_ACC_ZL_t) for i._Z17LIS2DS12_ACC_R_ZLPvP17LIS2DS12_ACC_ZL_t
    lis2ds12_acc.o(.ARM.exidx) refers to lis2ds12_acc.o(i._Z17LIS2DS12_ACC_R_ZHPvP17LIS2DS12_ACC_ZH_t) for i._Z17LIS2DS12_ACC_R_ZHPvP17LIS2DS12_ACC_ZH_t
    lis2ds12_acc.o(.ARM.exidx) refers to lis2ds12_acc.o(i._Z25LIS2DS12_ACC_R_6D_IA_DUP2PvP25LIS2DS12_ACC_6D_IA_DUP2_t) for i._Z25LIS2DS12_ACC_R_6D_IA_DUP2PvP25LIS2DS12_ACC_6D_IA_DUP2_t
    lis2ds12_acc.o(.ARM.exidx) refers to lis2ds12_acc.o(i._Z22LIS2DS12_ACC_W_SC_MTHSPvh) for i._Z22LIS2DS12_ACC_W_SC_MTHSPvh
    lis2ds12_acc.o(.ARM.exidx) refers to lis2ds12_acc.o(i._Z22LIS2DS12_ACC_R_SC_MTHSPvPh) for i._Z22LIS2DS12_ACC_R_SC_MTHSPvPh
    lis2ds12_acc.o(.ARM.exidx) refers to lis2ds12_acc.o(i._Z21LIS2DS12_ACC_W_PEDO4GPv21LIS2DS12_ACC_PEDO4G_t) for i._Z21LIS2DS12_ACC_W_PEDO4GPv21LIS2DS12_ACC_PEDO4G_t
    lis2ds12_acc.o(.ARM.exidx) refers to lis2ds12_acc.o(i._Z21LIS2DS12_ACC_R_PEDO4GPvP21LIS2DS12_ACC_PEDO4G_t) for i._Z21LIS2DS12_ACC_R_PEDO4GPvP21LIS2DS12_ACC_PEDO4G_t
    lis2ds12_acc.o(.ARM.exidx) refers to lis2ds12_acc.o(i._Z24LIS2DS12_ACC_W_RST_NSTEPPv24LIS2DS12_ACC_RST_NSTEP_t) for i._Z24LIS2DS12_ACC_W_RST_NSTEPPv24LIS2DS12_ACC_RST_NSTEP_t
    lis2ds12_acc.o(.ARM.exidx) refers to lis2ds12_acc.o(i._Z24LIS2DS12_ACC_R_RST_NSTEPPvP24LIS2DS12_ACC_RST_NSTEP_t) for i._Z24LIS2DS12_ACC_R_RST_NSTEPPvP24LIS2DS12_ACC_RST_NSTEP_t
    lis2ds12_acc.o(.ARM.exidx) refers to lis2ds12_acc.o(i._Z27LIS2DS12_ACC_R_CK_GATE_FUNCPvP27LIS2DS12_ACC_CK_GATE_FUNC_t) for i._Z27LIS2DS12_ACC_R_CK_GATE_FUNCPvP27LIS2DS12_ACC_CK_GATE_FUNC_t
    lis2ds12_acc.o(.ARM.exidx) refers to lis2ds12_acc.o(i._Z26LIS2DS12_ACC_R_STEP_DETECTPvP26LIS2DS12_ACC_STEP_DETECT_t) for i._Z26LIS2DS12_ACC_R_STEP_DETECTPvP26LIS2DS12_ACC_STEP_DETECT_t
    lis2ds12_acc.o(.ARM.exidx) refers to lis2ds12_acc.o(i._Z23LIS2DS12_ACC_R_RST_PEDOPvP23LIS2DS12_ACC_RST_PEDO_t) for i._Z23LIS2DS12_ACC_R_RST_PEDOPvP23LIS2DS12_ACC_RST_PEDO_t
    lis2ds12_acc.o(.ARM.exidx) refers to lis2ds12_acc.o(i._Z27LIS2DS12_ACC_R_RST_SIGN_MOTPvP27LIS2DS12_ACC_RST_SIGN_MOT_t) for i._Z27LIS2DS12_ACC_R_RST_SIGN_MOTPvP27LIS2DS12_ACC_RST_SIGN_MOT_t
    lis2ds12_acc.o(.ARM.exidx) refers to lis2ds12_acc.o(i._Z29LIS2DS12_ACC_R_SIG_MOT_DETECTPvP29LIS2DS12_ACC_SIG_MOT_DETECT_t) for i._Z29LIS2DS12_ACC_R_SIG_MOT_DETECTPvP29LIS2DS12_ACC_SIG_MOT_DETECT_t
    lis2ds12_acc.o(.ARM.exidx) refers to lis2ds12_acc.o(i._Z21LIS2DS12_ACC_R_FS_SRCPvP21LIS2DS12_ACC_FS_SRC_t) for i._Z21LIS2DS12_ACC_R_FS_SRCPvP21LIS2DS12_ACC_FS_SRC_t
    lis2ds12_acc.o(.ARM.exidx) refers to lis2ds12_acc.o(i._Z23LIS2DS12_ACC_R_TILT_INTPvP23LIS2DS12_ACC_TILT_INT_t) for i._Z23LIS2DS12_ACC_R_TILT_INTPvP23LIS2DS12_ACC_TILT_INT_t
    lis2ds12_acc.o(.ARM.exidx) refers to lis2ds12_acc.o(i._Z30LIS2DS12_ACC_R_SENS_HUB_END_OPPvP30LIS2DS12_ACC_SENS_HUB_END_OP_t) for i._Z30LIS2DS12_ACC_R_SENS_HUB_END_OPPvP30LIS2DS12_ACC_SENS_HUB_END_OP_t
    lis2ds12_acc.o(.ARM.exidx) refers to lis2ds12_acc.o(i._Z27LIS2DS12_ACC_R_MODULE_READYPvP27LIS2DS12_ACC_MODULE_READY_t) for i._Z27LIS2DS12_ACC_R_MODULE_READYPvP27LIS2DS12_ACC_MODULE_READY_t
    lis2ds12_acc.o(.ARM.exidx) refers to lis2ds12_acc.o(i._Z23LIS2DS12_ACC_R_RST_TILTPvP23LIS2DS12_ACC_RST_TILT_t) for i._Z23LIS2DS12_ACC_R_RST_TILTPvP23LIS2DS12_ACC_RST_TILT_t
    lis2ds12_acc.o(.ARM.exidx) refers to lis2ds12_acc.o(i._Z26LIS2DS12_ACC_W_STEP_CNT_ONPv26LIS2DS12_ACC_STEP_CNT_ON_t) for i._Z26LIS2DS12_ACC_W_STEP_CNT_ONPv26LIS2DS12_ACC_STEP_CNT_ON_t
    lis2ds12_acc.o(.ARM.exidx) refers to lis2ds12_acc.o(i._Z26LIS2DS12_ACC_R_STEP_CNT_ONPvP26LIS2DS12_ACC_STEP_CNT_ON_t) for i._Z26LIS2DS12_ACC_R_STEP_CNT_ONPvP26LIS2DS12_ACC_STEP_CNT_ON_t
    lis2ds12_acc.o(.ARM.exidx) refers to lis2ds12_acc.o(i._Z26LIS2DS12_ACC_W_SIGN_MOT_ONPv26LIS2DS12_ACC_SIGN_MOT_ON_t) for i._Z26LIS2DS12_ACC_W_SIGN_MOT_ONPv26LIS2DS12_ACC_SIGN_MOT_ON_t
    lis2ds12_acc.o(.ARM.exidx) refers to lis2ds12_acc.o(i._Z26LIS2DS12_ACC_R_SIGN_MOT_ONPvP26LIS2DS12_ACC_SIGN_MOT_ON_t) for i._Z26LIS2DS12_ACC_R_SIGN_MOT_ONPvP26LIS2DS12_ACC_SIGN_MOT_ON_t
    lis2ds12_acc.o(.ARM.exidx) refers to lis2ds12_acc.o(i._Z24LIS2DS12_ACC_W_MASTER_ONPv24LIS2DS12_ACC_MASTER_ON_t) for i._Z24LIS2DS12_ACC_W_MASTER_ONPv24LIS2DS12_ACC_MASTER_ON_t
    lis2ds12_acc.o(.ARM.exidx) refers to lis2ds12_acc.o(i._Z24LIS2DS12_ACC_R_MASTER_ONPvP24LIS2DS12_ACC_MASTER_ON_t) for i._Z24LIS2DS12_ACC_R_MASTER_ONPvP24LIS2DS12_ACC_MASTER_ON_t
    lis2ds12_acc.o(.ARM.exidx) refers to lis2ds12_acc.o(i._Z21LIS2DS12_ACC_W_TUD_ENPv21LIS2DS12_ACC_TUD_EN_t) for i._Z21LIS2DS12_ACC_W_TUD_ENPv21LIS2DS12_ACC_TUD_EN_t
    lis2ds12_acc.o(.ARM.exidx) refers to lis2ds12_acc.o(i._Z21LIS2DS12_ACC_R_TUD_ENPvP21LIS2DS12_ACC_TUD_EN_t) for i._Z21LIS2DS12_ACC_R_TUD_ENPvP21LIS2DS12_ACC_TUD_EN_t
    lis2ds12_acc.o(.ARM.exidx) refers to lis2ds12_acc.o(i._Z22LIS2DS12_ACC_W_TILT_ONPv22LIS2DS12_ACC_TILT_ON_t) for i._Z22LIS2DS12_ACC_W_TILT_ONPv22LIS2DS12_ACC_TILT_ON_t
    lis2ds12_acc.o(.ARM.exidx) refers to lis2ds12_acc.o(i._Z22LIS2DS12_ACC_R_TILT_ONPvP22LIS2DS12_ACC_TILT_ON_t) for i._Z22LIS2DS12_ACC_R_TILT_ONPvP22LIS2DS12_ACC_TILT_ON_t
    lis2ds12_acc.o(.ARM.exidx) refers to lis2ds12_acc.o(i._Z24LIS2DS12_ACC_W_MODULE_ONPv24LIS2DS12_ACC_MODULE_ON_t) for i._Z24LIS2DS12_ACC_W_MODULE_ONPv24LIS2DS12_ACC_MODULE_ON_t
    lis2ds12_acc.o(.ARM.exidx) refers to lis2ds12_acc.o(i._Z24LIS2DS12_ACC_R_MODULE_ONPvP24LIS2DS12_ACC_MODULE_ON_t) for i._Z24LIS2DS12_ACC_R_MODULE_ONPvP24LIS2DS12_ACC_MODULE_ON_t
    lis2ds12_acc.o(.ARM.exidx) refers to lis2ds12_acc.o(i._Z31LIS2DS12_ACC_Get_ExternalSensorPvPh) for i._Z31LIS2DS12_ACC_Get_ExternalSensorPvPh
    lis2ds12_acc.o(.ARM.exidx) refers to lis2ds12_acc.o(i._Z28LIS2DS12_ACC_Get_StepCounterPvPh) for i._Z28LIS2DS12_ACC_Get_StepCounterPvPh
    max30105.o(i._ZN8MAX3010510enableSlotEhh) refers to max30105.o(i._ZN8MAX301057bitMaskEhhh) for MAX30105::bitMask(unsigned char, unsigned char, unsigned char)
    max30105.o(i._ZN8MAX3010510nextSampleEv) refers to max30105.o(i._ZN8MAX301059availableEv) for MAX30105::available()
    max30105.o(i._ZN8MAX3010510readPartIDEv) refers to max30105.o(i._ZN8MAX3010513readRegister8Ehh) for MAX30105::readRegister8(unsigned char, unsigned char)
    max30105.o(i._ZN8MAX3010510setLEDModeEh) refers to max30105.o(i._ZN8MAX301057bitMaskEhhh) for MAX30105::bitMask(unsigned char, unsigned char, unsigned char)
    max30105.o(i._ZN8MAX3010511enableAFULLEv) refers to max30105.o(i._ZN8MAX301057bitMaskEhhh) for MAX30105::bitMask(unsigned char, unsigned char, unsigned char)
    max30105.o(i._ZN8MAX3010511setADCRangeEh) refers to max30105.o(i._ZN8MAX301057bitMaskEhhh) for MAX30105::bitMask(unsigned char, unsigned char, unsigned char)
    max30105.o(i._ZN8MAX3010512disableAFULLEv) refers to max30105.o(i._ZN8MAX301057bitMaskEhhh) for MAX30105::bitMask(unsigned char, unsigned char, unsigned char)
    max30105.o(i._ZN8MAX3010512disableSlotsEv) refers to max30105.o(i._ZN8MAX3010514writeRegister8Ehhh) for MAX30105::writeRegister8(unsigned char, unsigned char, unsigned char)
    max30105.o(i._ZN8MAX3010512enableALCOVFEv) refers to max30105.o(i._ZN8MAX301057bitMaskEhhh) for MAX30105::bitMask(unsigned char, unsigned char, unsigned char)
    max30105.o(i._ZN8MAX3010513disableALCOVFEv) refers to max30105.o(i._ZN8MAX301057bitMaskEhhh) for MAX30105::bitMask(unsigned char, unsigned char, unsigned char)
    max30105.o(i._ZN8MAX3010513enableDATARDYEv) refers to max30105.o(i._ZN8MAX301057bitMaskEhhh) for MAX30105::bitMask(unsigned char, unsigned char, unsigned char)
    max30105.o(i._ZN8MAX3010513enablePROXINTEv) refers to max30105.o(i._ZN8MAX301057bitMaskEhhh) for MAX30105::bitMask(unsigned char, unsigned char, unsigned char)
    max30105.o(i._ZN8MAX3010513readRegister8Ehh) refers to wirebase.o(i._ZN8WireBase17beginTransmissionEh) for WireBase::beginTransmission(unsigned char)
    max30105.o(i._ZN8MAX3010513readRegister8Ehh) refers to wirebase.o(i._ZN8WireBase5writeEh) for WireBase::write(unsigned char)
    max30105.o(i._ZN8MAX3010513readRegister8Ehh) refers to wirebase.o(i._ZN8WireBase15endTransmissionEv) for WireBase::endTransmission()
    max30105.o(i._ZN8MAX3010513readRegister8Ehh) refers to wirebase.o(i._ZN8WireBase11requestFromEhi) for WireBase::requestFrom(unsigned char, int)
    max30105.o(i._ZN8MAX3010513readRegister8Ehh) refers to wirebase.o(i._ZN8WireBase9availableEv) for WireBase::available()
    max30105.o(i._ZN8MAX3010513readRegister8Ehh) refers to wirebase.o(i._ZN8WireBase4readEv) for WireBase::read()
    max30105.o(i._ZN8MAX3010513setPulseWidthEh) refers to max30105.o(i._ZN8MAX301057bitMaskEhhh) for MAX30105::bitMask(unsigned char, unsigned char, unsigned char)
    max30105.o(i._ZN8MAX3010513setSampleRateEh) refers to max30105.o(i._ZN8MAX301057bitMaskEhhh) for MAX30105::bitMask(unsigned char, unsigned char, unsigned char)
    max30105.o(i._ZN8MAX3010514disableDATARDYEv) refers to max30105.o(i._ZN8MAX301057bitMaskEhhh) for MAX30105::bitMask(unsigned char, unsigned char, unsigned char)
    max30105.o(i._ZN8MAX3010514disablePROXINTEv) refers to max30105.o(i._ZN8MAX301057bitMaskEhhh) for MAX30105::bitMask(unsigned char, unsigned char, unsigned char)
    max30105.o(i._ZN8MAX3010514getReadPointerEv) refers to max30105.o(i._ZN8MAX3010513readRegister8Ehh) for MAX30105::readRegister8(unsigned char, unsigned char)
    max30105.o(i._ZN8MAX3010514readRevisionIDEv) refers to max30105.o(i._ZN8MAX3010513readRegister8Ehh) for MAX30105::readRegister8(unsigned char, unsigned char)
    max30105.o(i._ZN8MAX3010514setFIFOAverageEh) refers to max30105.o(i._ZN8MAX301057bitMaskEhhh) for MAX30105::bitMask(unsigned char, unsigned char, unsigned char)
    max30105.o(i._ZN8MAX3010514writeRegister8Ehhh) refers to wirebase.o(i._ZN8WireBase17beginTransmissionEh) for WireBase::beginTransmission(unsigned char)
    max30105.o(i._ZN8MAX3010514writeRegister8Ehhh) refers to wirebase.o(i._ZN8WireBase5writeEh) for WireBase::write(unsigned char)
    max30105.o(i._ZN8MAX3010514writeRegister8Ehhh) refers to wirebase.o(i._ZN8WireBase15endTransmissionEv) for WireBase::endTransmission()
    max30105.o(i._ZN8MAX3010515getWritePointerEv) refers to max30105.o(i._ZN8MAX3010513readRegister8Ehh) for MAX30105::readRegister8(unsigned char, unsigned char)
    max30105.o(i._ZN8MAX3010515readTemperatureEv) refers to max30105.o(i._ZN8MAX3010514writeRegister8Ehhh) for MAX30105::writeRegister8(unsigned char, unsigned char, unsigned char)
    max30105.o(i._ZN8MAX3010515readTemperatureEv) refers to delay.o(i.millis) for millis
    max30105.o(i._ZN8MAX3010515readTemperatureEv) refers to max30105.o(i._ZN8MAX3010513readRegister8Ehh) for MAX30105::readRegister8(unsigned char, unsigned char)
    max30105.o(i._ZN8MAX3010515readTemperatureEv) refers to delay.o(i.delay_ms) for delay_ms
    max30105.o(i._ZN8MAX3010515readTemperatureEv) refers to dflt_clz.o(x$fpl$dfltu) for __aeabi_ui2d
    max30105.o(i._ZN8MAX3010515readTemperatureEv) refers to scalbn.o(x$fpl$scalbn) for __ARM_scalbn
    max30105.o(i._ZN8MAX3010515readTemperatureEv) refers to dflt_clz.o(x$fpl$dflt) for __aeabi_i2d
    max30105.o(i._ZN8MAX3010515readTemperatureEv) refers to daddsub_clz.o(x$fpl$dadd) for __aeabi_dadd
    max30105.o(i._ZN8MAX3010515readTemperatureEv) refers to d2f.o(x$fpl$d2f) for __aeabi_d2f
    max30105.o(i._ZN8MAX3010516enableDIETEMPRDYEv) refers to max30105.o(i._ZN8MAX301057bitMaskEhhh) for MAX30105::bitMask(unsigned char, unsigned char, unsigned char)
    max30105.o(i._ZN8MAX3010516readTemperatureFEv) refers to max30105.o(i._ZN8MAX3010515readTemperatureEv) for MAX30105::readTemperature()
    max30105.o(i._ZN8MAX3010516readTemperatureFEv) refers to f2d.o(x$fpl$f2d) for __aeabi_f2d
    max30105.o(i._ZN8MAX3010516readTemperatureFEv) refers to dmul.o(x$fpl$dmul) for __aeabi_dmul
    max30105.o(i._ZN8MAX3010516readTemperatureFEv) refers to daddsub_clz.o(x$fpl$dadd) for __aeabi_dadd
    max30105.o(i._ZN8MAX3010516readTemperatureFEv) refers to d2f.o(x$fpl$d2f) for __aeabi_d2f
    max30105.o(i._ZN8MAX3010516setPROXINTTHRESHEh) refers to max30105.o(i._ZN8MAX3010514writeRegister8Ehhh) for MAX30105::writeRegister8(unsigned char, unsigned char, unsigned char)
    max30105.o(i._ZN8MAX3010517disableDIETEMPRDYEv) refers to max30105.o(i._ZN8MAX301057bitMaskEhhh) for MAX30105::bitMask(unsigned char, unsigned char, unsigned char)
    max30105.o(i._ZN8MAX3010517setFIFOAlmostFullEh) refers to max30105.o(i._ZN8MAX301057bitMaskEhhh) for MAX30105::bitMask(unsigned char, unsigned char, unsigned char)
    max30105.o(i._ZN8MAX3010518enableFIFORolloverEv) refers to max30105.o(i._ZN8MAX301057bitMaskEhhh) for MAX30105::bitMask(unsigned char, unsigned char, unsigned char)
    max30105.o(i._ZN8MAX3010519disableFIFORolloverEv) refers to max30105.o(i._ZN8MAX301057bitMaskEhhh) for MAX30105::bitMask(unsigned char, unsigned char, unsigned char)
    max30105.o(i._ZN8MAX3010519setPulseAmplitudeIREh) refers to max30105.o(i._ZN8MAX3010514writeRegister8Ehhh) for MAX30105::writeRegister8(unsigned char, unsigned char, unsigned char)
    max30105.o(i._ZN8MAX3010520setPulseAmplitudeRedEh) refers to max30105.o(i._ZN8MAX3010514writeRegister8Ehhh) for MAX30105::writeRegister8(unsigned char, unsigned char, unsigned char)
    max30105.o(i._ZN8MAX3010521setProximityThresholdEh) refers to max30105.o(i._ZN8MAX3010514writeRegister8Ehhh) for MAX30105::writeRegister8(unsigned char, unsigned char, unsigned char)
    max30105.o(i._ZN8MAX3010522setPulseAmplitudeGreenEh) refers to max30105.o(i._ZN8MAX3010514writeRegister8Ehhh) for MAX30105::writeRegister8(unsigned char, unsigned char, unsigned char)
    max30105.o(i._ZN8MAX3010526setPulseAmplitudeProximityEh) refers to max30105.o(i._ZN8MAX3010514writeRegister8Ehhh) for MAX30105::writeRegister8(unsigned char, unsigned char, unsigned char)
    max30105.o(i._ZN8MAX301055beginER7TwoWirejh) refers to wirebase.o(i._ZN8WireBase8setClockEj) for WireBase::setClock(unsigned)
    max30105.o(i._ZN8MAX301055beginER7TwoWirejh) refers to max30105.o(i._ZN8MAX3010510readPartIDEv) for MAX30105::readPartID()
    max30105.o(i._ZN8MAX301055beginER7TwoWirejh) refers to max30105.o(i._ZN8MAX3010514readRevisionIDEv) for MAX30105::readRevisionID()
    max30105.o(i._ZN8MAX301055checkEv) refers to max30105.o(i._ZN8MAX3010514getReadPointerEv) for MAX30105::getReadPointer()
    max30105.o(i._ZN8MAX301055checkEv) refers to max30105.o(i._ZN8MAX3010515getWritePointerEv) for MAX30105::getWritePointer()
    max30105.o(i._ZN8MAX301055checkEv) refers to wirebase.o(i._ZN8WireBase17beginTransmissionEi) for WireBase::beginTransmission(int)
    max30105.o(i._ZN8MAX301055checkEv) refers to wirebase.o(i._ZN8WireBase5writeEh) for WireBase::write(unsigned char)
    max30105.o(i._ZN8MAX301055checkEv) refers to wirebase.o(i._ZN8WireBase15endTransmissionEv) for WireBase::endTransmission()
    max30105.o(i._ZN8MAX301055checkEv) refers to wirebase.o(i._ZN8WireBase11requestFromEii) for WireBase::requestFrom(int, int)
    max30105.o(i._ZN8MAX301055checkEv) refers to wirebase.o(i._ZN8WireBase4readEv) for WireBase::read()
    max30105.o(i._ZN8MAX301055getIREv) refers to max30105.o(i._ZN8MAX301059safeCheckEh) for MAX30105::safeCheck(unsigned char)
    max30105.o(i._ZN8MAX301055setupEhhhiii) refers to max30105.o(i._ZN8MAX301059softResetEv) for MAX30105::softReset()
    max30105.o(i._ZN8MAX301055setupEhhhiii) refers to max30105.o(i._ZN8MAX3010514setFIFOAverageEh) for MAX30105::setFIFOAverage(unsigned char)
    max30105.o(i._ZN8MAX301055setupEhhhiii) refers to max30105.o(i._ZN8MAX3010518enableFIFORolloverEv) for MAX30105::enableFIFORollover()
    max30105.o(i._ZN8MAX301055setupEhhhiii) refers to max30105.o(i._ZN8MAX3010510setLEDModeEh) for MAX30105::setLEDMode(unsigned char)
    max30105.o(i._ZN8MAX301055setupEhhhiii) refers to max30105.o(i._ZN8MAX3010511setADCRangeEh) for MAX30105::setADCRange(unsigned char)
    max30105.o(i._ZN8MAX301055setupEhhhiii) refers to max30105.o(i._ZN8MAX3010513setSampleRateEh) for MAX30105::setSampleRate(unsigned char)
    max30105.o(i._ZN8MAX301055setupEhhhiii) refers to max30105.o(i._ZN8MAX3010513setPulseWidthEh) for MAX30105::setPulseWidth(unsigned char)
    max30105.o(i._ZN8MAX301055setupEhhhiii) refers to max30105.o(i._ZN8MAX3010520setPulseAmplitudeRedEh) for MAX30105::setPulseAmplitudeRed(unsigned char)
    max30105.o(i._ZN8MAX301055setupEhhhiii) refers to max30105.o(i._ZN8MAX3010519setPulseAmplitudeIREh) for MAX30105::setPulseAmplitudeIR(unsigned char)
    max30105.o(i._ZN8MAX301055setupEhhhiii) refers to max30105.o(i._ZN8MAX3010522setPulseAmplitudeGreenEh) for MAX30105::setPulseAmplitudeGreen(unsigned char)
    max30105.o(i._ZN8MAX301055setupEhhhiii) refers to max30105.o(i._ZN8MAX3010526setPulseAmplitudeProximityEh) for MAX30105::setPulseAmplitudeProximity(unsigned char)
    max30105.o(i._ZN8MAX301055setupEhhhiii) refers to max30105.o(i._ZN8MAX3010510enableSlotEhh) for MAX30105::enableSlot(unsigned char, unsigned char)
    max30105.o(i._ZN8MAX301055setupEhhhiii) refers to max30105.o(i._ZN8MAX301059clearFIFOEv) for MAX30105::clearFIFO()
    max30105.o(i._ZN8MAX301056getRedEv) refers to max30105.o(i._ZN8MAX301059safeCheckEh) for MAX30105::safeCheck(unsigned char)
    max30105.o(i._ZN8MAX301056wakeUpEv) refers to max30105.o(i._ZN8MAX301057bitMaskEhhh) for MAX30105::bitMask(unsigned char, unsigned char, unsigned char)
    max30105.o(i._ZN8MAX301057bitMaskEhhh) refers to max30105.o(i._ZN8MAX3010513readRegister8Ehh) for MAX30105::readRegister8(unsigned char, unsigned char)
    max30105.o(i._ZN8MAX301057bitMaskEhhh) refers to max30105.o(i._ZN8MAX3010514writeRegister8Ehhh) for MAX30105::writeRegister8(unsigned char, unsigned char, unsigned char)
    max30105.o(i._ZN8MAX301057getINT1Ev) refers to max30105.o(i._ZN8MAX3010513readRegister8Ehh) for MAX30105::readRegister8(unsigned char, unsigned char)
    max30105.o(i._ZN8MAX301057getINT2Ev) refers to max30105.o(i._ZN8MAX3010513readRegister8Ehh) for MAX30105::readRegister8(unsigned char, unsigned char)
    max30105.o(i._ZN8MAX301058getGreenEv) refers to max30105.o(i._ZN8MAX301059safeCheckEh) for MAX30105::safeCheck(unsigned char)
    max30105.o(i._ZN8MAX301058shutDownEv) refers to max30105.o(i._ZN8MAX301057bitMaskEhhh) for MAX30105::bitMask(unsigned char, unsigned char, unsigned char)
    max30105.o(i._ZN8MAX301059clearFIFOEv) refers to max30105.o(i._ZN8MAX3010514writeRegister8Ehhh) for MAX30105::writeRegister8(unsigned char, unsigned char, unsigned char)
    max30105.o(i._ZN8MAX301059safeCheckEh) refers to delay.o(i.millis) for millis
    max30105.o(i._ZN8MAX301059safeCheckEh) refers to max30105.o(i._ZN8MAX301055checkEv) for MAX30105::check()
    max30105.o(i._ZN8MAX301059safeCheckEh) refers to delay.o(i.delay_ms) for delay_ms
    max30105.o(i._ZN8MAX301059softResetEv) refers to max30105.o(i._ZN8MAX301057bitMaskEhhh) for MAX30105::bitMask(unsigned char, unsigned char, unsigned char)
    max30105.o(i._ZN8MAX301059softResetEv) refers to delay.o(i.millis) for millis
    max30105.o(i._ZN8MAX301059softResetEv) refers to max30105.o(i._ZN8MAX3010513readRegister8Ehh) for MAX30105::readRegister8(unsigned char, unsigned char)
    max30105.o(i._ZN8MAX301059softResetEv) refers to delay.o(i.delay_ms) for delay_ms
    max30105.o(.ARM.exidx) refers to max30105.o(i._ZN8MAX30105C1Ev) for i._ZN8MAX30105C1Ev
    max30105.o(.ARM.exidx) refers to max30105.o(i._ZN8MAX3010513readRegister8Ehh) for i._ZN8MAX3010513readRegister8Ehh
    max30105.o(.ARM.exidx) refers to max30105.o(i._ZN8MAX3010514readRevisionIDEv) for i._ZN8MAX3010514readRevisionIDEv
    max30105.o(.ARM.exidx) refers to max30105.o(i._ZN8MAX3010510readPartIDEv) for i._ZN8MAX3010510readPartIDEv
    max30105.o(.ARM.exidx) refers to max30105.o(i._ZN8MAX301055beginER7TwoWirejh) for i._ZN8MAX301055beginER7TwoWirejh
    max30105.o(.ARM.exidx) refers to max30105.o(i._ZN8MAX3010515getWritePointerEv) for i._ZN8MAX3010515getWritePointerEv
    max30105.o(.ARM.exidx) refers to max30105.o(i._ZN8MAX3010514getReadPointerEv) for i._ZN8MAX3010514getReadPointerEv
    max30105.o(.ARM.exidx) refers to max30105.o(i._ZN8MAX301055checkEv) for i._ZN8MAX301055checkEv
    max30105.o(.ARM.exidx) refers to max30105.o(i._ZN8MAX301059safeCheckEh) for i._ZN8MAX301059safeCheckEh
    max30105.o(.ARM.exidx) refers to max30105.o(i._ZN8MAX301056getRedEv) for i._ZN8MAX301056getRedEv
    max30105.o(.ARM.exidx) refers to max30105.o(i._ZN8MAX301055getIREv) for i._ZN8MAX301055getIREv
    max30105.o(.ARM.exidx) refers to max30105.o(i._ZN8MAX301058getGreenEv) for i._ZN8MAX301058getGreenEv
    max30105.o(.ARM.exidx) refers to max30105.o(i._ZN8MAX3010514writeRegister8Ehhh) for i._ZN8MAX3010514writeRegister8Ehhh
    max30105.o(.ARM.exidx) refers to max30105.o(i._ZN8MAX301057bitMaskEhhh) for i._ZN8MAX301057bitMaskEhhh
    max30105.o(.ARM.exidx) refers to max30105.o(i._ZN8MAX301059softResetEv) for i._ZN8MAX301059softResetEv
    max30105.o(.ARM.exidx) refers to max30105.o(i._ZN8MAX301058shutDownEv) for i._ZN8MAX301058shutDownEv
    max30105.o(.ARM.exidx) refers to max30105.o(i._ZN8MAX301056wakeUpEv) for i._ZN8MAX301056wakeUpEv
    max30105.o(.ARM.exidx) refers to max30105.o(i._ZN8MAX3010510setLEDModeEh) for i._ZN8MAX3010510setLEDModeEh
    max30105.o(.ARM.exidx) refers to max30105.o(i._ZN8MAX3010511setADCRangeEh) for i._ZN8MAX3010511setADCRangeEh
    max30105.o(.ARM.exidx) refers to max30105.o(i._ZN8MAX3010513setSampleRateEh) for i._ZN8MAX3010513setSampleRateEh
    max30105.o(.ARM.exidx) refers to max30105.o(i._ZN8MAX3010513setPulseWidthEh) for i._ZN8MAX3010513setPulseWidthEh
    max30105.o(.ARM.exidx) refers to max30105.o(i._ZN8MAX3010520setPulseAmplitudeRedEh) for i._ZN8MAX3010520setPulseAmplitudeRedEh
    max30105.o(.ARM.exidx) refers to max30105.o(i._ZN8MAX3010519setPulseAmplitudeIREh) for i._ZN8MAX3010519setPulseAmplitudeIREh
    max30105.o(.ARM.exidx) refers to max30105.o(i._ZN8MAX3010522setPulseAmplitudeGreenEh) for i._ZN8MAX3010522setPulseAmplitudeGreenEh
    max30105.o(.ARM.exidx) refers to max30105.o(i._ZN8MAX3010526setPulseAmplitudeProximityEh) for i._ZN8MAX3010526setPulseAmplitudeProximityEh
    max30105.o(.ARM.exidx) refers to max30105.o(i._ZN8MAX3010521setProximityThresholdEh) for i._ZN8MAX3010521setProximityThresholdEh
    max30105.o(.ARM.exidx) refers to max30105.o(i._ZN8MAX3010510enableSlotEhh) for i._ZN8MAX3010510enableSlotEhh
    max30105.o(.ARM.exidx) refers to max30105.o(i._ZN8MAX3010512disableSlotsEv) for i._ZN8MAX3010512disableSlotsEv
    max30105.o(.ARM.exidx) refers to max30105.o(i._ZN8MAX301057getINT1Ev) for i._ZN8MAX301057getINT1Ev
    max30105.o(.ARM.exidx) refers to max30105.o(i._ZN8MAX301057getINT2Ev) for i._ZN8MAX301057getINT2Ev
    max30105.o(.ARM.exidx) refers to max30105.o(i._ZN8MAX3010511enableAFULLEv) for i._ZN8MAX3010511enableAFULLEv
    max30105.o(.ARM.exidx) refers to max30105.o(i._ZN8MAX3010512disableAFULLEv) for i._ZN8MAX3010512disableAFULLEv
    max30105.o(.ARM.exidx) refers to max30105.o(i._ZN8MAX3010513enableDATARDYEv) for i._ZN8MAX3010513enableDATARDYEv
    max30105.o(.ARM.exidx) refers to max30105.o(i._ZN8MAX3010514disableDATARDYEv) for i._ZN8MAX3010514disableDATARDYEv
    max30105.o(.ARM.exidx) refers to max30105.o(i._ZN8MAX3010512enableALCOVFEv) for i._ZN8MAX3010512enableALCOVFEv
    max30105.o(.ARM.exidx) refers to max30105.o(i._ZN8MAX3010513disableALCOVFEv) for i._ZN8MAX3010513disableALCOVFEv
    max30105.o(.ARM.exidx) refers to max30105.o(i._ZN8MAX3010513enablePROXINTEv) for i._ZN8MAX3010513enablePROXINTEv
    max30105.o(.ARM.exidx) refers to max30105.o(i._ZN8MAX3010514disablePROXINTEv) for i._ZN8MAX3010514disablePROXINTEv
    max30105.o(.ARM.exidx) refers to max30105.o(i._ZN8MAX3010516enableDIETEMPRDYEv) for i._ZN8MAX3010516enableDIETEMPRDYEv
    max30105.o(.ARM.exidx) refers to max30105.o(i._ZN8MAX3010517disableDIETEMPRDYEv) for i._ZN8MAX3010517disableDIETEMPRDYEv
    max30105.o(.ARM.exidx) refers to max30105.o(i._ZN8MAX3010514setFIFOAverageEh) for i._ZN8MAX3010514setFIFOAverageEh
    max30105.o(.ARM.exidx) refers to max30105.o(i._ZN8MAX3010518enableFIFORolloverEv) for i._ZN8MAX3010518enableFIFORolloverEv
    max30105.o(.ARM.exidx) refers to max30105.o(i._ZN8MAX3010519disableFIFORolloverEv) for i._ZN8MAX3010519disableFIFORolloverEv
    max30105.o(.ARM.exidx) refers to max30105.o(i._ZN8MAX3010517setFIFOAlmostFullEh) for i._ZN8MAX3010517setFIFOAlmostFullEh
    max30105.o(.ARM.exidx) refers to max30105.o(i._ZN8MAX301059availableEv) for i._ZN8MAX301059availableEv
    max30105.o(.ARM.exidx) refers to max30105.o(i._ZN8MAX3010510nextSampleEv) for i._ZN8MAX3010510nextSampleEv
    max30105.o(.ARM.exidx) refers to max30105.o(i._ZN8MAX3010510getFIFORedEv) for i._ZN8MAX3010510getFIFORedEv
    max30105.o(.ARM.exidx) refers to max30105.o(i._ZN8MAX301059getFIFOIREv) for i._ZN8MAX301059getFIFOIREv
    max30105.o(.ARM.exidx) refers to max30105.o(i._ZN8MAX3010512getFIFOGreenEv) for i._ZN8MAX3010512getFIFOGreenEv
    max30105.o(.ARM.exidx) refers to max30105.o(i._ZN8MAX301059clearFIFOEv) for i._ZN8MAX301059clearFIFOEv
    max30105.o(.ARM.exidx) refers to max30105.o(i._ZN8MAX3010516setPROXINTTHRESHEh) for i._ZN8MAX3010516setPROXINTTHRESHEh
    max30105.o(.ARM.exidx) refers to max30105.o(i._ZN8MAX3010515readTemperatureEv) for i._ZN8MAX3010515readTemperatureEv
    max30105.o(.ARM.exidx) refers to max30105.o(i._ZN8MAX3010516readTemperatureFEv) for i._ZN8MAX3010516readTemperatureFEv
    max30105.o(.ARM.exidx) refers to max30105.o(i._ZN8MAX3010513getRevisionIDEv) for i._ZN8MAX3010513getRevisionIDEv
    max30105.o(.ARM.exidx) refers to max30105.o(i._ZN8MAX301055setupEhhhiii) for i._ZN8MAX301055setupEhhhiii
    heartrate.o(i._Z12checkForBeati) refers to heartrate.o(i._Z18averageDCEstimatorPit) for averageDCEstimator(int*, unsigned short)
    heartrate.o(i._Z12checkForBeati) refers to heartrate.o(i._Z16lowPassFIRFilters) for lowPassFIRFilter(short)
    heartrate.o(i._Z12checkForBeati) refers to heartrate.o(.data) for .data
    heartrate.o(i._Z16lowPassFIRFilters) refers to heartrate.o(.bss) for .bss
    heartrate.o(i._Z16lowPassFIRFilters) refers to heartrate.o(.data) for .data
    heartrate.o(i._Z16lowPassFIRFilters) refers to heartrate.o(.constdata) for .constdata
    heartrate.o(.ARM.exidx) refers to heartrate.o(i._Z16lowPassFIRFilters) for i._Z16lowPassFIRFilters
    heartrate.o(.ARM.exidx) refers to heartrate.o(i._Z18averageDCEstimatorPit) for i._Z18averageDCEstimatorPit
    heartrate.o(.ARM.exidx) refers to heartrate.o(i._Z12checkForBeati) for i._Z12checkForBeati
    heartrate.o(.ARM.exidx) refers to heartrate.o(i._Z5mul16ss) for i._Z5mul16ss
    spo2_algorithm.o(i._Z16maxim_find_peaksPiS_S_iiii) refers to spo2_algorithm.o(i._Z28maxim_peaks_above_min_heightPiS_S_ii) for maxim_peaks_above_min_height(int*, int*, int*, int, int)
    spo2_algorithm.o(i._Z16maxim_find_peaksPiS_S_iiii) refers to spo2_algorithm.o(i._Z24maxim_remove_close_peaksPiS_S_i) for maxim_remove_close_peaks(int*, int*, int*, int)
    spo2_algorithm.o(i._Z24maxim_remove_close_peaksPiS_S_i) refers to spo2_algorithm.o(i._Z26maxim_sort_indices_descendPiS_i) for maxim_sort_indices_descend(int*, int*, int)
    spo2_algorithm.o(i._Z24maxim_remove_close_peaksPiS_S_i) refers to spo2_algorithm.o(i._Z17maxim_sort_ascendPii) for maxim_sort_ascend(int*, int)
    spo2_algorithm.o(i._Z38maxim_heart_rate_and_oxygen_saturationPjiS_PiPaS0_S1_) refers to spo2_algorithm.o(i._Z16maxim_find_peaksPiS_S_iiii) for maxim_find_peaks(int*, int*, int*, int, int, int, int)
    spo2_algorithm.o(i._Z38maxim_heart_rate_and_oxygen_saturationPjiS_PiPaS0_S1_) refers to spo2_algorithm.o(i._Z17maxim_sort_ascendPii) for maxim_sort_ascend(int*, int)
    spo2_algorithm.o(i._Z38maxim_heart_rate_and_oxygen_saturationPjiS_PiPaS0_S1_) refers to spo2_algorithm.o(.bss) for .bss
    spo2_algorithm.o(i._Z38maxim_heart_rate_and_oxygen_saturationPjiS_PiPaS0_S1_) refers to spo2_algorithm.o(.constdata) for .constdata
    spo2_algorithm.o(.ARM.exidx) refers to spo2_algorithm.o(i._Z17maxim_sort_ascendPii) for i._Z17maxim_sort_ascendPii
    spo2_algorithm.o(.ARM.exidx) refers to spo2_algorithm.o(i._Z26maxim_sort_indices_descendPiS_i) for i._Z26maxim_sort_indices_descendPiS_i
    spo2_algorithm.o(.ARM.exidx) refers to spo2_algorithm.o(i._Z24maxim_remove_close_peaksPiS_S_i) for i._Z24maxim_remove_close_peaksPiS_S_i
    spo2_algorithm.o(.ARM.exidx) refers to spo2_algorithm.o(i._Z28maxim_peaks_above_min_heightPiS_S_ii) for i._Z28maxim_peaks_above_min_heightPiS_S_ii
    spo2_algorithm.o(.ARM.exidx) refers to spo2_algorithm.o(i._Z16maxim_find_peaksPiS_S_iiii) for i._Z16maxim_find_peaksPiS_S_iiii
    spo2_algorithm.o(.ARM.exidx) refers to spo2_algorithm.o(i._Z38maxim_heart_rate_and_oxygen_saturationPjiS_PiPaS0_S1_) for i._Z38maxim_heart_rate_and_oxygen_saturationPjiS_PiPaS0_S1_
    arduino.o(i.analogRead) refers to adc.o(i.ADCx_GetValue) for ADCx_GetValue
    arduino.o(i.analogRead) refers to gpio.o(.constdata) for PIN_MAP
    arduino.o(i.analogRead_DMA) refers to adc.o(i.ADC_DMA_GetValue) for ADC_DMA_GetValue
    arduino.o(i.analogRead_DMA) refers to gpio.o(.constdata) for PIN_MAP
    arduino.o(i.analogWrite) refers to pwm.o(i.pwmWrite) for pwmWrite
    arduino.o(i.analogWrite) refers to gpio.o(.constdata) for PIN_MAP
    arduino.o(i.digitalRead) refers to gpio.o(.constdata) for PIN_MAP
    arduino.o(i.digitalWrite) refers to gpio.o(.constdata) for PIN_MAP
    arduino.o(i.fmap) refers to daddsub_clz.o(x$fpl$dsub) for __aeabi_dsub
    arduino.o(i.fmap) refers to dmul.o(x$fpl$dmul) for __aeabi_dmul
    arduino.o(i.fmap) refers to ddiv.o(x$fpl$ddiv) for __aeabi_ddiv
    arduino.o(i.fmap) refers to daddsub_clz.o(x$fpl$dadd) for __aeabi_dadd
    arduino.o(i.pinMode) refers to pwm.o(i.PWM_Init) for PWM_Init
    arduino.o(i.pinMode) refers to gpio.o(i.GPIOx_Init) for GPIOx_Init
    arduino.o(i.pinMode) refers to adc.o(i.ADC_DMA_Register) for ADC_DMA_Register
    arduino.o(i.pinMode) refers to gpio.o(.constdata) for PIN_MAP
    arduino.o(i.pulseIn) refers to lludivv7m.o(.text) for __aeabi_uldivmod
    arduino.o(i.pulseIn) refers to gpio.o(.constdata) for PIN_MAP
    arduino.o(i.pulseIn) refers to system_stm32f10x.o(.data) for SystemCoreClock
    arduino.o(i.shiftIn) refers to arduino.o(i.digitalRead) for digitalRead
    arduino.o(i.shiftIn) refers to gpio.o(.constdata) for PIN_MAP
    arduino.o(i.shiftOut) refers to arduino.o(i.digitalWrite) for digitalWrite
    arduino.o(i.shiftOut) refers to gpio.o(.constdata) for PIN_MAP
    dtostrf.o(i.dtostrf) refers to _printf_percent.o(.ARM.Collect$$_printf_percent$$00000000) for _printf_percent
    dtostrf.o(i.dtostrf) refers to _printf_d.o(.ARM.Collect$$_printf_percent$$00000009) for _printf_d
    dtostrf.o(i.dtostrf) refers to _printf_dec.o(.text) for _printf_int_dec
    dtostrf.o(i.dtostrf) refers to _printf_pad.o(.text) for _printf_pre_padding
    dtostrf.o(i.dtostrf) refers to _printf_f.o(.ARM.Collect$$_printf_percent$$00000003) for _printf_f
    dtostrf.o(i.dtostrf) refers to _printf_e.o(.ARM.Collect$$_printf_percent$$00000004) for _printf_e
    dtostrf.o(i.dtostrf) refers to _printf_g.o(.ARM.Collect$$_printf_percent$$00000005) for _printf_g
    dtostrf.o(i.dtostrf) refers to _printf_a.o(.ARM.Collect$$_printf_percent$$00000006) for _printf_a
    dtostrf.o(i.dtostrf) refers to printf2.o(x$fpl$printf2) for _printf_fp_hex
    dtostrf.o(i.dtostrf) refers to printf1.o(x$fpl$printf1) for _printf_fp_dec
    dtostrf.o(i.dtostrf) refers to __2sprintf.o(.text) for __2sprintf
    hardwareserial.o(i.USART1_IRQHandler) refers to hardwareserial.o(i._ZN14HardwareSerial10IRQHandlerEv) for HardwareSerial::IRQHandler()
    hardwareserial.o(i.USART1_IRQHandler) refers to hardwareserial.o(.bss) for .bss
    hardwareserial.o(i.USART2_IRQHandler) refers to hardwareserial.o(i._ZN14HardwareSerial10IRQHandlerEv) for HardwareSerial::IRQHandler()
    hardwareserial.o(i.USART2_IRQHandler) refers to hardwareserial.o(.bss) for .bss
    hardwareserial.o(i.USART3_IRQHandler) refers to hardwareserial.o(i._ZN14HardwareSerial10IRQHandlerEv) for HardwareSerial::IRQHandler()
    hardwareserial.o(i.USART3_IRQHandler) refers to hardwareserial.o(.bss) for .bss
    hardwareserial.o(i._ZN14HardwareSerial10IRQHandlerEv) refers to stm32f10x_usart.o(i.USART_GetITStatus) for USART_GetITStatus
    hardwareserial.o(i._ZN14HardwareSerial10IRQHandlerEv) refers to stm32f10x_usart.o(i.USART_ReceiveData) for USART_ReceiveData
    hardwareserial.o(i._ZN14HardwareSerial10IRQHandlerEv) refers to stm32f10x_usart.o(i.USART_ClearITPendingBit) for USART_ClearITPendingBit
    hardwareserial.o(i._ZN14HardwareSerial3endEv) refers to stm32f10x_usart.o(i.USART_Cmd) for USART_Cmd
    hardwareserial.o(i._ZN14HardwareSerial5beginEj) refers to hardwareserial.o(i._ZN14HardwareSerial5beginEj13SERIAL_Config) for HardwareSerial::begin(unsigned, SERIAL_Config)
    hardwareserial.o(i._ZN14HardwareSerial5beginEj13SERIAL_Config) refers to hardwareserial.o(i._ZN14HardwareSerial5beginEj13SERIAL_Confighh) for HardwareSerial::begin(unsigned, SERIAL_Config, unsigned char, unsigned char)
    hardwareserial.o(i._ZN14HardwareSerial5beginEj13SERIAL_Confighh) refers to stm32f10x_rcc.o(i.RCC_APB2PeriphClockCmd) for RCC_APB2PeriphClockCmd
    hardwareserial.o(i._ZN14HardwareSerial5beginEj13SERIAL_Confighh) refers to stm32f10x_rcc.o(i.RCC_APB1PeriphClockCmd) for RCC_APB1PeriphClockCmd
    hardwareserial.o(i._ZN14HardwareSerial5beginEj13SERIAL_Confighh) refers to stm32f10x_gpio.o(i.GPIO_Init) for GPIO_Init
    hardwareserial.o(i._ZN14HardwareSerial5beginEj13SERIAL_Confighh) refers to misc.o(i.NVIC_Init) for NVIC_Init
    hardwareserial.o(i._ZN14HardwareSerial5beginEj13SERIAL_Confighh) refers to stm32f10x_usart.o(i.USART_Init) for USART_Init
    hardwareserial.o(i._ZN14HardwareSerial5beginEj13SERIAL_Confighh) refers to stm32f10x_usart.o(i.USART_ITConfig) for USART_ITConfig
    hardwareserial.o(i._ZN14HardwareSerial5beginEj13SERIAL_Confighh) refers to stm32f10x_usart.o(i.USART_Cmd) for USART_Cmd
    hardwareserial.o(i._ZN14HardwareSerial5writeEh) refers to stm32f10x_usart.o(i.USART_GetFlagStatus) for USART_GetFlagStatus
    hardwareserial.o(i._ZN14HardwareSerial5writeEh) refers to stm32f10x_usart.o(i.USART_SendData) for USART_SendData
    hardwareserial.o(i._ZN14HardwareSerialC1EP13USART_TypeDef) refers to hardwareserial.o(.constdata__ZTV14HardwareSerial) for vtable for HardwareSerial
    hardwareserial.o(i.__sti___18_HardwareSerial_cpp_cfa1b6a6) refers to hardwareserial.o(i._ZN14HardwareSerialC1EP13USART_TypeDef) for HardwareSerial::HardwareSerial(USART_TypeDef*)
    hardwareserial.o(i.__sti___18_HardwareSerial_cpp_cfa1b6a6) refers to hardwareserial.o(.bss) for .bss
    hardwareserial.o(.ARM.exidx) refers to hardwareserial.o(i._ZN14HardwareSerial10IRQHandlerEv) for i._ZN14HardwareSerial10IRQHandlerEv
    hardwareserial.o(.ARM.exidx) refers to hardwareserial.o(i.USART1_IRQHandler) for i.USART1_IRQHandler
    hardwareserial.o(.ARM.exidx) refers to hardwareserial.o(i.USART2_IRQHandler) for i.USART2_IRQHandler
    hardwareserial.o(.ARM.exidx) refers to hardwareserial.o(i.USART3_IRQHandler) for i.USART3_IRQHandler
    hardwareserial.o(.ARM.exidx) refers to hardwareserial.o(i._ZN14HardwareSerialC1EP13USART_TypeDef) for i._ZN14HardwareSerialC1EP13USART_TypeDef
    hardwareserial.o(.ARM.exidx) refers to hardwareserial.o(i._ZN14HardwareSerial5beginEj13SERIAL_Confighh) for i._ZN14HardwareSerial5beginEj13SERIAL_Confighh
    hardwareserial.o(.ARM.exidx) refers to hardwareserial.o(i._ZN14HardwareSerial5beginEj13SERIAL_Config) for i._ZN14HardwareSerial5beginEj13SERIAL_Config
    hardwareserial.o(.ARM.exidx) refers to hardwareserial.o(i._ZN14HardwareSerial5beginEj) for i._ZN14HardwareSerial5beginEj
    hardwareserial.o(.ARM.exidx) refers to hardwareserial.o(i._ZN14HardwareSerial3endEv) for i._ZN14HardwareSerial3endEv
    hardwareserial.o(.ARM.exidx) refers to hardwareserial.o(i._ZN14HardwareSerial15attachInterruptEPFvvE) for i._ZN14HardwareSerial15attachInterruptEPFvvE
    hardwareserial.o(.ARM.exidx) refers to hardwareserial.o(i._ZN14HardwareSerial9availableEv) for i._ZN14HardwareSerial9availableEv
    hardwareserial.o(.ARM.exidx) refers to hardwareserial.o(i._ZN14HardwareSerial4peekEv) for i._ZN14HardwareSerial4peekEv
    hardwareserial.o(.ARM.exidx) refers to hardwareserial.o(i._ZN14HardwareSerial4readEv) for i._ZN14HardwareSerial4readEv
    hardwareserial.o(.ARM.exidx) refers to hardwareserial.o(i._ZN14HardwareSerial5flushEv) for i._ZN14HardwareSerial5flushEv
    hardwareserial.o(.ARM.exidx) refers to hardwareserial.o(i._ZN14HardwareSerial5writeEh) for i._ZN14HardwareSerial5writeEh
    hardwareserial.o(.ARM.exidx) refers to hardwareserial.o(i.__sti___18_HardwareSerial_cpp_cfa1b6a6) for i.__sti___18_HardwareSerial_cpp_cfa1b6a6
    hardwareserial.o(.init_array) refers to hardwareserial.o(i.__sti___18_HardwareSerial_cpp_cfa1b6a6) for __sti___18_HardwareSerial_cpp_cfa1b6a6
    hardwareserial.o(.init_array) refers to init_aeabi.o(.text) for __cpp_initialize__aeabi_
    itoa.o(i.itoa) refers to itoa.o(i.ltoa) for ltoa
    itoa.o(i.utoa) refers to itoa.o(i.ultoa) for ultoa
    print.o(i._ZN5Print10printFloatEdh) refers to drleqf.o(x$fpl$drleqf) for __aeabi_cdrcmple
    print.o(i._ZN5Print10printFloatEdh) refers to dleqf.o(x$fpl$dleqf) for __aeabi_cdcmple
    print.o(i._ZN5Print10printFloatEdh) refers to print.o(i._ZN5Print5printEc) for Print::print(char)
    print.o(i._ZN5Print10printFloatEdh) refers to print.o(i._ZN5Print5printEPKc) for Print::print(const char*)
    print.o(i._ZN5Print10printFloatEdh) refers to ddiv.o(x$fpl$ddiv) for __aeabi_ddiv
    print.o(i._ZN5Print10printFloatEdh) refers to daddsub_clz.o(x$fpl$dadd) for __aeabi_dadd
    print.o(i._ZN5Print10printFloatEdh) refers to dfixll.o(x$fpl$llsfromd) for __aeabi_d2lz
    print.o(i._ZN5Print10printFloatEdh) refers to dfltll_clz.o(x$fpl$dfltll) for __aeabi_l2d
    print.o(i._ZN5Print10printFloatEdh) refers to daddsub_clz.o(x$fpl$drsb) for __aeabi_drsub
    print.o(i._ZN5Print10printFloatEdh) refers to print.o(i._ZN5Print5printExi) for Print::print(long long, int)
    print.o(i._ZN5Print10printFloatEdh) refers to dmul.o(x$fpl$dmul) for __aeabi_dmul
    print.o(i._ZN5Print10printFloatEdh) refers to dfix.o(x$fpl$dfix) for __aeabi_d2iz
    print.o(i._ZN5Print10printFloatEdh) refers to print.o(i._ZN5Print5printEii) for Print::print(int, int)
    print.o(i._ZN5Print10printFloatEdh) refers to dflt_clz.o(x$fpl$dflt) for __aeabi_i2d
    print.o(i._ZN5Print11printNumberEyh) refers to print.o(i._ZN5Print5printEc) for Print::print(char)
    print.o(i._ZN5Print11printNumberEyh) refers to lludivv7m.o(.text) for __aeabi_uldivmod
    print.o(i._ZN5Print5printEdi) refers to print.o(i._ZN5Print10printFloatEdh) for Print::printFloat(double, unsigned char)
    print.o(i._ZN5Print5printEhi) refers to print.o(i._ZN5Print5printEyi) for Print::print(unsigned long long, int)
    print.o(i._ZN5Print5printEii) refers to print.o(i._ZN5Print5printExi) for Print::print(long long, int)
    print.o(i._ZN5Print5printEji) refers to print.o(i._ZN5Print5printEyi) for Print::print(unsigned long long, int)
    print.o(i._ZN5Print5printEli) refers to print.o(i._ZN5Print5printExi) for Print::print(long long, int)
    print.o(i._ZN5Print5printEmi) refers to print.o(i._ZN5Print5printEyi) for Print::print(unsigned long long, int)
    print.o(i._ZN5Print5printExi) refers to print.o(i._ZN5Print5printEc) for Print::print(char)
    print.o(i._ZN5Print5printExi) refers to print.o(i._ZN5Print11printNumberEyh) for Print::printNumber(unsigned long long, unsigned char)
    print.o(i._ZN5Print5printEyi) refers to print.o(i._ZN5Print11printNumberEyh) for Print::printNumber(unsigned long long, unsigned char)
    print.o(i._ZN5Print6printfEPKcz) refers to c89vsnprintf.o(.text) for __c89vsnprintf
    print.o(i._ZN5Print6printfEPKcz) refers to print.o(i._ZN5Print5printEPKc) for Print::print(const char*)
    print.o(i._ZN5Print7printlnEPK19__FlashStringHelper) refers to print.o(i._ZN5Print5printEPK19__FlashStringHelper) for Print::print(const __FlashStringHelper*)
    print.o(i._ZN5Print7printlnEPK19__FlashStringHelper) refers to print.o(i._ZN5Print7printlnEv) for Print::println()
    print.o(i._ZN5Print7printlnEPKc) refers to print.o(i._ZN5Print5printEPKc) for Print::print(const char*)
    print.o(i._ZN5Print7printlnEPKc) refers to print.o(i._ZN5Print7printlnEv) for Print::println()
    print.o(i._ZN5Print7printlnERK6String) refers to print.o(i._ZN5Print5printERK6String) for Print::print(const String&)
    print.o(i._ZN5Print7printlnERK6String) refers to print.o(i._ZN5Print7printlnEv) for Print::println()
    print.o(i._ZN5Print7printlnERK9Printable) refers to print.o(i._ZN5Print5printERK9Printable) for Print::print(const Printable&)
    print.o(i._ZN5Print7printlnERK9Printable) refers to print.o(i._ZN5Print7printlnEv) for Print::println()
    print.o(i._ZN5Print7printlnEc) refers to print.o(i._ZN5Print5printEc) for Print::print(char)
    print.o(i._ZN5Print7printlnEc) refers to print.o(i._ZN5Print7printlnEv) for Print::println()
    print.o(i._ZN5Print7printlnEdi) refers to print.o(i._ZN5Print5printEdi) for Print::print(double, int)
    print.o(i._ZN5Print7printlnEdi) refers to print.o(i._ZN5Print7printlnEv) for Print::println()
    print.o(i._ZN5Print7printlnEhi) refers to print.o(i._ZN5Print5printEhi) for Print::print(unsigned char, int)
    print.o(i._ZN5Print7printlnEhi) refers to print.o(i._ZN5Print7printlnEv) for Print::println()
    print.o(i._ZN5Print7printlnEii) refers to print.o(i._ZN5Print5printEii) for Print::print(int, int)
    print.o(i._ZN5Print7printlnEii) refers to print.o(i._ZN5Print7printlnEv) for Print::println()
    print.o(i._ZN5Print7printlnEji) refers to print.o(i._ZN5Print5printEji) for Print::print(unsigned, int)
    print.o(i._ZN5Print7printlnEji) refers to print.o(i._ZN5Print7printlnEv) for Print::println()
    print.o(i._ZN5Print7printlnEli) refers to print.o(i._ZN5Print5printExi) for Print::print(long long, int)
    print.o(i._ZN5Print7printlnEli) refers to print.o(i._ZN5Print7printlnEv) for Print::println()
    print.o(i._ZN5Print7printlnEmi) refers to print.o(i._ZN5Print5printEyi) for Print::print(unsigned long long, int)
    print.o(i._ZN5Print7printlnEmi) refers to print.o(i._ZN5Print7printlnEv) for Print::println()
    print.o(i._ZN5Print7printlnEv) refers to print.o(i._ZN5Print5printEc) for Print::print(char)
    print.o(i._ZN5Print7printlnExi) refers to print.o(i._ZN5Print5printExi) for Print::print(long long, int)
    print.o(i._ZN5Print7printlnExi) refers to print.o(i._ZN5Print7printlnEv) for Print::println()
    print.o(i._ZN5Print7printlnEyi) refers to print.o(i._ZN5Print5printEyi) for Print::print(unsigned long long, int)
    print.o(i._ZN5Print7printlnEyi) refers to print.o(i._ZN5Print7printlnEv) for Print::println()
    print.o(.ARM.exidx) refers to print.o(i._ZN5Print5writeEPKc) for i._ZN5Print5writeEPKc
    print.o(.ARM.exidx) refers to print.o(i._ZN5Print5writeEPKvj) for i._ZN5Print5writeEPKvj
    print.o(.ARM.exidx) refers to print.o(i._ZN5Print5printERK6String) for i._ZN5Print5printERK6String
    print.o(.ARM.exidx) refers to print.o(i._ZN5Print5printEc) for i._ZN5Print5printEc
    print.o(.ARM.exidx) refers to print.o(i._ZN5Print5printEPKc) for i._ZN5Print5printEPKc
    print.o(.ARM.exidx) refers to print.o(i._ZN5Print11printNumberEyh) for i._ZN5Print11printNumberEyh
    print.o(.ARM.exidx) refers to print.o(i._ZN5Print5printEyi) for i._ZN5Print5printEyi
    print.o(.ARM.exidx) refers to print.o(i._ZN5Print5printEhi) for i._ZN5Print5printEhi
    print.o(.ARM.exidx) refers to print.o(i._ZN5Print5printExi) for i._ZN5Print5printExi
    print.o(.ARM.exidx) refers to print.o(i._ZN5Print5printEii) for i._ZN5Print5printEii
    print.o(.ARM.exidx) refers to print.o(i._ZN5Print5printEji) for i._ZN5Print5printEji
    print.o(.ARM.exidx) refers to print.o(i._ZN5Print5printEli) for i._ZN5Print5printEli
    print.o(.ARM.exidx) refers to print.o(i._ZN5Print5printEmi) for i._ZN5Print5printEmi
    print.o(.ARM.exidx) refers to print.o(i._ZN5Print10printFloatEdh) for i._ZN5Print10printFloatEdh
    print.o(.ARM.exidx) refers to print.o(i._ZN5Print5printEdi) for i._ZN5Print5printEdi
    print.o(.ARM.exidx) refers to print.o(i._ZN5Print5printEPK19__FlashStringHelper) for i._ZN5Print5printEPK19__FlashStringHelper
    print.o(.ARM.exidx) refers to print.o(i._ZN5Print5printERK9Printable) for i._ZN5Print5printERK9Printable
    print.o(.ARM.exidx) refers to print.o(i._ZN5Print7printlnEv) for i._ZN5Print7printlnEv
    print.o(.ARM.exidx) refers to print.o(i._ZN5Print7printlnERK6String) for i._ZN5Print7printlnERK6String
    print.o(.ARM.exidx) refers to print.o(i._ZN5Print7printlnEc) for i._ZN5Print7printlnEc
    print.o(.ARM.exidx) refers to print.o(i._ZN5Print7printlnEPKc) for i._ZN5Print7printlnEPKc
    print.o(.ARM.exidx) refers to print.o(i._ZN5Print7printlnEhi) for i._ZN5Print7printlnEhi
    print.o(.ARM.exidx) refers to print.o(i._ZN5Print7printlnEii) for i._ZN5Print7printlnEii
    print.o(.ARM.exidx) refers to print.o(i._ZN5Print7printlnEji) for i._ZN5Print7printlnEji
    print.o(.ARM.exidx) refers to print.o(i._ZN5Print7printlnEli) for i._ZN5Print7printlnEli
    print.o(.ARM.exidx) refers to print.o(i._ZN5Print7printlnEmi) for i._ZN5Print7printlnEmi
    print.o(.ARM.exidx) refers to print.o(i._ZN5Print7printlnExi) for i._ZN5Print7printlnExi
    print.o(.ARM.exidx) refers to print.o(i._ZN5Print7printlnEyi) for i._ZN5Print7printlnEyi
    print.o(.ARM.exidx) refers to print.o(i._ZN5Print7printlnEdi) for i._ZN5Print7printlnEdi
    print.o(.ARM.exidx) refers to print.o(i._ZN5Print7printlnEPK19__FlashStringHelper) for i._ZN5Print7printlnEPK19__FlashStringHelper
    print.o(.ARM.exidx) refers to print.o(i._ZN5Print7printlnERK9Printable) for i._ZN5Print7printlnERK9Printable
    print.o(.ARM.exidx) refers to print.o(i._ZN5Print6printfEPKcz) for i._ZN5Print6printfEPKcz
    wstring.o(i._ZN6String10invalidateEv) refers to h1_free.o(.text) for free
    wstring.o(i._ZN6String11toLowerCaseEv) refers to tolower.o(.text) for tolower
    wstring.o(i._ZN6String11toUpperCaseEv) refers to toupper.o(.text) for toupper
    wstring.o(i._ZN6String12changeBufferEj) refers to h1_realloc.o(.text) for realloc
    wstring.o(i._ZN6String4copyEPK19__FlashStringHelperj) refers to wstring.o(i._ZN6String7reserveEj) for String::reserve(unsigned)
    wstring.o(i._ZN6String4copyEPK19__FlashStringHelperj) refers to strcpy.o(.text) for strcpy
    wstring.o(i._ZN6String4copyEPK19__FlashStringHelperj) refers to wstring.o(i._ZN6String10invalidateEv) for String::invalidate()
    wstring.o(i._ZN6String4copyEPKcj) refers to wstring.o(i._ZN6String7reserveEj) for String::reserve(unsigned)
    wstring.o(i._ZN6String4copyEPKcj) refers to strcpy.o(.text) for strcpy
    wstring.o(i._ZN6String4copyEPKcj) refers to wstring.o(i._ZN6String10invalidateEv) for String::invalidate()
    wstring.o(i._ZN6String4trimEv) refers to rt_ctype_table.o(.text) for __rt_ctype_table
    wstring.o(i._ZN6String4trimEv) refers to rt_memcpy_v6.o(.text) for __aeabi_memcpy
    wstring.o(i._ZN6String6concatEPK19__FlashStringHelper) refers to strlen.o(.text) for strlen
    wstring.o(i._ZN6String6concatEPK19__FlashStringHelper) refers to wstring.o(i._ZN6String7reserveEj) for String::reserve(unsigned)
    wstring.o(i._ZN6String6concatEPK19__FlashStringHelper) refers to strcpy.o(.text) for strcpy
    wstring.o(i._ZN6String6concatEPKc) refers to strlen.o(.text) for strlen
    wstring.o(i._ZN6String6concatEPKc) refers to wstring.o(i._ZN6String6concatEPKcj) for String::concat(const char*, unsigned)
    wstring.o(i._ZN6String6concatEPKcj) refers to wstring.o(i._ZN6String7reserveEj) for String::reserve(unsigned)
    wstring.o(i._ZN6String6concatEPKcj) refers to strcpy.o(.text) for strcpy
    wstring.o(i._ZN6String6concatERKS_) refers to wstring.o(i._ZN6String6concatEPKcj) for String::concat(const char*, unsigned)
    wstring.o(i._ZN6String6concatEc) refers to wstring.o(i._ZN6String6concatEPKcj) for String::concat(const char*, unsigned)
    wstring.o(i._ZN6String6concatEd) refers to dtostrf.o(i.dtostrf) for dtostrf
    wstring.o(i._ZN6String6concatEd) refers to strlen.o(.text) for strlen
    wstring.o(i._ZN6String6concatEd) refers to wstring.o(i._ZN6String6concatEPKcj) for String::concat(const char*, unsigned)
    wstring.o(i._ZN6String6concatEf) refers to f2d.o(x$fpl$f2d) for __aeabi_f2d
    wstring.o(i._ZN6String6concatEf) refers to dtostrf.o(i.dtostrf) for dtostrf
    wstring.o(i._ZN6String6concatEf) refers to strlen.o(.text) for strlen
    wstring.o(i._ZN6String6concatEf) refers to wstring.o(i._ZN6String6concatEPKcj) for String::concat(const char*, unsigned)
    wstring.o(i._ZN6String6concatEh) refers to itoa.o(i.itoa) for itoa
    wstring.o(i._ZN6String6concatEh) refers to strlen.o(.text) for strlen
    wstring.o(i._ZN6String6concatEh) refers to wstring.o(i._ZN6String6concatEPKcj) for String::concat(const char*, unsigned)
    wstring.o(i._ZN6String6concatEi) refers to itoa.o(i.itoa) for itoa
    wstring.o(i._ZN6String6concatEi) refers to strlen.o(.text) for strlen
    wstring.o(i._ZN6String6concatEi) refers to wstring.o(i._ZN6String6concatEPKcj) for String::concat(const char*, unsigned)
    wstring.o(i._ZN6String6concatEj) refers to itoa.o(i.utoa) for utoa
    wstring.o(i._ZN6String6concatEj) refers to strlen.o(.text) for strlen
    wstring.o(i._ZN6String6concatEj) refers to wstring.o(i._ZN6String6concatEPKcj) for String::concat(const char*, unsigned)
    wstring.o(i._ZN6String6concatEl) refers to itoa.o(i.ltoa) for ltoa
    wstring.o(i._ZN6String6concatEl) refers to strlen.o(.text) for strlen
    wstring.o(i._ZN6String6concatEl) refers to wstring.o(i._ZN6String6concatEPKcj) for String::concat(const char*, unsigned)
    wstring.o(i._ZN6String6concatEm) refers to itoa.o(i.ultoa) for ultoa
    wstring.o(i._ZN6String6concatEm) refers to strlen.o(.text) for strlen
    wstring.o(i._ZN6String6concatEm) refers to wstring.o(i._ZN6String6concatEPKcj) for String::concat(const char*, unsigned)
    wstring.o(i._ZN6String6removeEj) refers to wstring.o(i._ZN6String6removeEjj) for String::remove(unsigned, unsigned)
    wstring.o(i._ZN6String6removeEjj) refers to strncpy.o(.text) for strncpy
    wstring.o(i._ZN6String7replaceERKS_S1_) refers to rt_memcpy_v6.o(.text) for __aeabi_memcpy
    wstring.o(i._ZN6String7replaceERKS_S1_) refers to wstring.o(i._ZSt6strstrPcPKc) for std::strstr(char*, const char*)
    wstring.o(i._ZN6String7replaceERKS_S1_) refers to strcpy.o(.text) for strcpy
    wstring.o(i._ZN6String7replaceERKS_S1_) refers to wstring.o(i._ZN6String12changeBufferEj) for String::changeBuffer(unsigned)
    wstring.o(i._ZN6String7replaceERKS_S1_) refers to rt_memmove_v6.o(.text) for __aeabi_memmove
    wstring.o(i._ZN6String7replaceERKS_S1_) refers to wstring.o(i._ZNK6String11lastIndexOfERKS_j) for String::lastIndexOf(const String&, unsigned) const
    wstring.o(i._ZN6String7reserveEj) refers to wstring.o(i._ZN6String12changeBufferEj) for String::changeBuffer(unsigned)
    wstring.o(i._ZN6String7sprintfEPKcz) refers to c89vsnprintf.o(.text) for __c89vsnprintf
    wstring.o(i._ZN6String7sprintfEPKcz) refers to strlen.o(.text) for strlen
    wstring.o(i._ZN6String7sprintfEPKcz) refers to wstring.o(i._ZN6String4copyEPKcj) for String::copy(const char*, unsigned)
    wstring.o(i._ZN6StringC1EPK19__FlashStringHelper) refers to wstring.o(i._ZN6String4initEv) for String::init()
    wstring.o(i._ZN6StringC1EPK19__FlashStringHelper) refers to wstring.o(i._ZN6StringaSEPK19__FlashStringHelper) for String::operator =(const __FlashStringHelper*)
    wstring.o(i._ZN6StringC1EPKc) refers to wstring.o(i._ZN6String4initEv) for String::init()
    wstring.o(i._ZN6StringC1EPKc) refers to strlen.o(.text) for strlen
    wstring.o(i._ZN6StringC1EPKc) refers to wstring.o(i._ZN6String4copyEPKcj) for String::copy(const char*, unsigned)
    wstring.o(i._ZN6StringC1ERKS_) refers to wstring.o(i._ZN6String4initEv) for String::init()
    wstring.o(i._ZN6StringC1ERKS_) refers to wstring.o(i._ZN6StringaSERKS_) for String::operator =(const String&)
    wstring.o(i._ZN6StringC1Ec) refers to wstring.o(i._ZN6String4initEv) for String::init()
    wstring.o(i._ZN6StringC1Ec) refers to wstring.o(i._ZN6StringaSEPKc) for String::operator =(const char*)
    wstring.o(i._ZN6StringC1Edh) refers to wstring.o(i._ZN6String4initEv) for String::init()
    wstring.o(i._ZN6StringC1Edh) refers to dtostrf.o(i.dtostrf) for dtostrf
    wstring.o(i._ZN6StringC1Edh) refers to wstring.o(i._ZN6StringaSEPKc) for String::operator =(const char*)
    wstring.o(i._ZN6StringC1Efh) refers to wstring.o(i._ZN6String4initEv) for String::init()
    wstring.o(i._ZN6StringC1Efh) refers to f2d.o(x$fpl$f2d) for __aeabi_f2d
    wstring.o(i._ZN6StringC1Efh) refers to dtostrf.o(i.dtostrf) for dtostrf
    wstring.o(i._ZN6StringC1Efh) refers to wstring.o(i._ZN6StringaSEPKc) for String::operator =(const char*)
    wstring.o(i._ZN6StringC1Ehh) refers to wstring.o(i._ZN6String4initEv) for String::init()
    wstring.o(i._ZN6StringC1Ehh) refers to itoa.o(i.utoa) for utoa
    wstring.o(i._ZN6StringC1Ehh) refers to wstring.o(i._ZN6StringaSEPKc) for String::operator =(const char*)
    wstring.o(i._ZN6StringC1Eih) refers to wstring.o(i._ZN6String4initEv) for String::init()
    wstring.o(i._ZN6StringC1Eih) refers to itoa.o(i.itoa) for itoa
    wstring.o(i._ZN6StringC1Eih) refers to wstring.o(i._ZN6StringaSEPKc) for String::operator =(const char*)
    wstring.o(i._ZN6StringC1Ejh) refers to wstring.o(i._ZN6String4initEv) for String::init()
    wstring.o(i._ZN6StringC1Ejh) refers to itoa.o(i.utoa) for utoa
    wstring.o(i._ZN6StringC1Ejh) refers to wstring.o(i._ZN6StringaSEPKc) for String::operator =(const char*)
    wstring.o(i._ZN6StringC1Elh) refers to wstring.o(i._ZN6String4initEv) for String::init()
    wstring.o(i._ZN6StringC1Elh) refers to itoa.o(i.ltoa) for ltoa
    wstring.o(i._ZN6StringC1Elh) refers to wstring.o(i._ZN6StringaSEPKc) for String::operator =(const char*)
    wstring.o(i._ZN6StringC1Emh) refers to wstring.o(i._ZN6String4initEv) for String::init()
    wstring.o(i._ZN6StringC1Emh) refers to itoa.o(i.ultoa) for ultoa
    wstring.o(i._ZN6StringC1Emh) refers to wstring.o(i._ZN6StringaSEPKc) for String::operator =(const char*)
    wstring.o(i._ZN6StringD1Ev) refers to h1_free.o(.text) for free
    wstring.o(i._ZN6StringaSEPK19__FlashStringHelper) refers to strlen.o(.text) for strlen
    wstring.o(i._ZN6StringaSEPK19__FlashStringHelper) refers to wstring.o(i._ZN6String4copyEPK19__FlashStringHelperj) for String::copy(const __FlashStringHelper*, unsigned)
    wstring.o(i._ZN6StringaSEPK19__FlashStringHelper) refers to wstring.o(i._ZN6String10invalidateEv) for String::invalidate()
    wstring.o(i._ZN6StringaSEPKc) refers to strlen.o(.text) for strlen
    wstring.o(i._ZN6StringaSEPKc) refers to wstring.o(i._ZN6String4copyEPKcj) for String::copy(const char*, unsigned)
    wstring.o(i._ZN6StringaSEPKc) refers to wstring.o(i._ZN6String10invalidateEv) for String::invalidate()
    wstring.o(i._ZN6StringaSERKS_) refers to wstring.o(i._ZN6String4copyEPKcj) for String::copy(const char*, unsigned)
    wstring.o(i._ZN6StringaSERKS_) refers to wstring.o(i._ZN6String10invalidateEv) for String::invalidate()
    wstring.o(i._ZN6StringixEj) refers to wstring.o(.data) for .data
    wstring.o(i._ZNK6String10startsWithERKS_) refers to wstring.o(i._ZNK6String10startsWithERKS_j) for String::startsWith(const String&, unsigned) const
    wstring.o(i._ZNK6String10startsWithERKS_j) refers to strncmp.o(.text) for strncmp
    wstring.o(i._ZNK6String11lastIndexOfERKS_) refers to wstring.o(i._ZNK6String11lastIndexOfERKS_j) for String::lastIndexOf(const String&, unsigned) const
    wstring.o(i._ZNK6String11lastIndexOfERKS_j) refers to wstring.o(i._ZSt6strstrPcPKc) for std::strstr(char*, const char*)
    wstring.o(i._ZNK6String11lastIndexOfEc) refers to wstring.o(i._ZNK6String11lastIndexOfEcj) for String::lastIndexOf(char, unsigned) const
    wstring.o(i._ZNK6String11lastIndexOfEcj) refers to strrchr.o(.text) for strrchr
    wstring.o(i._ZNK6String16equalsIgnoreCaseERKS_) refers to tolower.o(.text) for tolower
    wstring.o(i._ZNK6String5toIntEv) refers to atol.o(.text) for atol
    wstring.o(i._ZNK6String6charAtEj) refers to wstring.o(i._ZNK6StringixEj) for String::operator [](unsigned) const
    wstring.o(i._ZNK6String6equalsEPKc) refers to strcmpv7m.o(.text) for strcmp
    wstring.o(i._ZNK6String6equalsERKS_) refers to wstring.o(i._ZNK6String9compareToERKS_) for String::compareTo(const String&) const
    wstring.o(i._ZNK6String7indexOfERKS_) refers to wstring.o(i._ZNK6String7indexOfERKS_j) for String::indexOf(const String&, unsigned) const
    wstring.o(i._ZNK6String7indexOfERKS_j) refers to wstring.o(i._ZSt6strstrPcPKc) for std::strstr(char*, const char*)
    wstring.o(i._ZNK6String7indexOfEc) refers to wstring.o(i._ZNK6String7indexOfEcj) for String::indexOf(char, unsigned) const
    wstring.o(i._ZNK6String7indexOfEcj) refers to strchr.o(.text) for strchr
    wstring.o(i._ZNK6String7toFloatEv) refers to atof.o(i.atof) for atof
    wstring.o(i._ZNK6String7toFloatEv) refers to d2f.o(x$fpl$d2f) for __aeabi_d2f
    wstring.o(i._ZNK6String8endsWithERKS_) refers to strcmpv7m.o(.text) for strcmp
    wstring.o(i._ZNK6String8getBytesEPhjj) refers to strncpy.o(.text) for strncpy
    wstring.o(i._ZNK6String9compareToERKS_) refers to strcmpv7m.o(.text) for strcmp
    wstring.o(i._ZNK6String9substringEjj) refers to wstring.o(i._ZN6StringC1EPKc) for String::String(const char*)
    wstring.o(i._ZNK6String9substringEjj) refers to wstring.o(i._ZN6StringaSEPKc) for String::operator =(const char*)
    wstring.o(i._ZNK6StringgeERKS_) refers to wstring.o(i._ZNK6String9compareToERKS_) for String::compareTo(const String&) const
    wstring.o(i._ZNK6StringgtERKS_) refers to wstring.o(i._ZNK6String9compareToERKS_) for String::compareTo(const String&) const
    wstring.o(i._ZNK6StringleERKS_) refers to wstring.o(i._ZNK6String9compareToERKS_) for String::compareTo(const String&) const
    wstring.o(i._ZNK6StringltERKS_) refers to wstring.o(i._ZNK6String9compareToERKS_) for String::compareTo(const String&) const
    wstring.o(i._ZplRK15StringSumHelperPK19__FlashStringHelper) refers to wstring.o(i._ZN6String6concatEPK19__FlashStringHelper) for String::concat(const __FlashStringHelper*)
    wstring.o(i._ZplRK15StringSumHelperPK19__FlashStringHelper) refers to wstring.o(i._ZN6String10invalidateEv) for String::invalidate()
    wstring.o(i._ZplRK15StringSumHelperPKc) refers to strlen.o(.text) for strlen
    wstring.o(i._ZplRK15StringSumHelperPKc) refers to wstring.o(i._ZN6String6concatEPKcj) for String::concat(const char*, unsigned)
    wstring.o(i._ZplRK15StringSumHelperPKc) refers to wstring.o(i._ZN6String10invalidateEv) for String::invalidate()
    wstring.o(i._ZplRK15StringSumHelperRK6String) refers to wstring.o(i._ZN6String6concatEPKcj) for String::concat(const char*, unsigned)
    wstring.o(i._ZplRK15StringSumHelperRK6String) refers to wstring.o(i._ZN6String10invalidateEv) for String::invalidate()
    wstring.o(i._ZplRK15StringSumHelperc) refers to wstring.o(i._ZN6String6concatEc) for String::concat(char)
    wstring.o(i._ZplRK15StringSumHelperc) refers to wstring.o(i._ZN6String10invalidateEv) for String::invalidate()
    wstring.o(i._ZplRK15StringSumHelperd) refers to wstring.o(i._ZN6String6concatEd) for String::concat(double)
    wstring.o(i._ZplRK15StringSumHelperd) refers to wstring.o(i._ZN6String10invalidateEv) for String::invalidate()
    wstring.o(i._ZplRK15StringSumHelperf) refers to wstring.o(i._ZN6String6concatEf) for String::concat(float)
    wstring.o(i._ZplRK15StringSumHelperf) refers to wstring.o(i._ZN6String10invalidateEv) for String::invalidate()
    wstring.o(i._ZplRK15StringSumHelperh) refers to wstring.o(i._ZN6String6concatEh) for String::concat(unsigned char)
    wstring.o(i._ZplRK15StringSumHelperh) refers to wstring.o(i._ZN6String10invalidateEv) for String::invalidate()
    wstring.o(i._ZplRK15StringSumHelperi) refers to wstring.o(i._ZN6String6concatEi) for String::concat(int)
    wstring.o(i._ZplRK15StringSumHelperi) refers to wstring.o(i._ZN6String10invalidateEv) for String::invalidate()
    wstring.o(i._ZplRK15StringSumHelperj) refers to wstring.o(i._ZN6String6concatEj) for String::concat(unsigned)
    wstring.o(i._ZplRK15StringSumHelperj) refers to wstring.o(i._ZN6String10invalidateEv) for String::invalidate()
    wstring.o(i._ZplRK15StringSumHelperl) refers to wstring.o(i._ZN6String6concatEl) for String::concat(long)
    wstring.o(i._ZplRK15StringSumHelperl) refers to wstring.o(i._ZN6String10invalidateEv) for String::invalidate()
    wstring.o(i._ZplRK15StringSumHelperm) refers to wstring.o(i._ZN6String6concatEm) for String::concat(unsigned long)
    wstring.o(i._ZplRK15StringSumHelperm) refers to wstring.o(i._ZN6String10invalidateEv) for String::invalidate()
    wstring.o(.ARM.exidx) refers to wstring.o(i._ZN6String10invalidateEv) for i._ZN6String10invalidateEv
    wstring.o(.ARM.exidx) refers to wstring.o(i._ZN6String12changeBufferEj) for i._ZN6String12changeBufferEj
    wstring.o(.ARM.exidx) refers to wstring.o(i._ZN6String7reserveEj) for i._ZN6String7reserveEj
    wstring.o(.ARM.exidx) refers to wstring.o(i._ZN6String6concatEPKcj) for i._ZN6String6concatEPKcj
    wstring.o(.ARM.exidx) refers to wstring.o(i._ZplRK15StringSumHelperRK6String) for i._ZplRK15StringSumHelperRK6String
    wstring.o(.ARM.exidx) refers to wstring.o(i._ZplRK15StringSumHelperPKc) for i._ZplRK15StringSumHelperPKc
    wstring.o(.ARM.exidx) refers to wstring.o(i._ZN6String6concatEc) for i._ZN6String6concatEc
    wstring.o(.ARM.exidx) refers to wstring.o(i._ZplRK15StringSumHelperc) for i._ZplRK15StringSumHelperc
    wstring.o(.ARM.exidx) refers to wstring.o(i._ZN6String6concatEh) for i._ZN6String6concatEh
    wstring.o(.ARM.exidx) refers to wstring.o(i._ZplRK15StringSumHelperh) for i._ZplRK15StringSumHelperh
    wstring.o(.ARM.exidx) refers to wstring.o(i._ZN6String6concatEi) for i._ZN6String6concatEi
    wstring.o(.ARM.exidx) refers to wstring.o(i._ZplRK15StringSumHelperi) for i._ZplRK15StringSumHelperi
    wstring.o(.ARM.exidx) refers to wstring.o(i._ZN6String6concatEj) for i._ZN6String6concatEj
    wstring.o(.ARM.exidx) refers to wstring.o(i._ZplRK15StringSumHelperj) for i._ZplRK15StringSumHelperj
    wstring.o(.ARM.exidx) refers to wstring.o(i._ZN6String6concatEl) for i._ZN6String6concatEl
    wstring.o(.ARM.exidx) refers to wstring.o(i._ZplRK15StringSumHelperl) for i._ZplRK15StringSumHelperl
    wstring.o(.ARM.exidx) refers to wstring.o(i._ZN6String6concatEm) for i._ZN6String6concatEm
    wstring.o(.ARM.exidx) refers to wstring.o(i._ZplRK15StringSumHelperm) for i._ZplRK15StringSumHelperm
    wstring.o(.ARM.exidx) refers to wstring.o(i._ZN6String6concatEf) for i._ZN6String6concatEf
    wstring.o(.ARM.exidx) refers to wstring.o(i._ZplRK15StringSumHelperf) for i._ZplRK15StringSumHelperf
    wstring.o(.ARM.exidx) refers to wstring.o(i._ZN6String6concatEd) for i._ZN6String6concatEd
    wstring.o(.ARM.exidx) refers to wstring.o(i._ZplRK15StringSumHelperd) for i._ZplRK15StringSumHelperd
    wstring.o(.ARM.exidx) refers to wstring.o(i._ZN6String6concatEPK19__FlashStringHelper) for i._ZN6String6concatEPK19__FlashStringHelper
    wstring.o(.ARM.exidx) refers to wstring.o(i._ZplRK15StringSumHelperPK19__FlashStringHelper) for i._ZplRK15StringSumHelperPK19__FlashStringHelper
    wstring.o(.ARM.exidx) refers to wstring.o(i._ZN6String4copyEPKcj) for i._ZN6String4copyEPKcj
    wstring.o(.ARM.exidx) refers to wstring.o(i._ZN6StringC1EPKc) for i._ZN6StringC1EPKc
    wstring.o(.ARM.exidx) refers to wstring.o(i._ZN6StringaSERKS_) for i._ZN6StringaSERKS_
    wstring.o(.ARM.exidx) refers to wstring.o(i._ZN6StringC1ERKS_) for i._ZN6StringC1ERKS_
    wstring.o(.ARM.exidx) refers to wstring.o(i._ZN6String4copyEPK19__FlashStringHelperj) for i._ZN6String4copyEPK19__FlashStringHelperj
    wstring.o(.ARM.exidx) refers to wstring.o(i._ZN6StringaSEPK19__FlashStringHelper) for i._ZN6StringaSEPK19__FlashStringHelper
    wstring.o(.ARM.exidx) refers to wstring.o(i._ZN6StringC1EPK19__FlashStringHelper) for i._ZN6StringC1EPK19__FlashStringHelper
    wstring.o(.ARM.exidx) refers to wstring.o(i._ZN6StringaSEPKc) for i._ZN6StringaSEPKc
    wstring.o(.ARM.exidx) refers to wstring.o(i._ZN6StringC1Ec) for i._ZN6StringC1Ec
    wstring.o(.ARM.exidx) refers to wstring.o(i._ZN6StringC1Ehh) for i._ZN6StringC1Ehh
    wstring.o(.ARM.exidx) refers to wstring.o(i._ZN6StringC1Eih) for i._ZN6StringC1Eih
    wstring.o(.ARM.exidx) refers to wstring.o(i._ZN6StringC1Ejh) for i._ZN6StringC1Ejh
    wstring.o(.ARM.exidx) refers to wstring.o(i._ZN6StringC1Elh) for i._ZN6StringC1Elh
    wstring.o(.ARM.exidx) refers to wstring.o(i._ZN6StringC1Emh) for i._ZN6StringC1Emh
    wstring.o(.ARM.exidx) refers to wstring.o(i._ZN6StringC1Efh) for i._ZN6StringC1Efh
    wstring.o(.ARM.exidx) refers to wstring.o(i._ZN6StringC1Edh) for i._ZN6StringC1Edh
    wstring.o(.ARM.exidx) refers to wstring.o(i._ZN6StringD1Ev) for i._ZN6StringD1Ev
    wstring.o(.ARM.exidx) refers to wstring.o(i._ZN6String6concatERKS_) for i._ZN6String6concatERKS_
    wstring.o(.ARM.exidx) refers to wstring.o(i._ZN6String6concatEPKc) for i._ZN6String6concatEPKc
    wstring.o(.ARM.exidx) refers to wstring.o(i._ZNK6String9compareToERKS_) for i._ZNK6String9compareToERKS_
    wstring.o(.ARM.exidx) refers to wstring.o(i._ZNK6String6equalsERKS_) for i._ZNK6String6equalsERKS_
    wstring.o(.ARM.exidx) refers to wstring.o(i._ZNK6String6equalsEPKc) for i._ZNK6String6equalsEPKc
    wstring.o(.ARM.exidx) refers to wstring.o(i._ZNK6StringltERKS_) for i._ZNK6StringltERKS_
    wstring.o(.ARM.exidx) refers to wstring.o(i._ZNK6StringgtERKS_) for i._ZNK6StringgtERKS_
    wstring.o(.ARM.exidx) refers to wstring.o(i._ZNK6StringleERKS_) for i._ZNK6StringleERKS_
    wstring.o(.ARM.exidx) refers to wstring.o(i._ZNK6StringgeERKS_) for i._ZNK6StringgeERKS_
    wstring.o(.ARM.exidx) refers to wstring.o(i._ZNK6String16equalsIgnoreCaseERKS_) for i._ZNK6String16equalsIgnoreCaseERKS_
    wstring.o(.ARM.exidx) refers to wstring.o(i._ZNK6String10startsWithERKS_j) for i._ZNK6String10startsWithERKS_j
    wstring.o(.ARM.exidx) refers to wstring.o(i._ZNK6String10startsWithERKS_) for i._ZNK6String10startsWithERKS_
    wstring.o(.ARM.exidx) refers to wstring.o(i._ZNK6String8endsWithERKS_) for i._ZNK6String8endsWithERKS_
    wstring.o(.ARM.exidx) refers to wstring.o(i._ZNK6StringixEj) for i._ZNK6StringixEj
    wstring.o(.ARM.exidx) refers to wstring.o(i._ZNK6String6charAtEj) for i._ZNK6String6charAtEj
    wstring.o(.ARM.exidx) refers to wstring.o(i._ZN6String9setCharAtEjc) for i._ZN6String9setCharAtEjc
    wstring.o(.ARM.exidx) refers to wstring.o(i._ZN6StringixEj) for i._ZN6StringixEj
    wstring.o(.ARM.exidx) refers to wstring.o(i._ZNK6String8getBytesEPhjj) for i._ZNK6String8getBytesEPhjj
    wstring.o(.ARM.exidx) refers to wstring.o(i._ZNK6String7indexOfEcj) for i._ZNK6String7indexOfEcj
    wstring.o(.ARM.exidx) refers to wstring.o(i._ZNK6String7indexOfEc) for i._ZNK6String7indexOfEc
    wstring.o(.ARM.exidx) refers to wstring.o(i._ZNK6String7indexOfERKS_j) for i._ZNK6String7indexOfERKS_j
    wstring.o(.ARM.exidx) refers to wstring.o(i._ZNK6String7indexOfERKS_) for i._ZNK6String7indexOfERKS_
    wstring.o(.ARM.exidx) refers to wstring.o(i._ZNK6String11lastIndexOfEcj) for i._ZNK6String11lastIndexOfEcj
    wstring.o(.ARM.exidx) refers to wstring.o(i._ZNK6String11lastIndexOfEc) for i._ZNK6String11lastIndexOfEc
    wstring.o(.ARM.exidx) refers to wstring.o(i._ZNK6String11lastIndexOfERKS_j) for i._ZNK6String11lastIndexOfERKS_j
    wstring.o(.ARM.exidx) refers to wstring.o(i._ZNK6String11lastIndexOfERKS_) for i._ZNK6String11lastIndexOfERKS_
    wstring.o(.ARM.exidx) refers to wstring.o(i._ZNK6String9substringEjj) for i._ZNK6String9substringEjj
    wstring.o(.ARM.exidx) refers to wstring.o(i._ZN6String7replaceEcc) for i._ZN6String7replaceEcc
    wstring.o(.ARM.exidx) refers to wstring.o(i._ZN6String7replaceERKS_S1_) for i._ZN6String7replaceERKS_S1_
    wstring.o(.ARM.exidx) refers to wstring.o(i._ZN6String6removeEjj) for i._ZN6String6removeEjj
    wstring.o(.ARM.exidx) refers to wstring.o(i._ZN6String6removeEj) for i._ZN6String6removeEj
    wstring.o(.ARM.exidx) refers to wstring.o(i._ZN6String11toLowerCaseEv) for i._ZN6String11toLowerCaseEv
    wstring.o(.ARM.exidx) refers to wstring.o(i._ZN6String11toUpperCaseEv) for i._ZN6String11toUpperCaseEv
    wstring.o(.ARM.exidx) refers to wstring.o(i._ZN6String4trimEv) for i._ZN6String4trimEv
    wstring.o(.ARM.exidx) refers to wstring.o(i._ZNK6String5toIntEv) for i._ZNK6String5toIntEv
    wstring.o(.ARM.exidx) refers to wstring.o(i._ZNK6String7toFloatEv) for i._ZNK6String7toFloatEv
    wstring.o(.ARM.exidx) refers to wstring.o(i._ZN6String7sprintfEPKcz) for i._ZN6String7sprintfEPKcz
    wire.o(i._ZN7TwoWire11i2c_get_ackEv) refers to wire.o(i._ZN7TwoWire7set_sclEb) for TwoWire::set_scl(bool)
    wire.o(i._ZN7TwoWire11i2c_get_ackEv) refers to wire.o(i._ZN7TwoWire7set_sdaEb) for TwoWire::set_sda(bool)
    wire.o(i._ZN7TwoWire11i2c_get_ackEv) refers to arduino.o(i.digitalRead) for digitalRead
    wire.o(i._ZN7TwoWire12i2c_send_ackEv) refers to wire.o(i._ZN7TwoWire7set_sdaEb) for TwoWire::set_sda(bool)
    wire.o(i._ZN7TwoWire12i2c_send_ackEv) refers to wire.o(i._ZN7TwoWire7set_sclEb) for TwoWire::set_scl(bool)
    wire.o(i._ZN7TwoWire12i2c_shift_inEv) refers to wire.o(i._ZN7TwoWire7set_sdaEb) for TwoWire::set_sda(bool)
    wire.o(i._ZN7TwoWire12i2c_shift_inEv) refers to wire.o(i._ZN7TwoWire7set_sclEb) for TwoWire::set_scl(bool)
    wire.o(i._ZN7TwoWire12i2c_shift_inEv) refers to arduino.o(i.digitalRead) for digitalRead
    wire.o(i._ZN7TwoWire13i2c_send_nackEv) refers to wire.o(i._ZN7TwoWire7set_sdaEb) for TwoWire::set_sda(bool)
    wire.o(i._ZN7TwoWire13i2c_send_nackEv) refers to wire.o(i._ZN7TwoWire7set_sclEb) for TwoWire::set_scl(bool)
    wire.o(i._ZN7TwoWire13i2c_shift_outEh) refers to wire.o(i._ZN7TwoWire7set_sdaEb) for TwoWire::set_sda(bool)
    wire.o(i._ZN7TwoWire13i2c_shift_outEh) refers to wire.o(i._ZN7TwoWire7set_sclEb) for TwoWire::set_scl(bool)
    wire.o(i._ZN7TwoWire5beginEh) refers to arduino.o(i.pinMode) for pinMode
    wire.o(i._ZN7TwoWire5beginEh) refers to wire.o(i._ZN7TwoWire7set_sclEb) for TwoWire::set_scl(bool)
    wire.o(i._ZN7TwoWire5beginEh) refers to wire.o(i._ZN7TwoWire7set_sdaEb) for TwoWire::set_sda(bool)
    wire.o(i._ZN7TwoWire7processEv) refers to wire.o(i._ZN7TwoWire9i2c_startEv) for TwoWire::i2c_start()
    wire.o(i._ZN7TwoWire7processEv) refers to wire.o(i._ZN7TwoWire13i2c_shift_outEh) for TwoWire::i2c_shift_out(unsigned char)
    wire.o(i._ZN7TwoWire7processEv) refers to wire.o(i._ZN7TwoWire11i2c_get_ackEv) for TwoWire::i2c_get_ack()
    wire.o(i._ZN7TwoWire7processEv) refers to wire.o(i._ZN7TwoWire8i2c_stopEv) for TwoWire::i2c_stop()
    wire.o(i._ZN7TwoWire7processEv) refers to wire.o(i._ZN7TwoWire12i2c_shift_inEv) for TwoWire::i2c_shift_in()
    wire.o(i._ZN7TwoWire7processEv) refers to wire.o(i._ZN7TwoWire12i2c_send_ackEv) for TwoWire::i2c_send_ack()
    wire.o(i._ZN7TwoWire7processEv) refers to wire.o(i._ZN7TwoWire13i2c_send_nackEv) for TwoWire::i2c_send_nack()
    wire.o(i._ZN7TwoWire7set_sclEb) refers to delay.o(i.delay_us) for delay_us
    wire.o(i._ZN7TwoWire7set_sclEb) refers to arduino.o(i.digitalWrite) for digitalWrite
    wire.o(i._ZN7TwoWire7set_sclEb) refers to arduino.o(i.digitalRead) for digitalRead
    wire.o(i._ZN7TwoWire7set_sdaEb) refers to delay.o(i.delay_us) for delay_us
    wire.o(i._ZN7TwoWire7set_sdaEb) refers to arduino.o(i.digitalWrite) for digitalWrite
    wire.o(i._ZN7TwoWire8i2c_stopEv) refers to wire.o(i._ZN7TwoWire7set_sdaEb) for TwoWire::set_sda(bool)
    wire.o(i._ZN7TwoWire8i2c_stopEv) refers to wire.o(i._ZN7TwoWire7set_sclEb) for TwoWire::set_scl(bool)
    wire.o(i._ZN7TwoWire9i2c_startEv) refers to wire.o(i._ZN7TwoWire7set_sdaEb) for TwoWire::set_sda(bool)
    wire.o(i._ZN7TwoWire9i2c_startEv) refers to wire.o(i._ZN7TwoWire7set_sclEb) for TwoWire::set_scl(bool)
    wire.o(i._ZN7TwoWireC1Ehhh) refers to wire.o(.constdata__ZTV7TwoWire) for vtable for TwoWire
    wire.o(i._ZN7TwoWireD1Ev) refers to wire.o(.constdata__ZTV7TwoWire) for vtable for TwoWire
    wire.o(i.__sti___8_Wire_cpp_928ee5ff) refers to wire.o(i._ZN7TwoWireC1Ehhh) for TwoWire::TwoWire(unsigned char, unsigned char, unsigned char)
    wire.o(i.__sti___8_Wire_cpp_928ee5ff) refers to aeabi_atexit.o(.text) for __aeabi_atexit
    wire.o(i.__sti___8_Wire_cpp_928ee5ff) refers to wire.o(.bss) for .bss
    wire.o(i.__sti___8_Wire_cpp_928ee5ff) refers to wire.o(i._ZN7TwoWireD1Ev) for TwoWire::~TwoWire()
    wire.o(.ARM.exidx) refers to wire.o(i._ZN7TwoWire7set_sclEb) for i._ZN7TwoWire7set_sclEb
    wire.o(.ARM.exidx) refers to wire.o(i._ZN7TwoWire7set_sdaEb) for i._ZN7TwoWire7set_sdaEb
    wire.o(.ARM.exidx) refers to wire.o(i._ZN7TwoWire9i2c_startEv) for i._ZN7TwoWire9i2c_startEv
    wire.o(.ARM.exidx) refers to wire.o(i._ZN7TwoWire8i2c_stopEv) for i._ZN7TwoWire8i2c_stopEv
    wire.o(.ARM.exidx) refers to wire.o(i._ZN7TwoWire11i2c_get_ackEv) for i._ZN7TwoWire11i2c_get_ackEv
    wire.o(.ARM.exidx) refers to wire.o(i._ZN7TwoWire12i2c_send_ackEv) for i._ZN7TwoWire12i2c_send_ackEv
    wire.o(.ARM.exidx) refers to wire.o(i._ZN7TwoWire13i2c_send_nackEv) for i._ZN7TwoWire13i2c_send_nackEv
    wire.o(.ARM.exidx) refers to wire.o(i._ZN7TwoWire12i2c_shift_inEv) for i._ZN7TwoWire12i2c_shift_inEv
    wire.o(.ARM.exidx) refers to wire.o(i._ZN7TwoWire13i2c_shift_outEh) for i._ZN7TwoWire13i2c_shift_outEh
    wire.o(.ARM.exidx) refers to wire.o(i._ZN7TwoWire7processEv) for i._ZN7TwoWire7processEv
    wire.o(.ARM.exidx) refers to wire.o(i._ZN7TwoWireC1Ehhh) for i._ZN7TwoWireC1Ehhh
    wire.o(.ARM.exidx) refers to wire.o(i._ZN7TwoWire5beginEh) for i._ZN7TwoWire5beginEh
    wire.o(.ARM.exidx) refers to wire.o(i._ZN7TwoWireD1Ev) for i._ZN7TwoWireD1Ev
    wire.o(.ARM.exidx) refers to wire.o(i.__sti___8_Wire_cpp_928ee5ff) for i.__sti___8_Wire_cpp_928ee5ff
    wire.o(.init_array) refers to wire.o(i.__sti___8_Wire_cpp_928ee5ff) for __sti___8_Wire_cpp_928ee5ff
    wire.o(.init_array) refers to init_aeabi.o(.text) for __cpp_initialize__aeabi_
    wirebase.o(i._ZN8WireBase11requestFromEii) refers to wirebase.o(i._ZN8WireBase11requestFromEhi) for WireBase::requestFrom(unsigned char, int)
    wirebase.o(i._ZN8WireBase17beginTransmissionEi) refers to wirebase.o(i._ZN8WireBase17beginTransmissionEh) for WireBase::beginTransmission(unsigned char)
    wirebase.o(i._ZN8WireBase5writeEPc) refers to wirebase.o(i._ZN8WireBase5writeEh) for WireBase::write(unsigned char)
    wirebase.o(i._ZN8WireBase5writeEPhi) refers to wirebase.o(i._ZN8WireBase5writeEh) for WireBase::write(unsigned char)
    wirebase.o(i._ZN8WireBase5writeEPii) refers to wirebase.o(i._ZN8WireBase5writeEPhi) for WireBase::write(unsigned char*, int)
    wirebase.o(i._ZN8WireBase5writeEi) refers to wirebase.o(i._ZN8WireBase5writeEh) for WireBase::write(unsigned char)
    wirebase.o(.ARM.exidx) refers to wirebase.o(i._ZN8WireBase5beginEh) for i._ZN8WireBase5beginEh
    wirebase.o(.ARM.exidx) refers to wirebase.o(i._ZN8WireBase8setClockEj) for i._ZN8WireBase8setClockEj
    wirebase.o(.ARM.exidx) refers to wirebase.o(i._ZN8WireBase17beginTransmissionEh) for i._ZN8WireBase17beginTransmissionEh
    wirebase.o(.ARM.exidx) refers to wirebase.o(i._ZN8WireBase17beginTransmissionEi) for i._ZN8WireBase17beginTransmissionEi
    wirebase.o(.ARM.exidx) refers to wirebase.o(i._ZN8WireBase15endTransmissionEv) for i._ZN8WireBase15endTransmissionEv
    wirebase.o(.ARM.exidx) refers to wirebase.o(i._ZN8WireBase11requestFromEhi) for i._ZN8WireBase11requestFromEhi
    wirebase.o(.ARM.exidx) refers to wirebase.o(i._ZN8WireBase11requestFromEii) for i._ZN8WireBase11requestFromEii
    wirebase.o(.ARM.exidx) refers to wirebase.o(i._ZN8WireBase5writeEh) for i._ZN8WireBase5writeEh
    wirebase.o(.ARM.exidx) refers to wirebase.o(i._ZN8WireBase5writeEPhi) for i._ZN8WireBase5writeEPhi
    wirebase.o(.ARM.exidx) refers to wirebase.o(i._ZN8WireBase5writeEi) for i._ZN8WireBase5writeEi
    wirebase.o(.ARM.exidx) refers to wirebase.o(i._ZN8WireBase5writeEPii) for i._ZN8WireBase5writeEPii
    wirebase.o(.ARM.exidx) refers to wirebase.o(i._ZN8WireBase5writeEPc) for i._ZN8WireBase5writeEPc
    wirebase.o(.ARM.exidx) refers to wirebase.o(i._ZN8WireBase9availableEv) for i._ZN8WireBase9availableEv
    wirebase.o(.ARM.exidx) refers to wirebase.o(i._ZN8WireBase4readEv) for i._ZN8WireBase4readEv
    wmath.o(i._Z10randomSeedm) refers to rand.o(.text) for srand
    wmath.o(i._Z6randoml) refers to rand.o(.emb_text) for rand
    wmath.o(i._Z6randomll) refers to wmath.o(i._Z6randoml) for random(long)
    wmath.o(.ARM.exidx) refers to wmath.o(i._Z10randomSeedm) for i._Z10randomSeedm
    wmath.o(.ARM.exidx) refers to wmath.o(i._Z6randoml) for i._Z6randoml
    wmath.o(.ARM.exidx) refers to wmath.o(i._Z6randomll) for i._Z6randomll
    wmath.o(.ARM.exidx) refers to wmath.o(i._Z8makeWordj) for i._Z8makeWordj
    wmath.o(.ARM.exidx) refers to wmath.o(i._Z8makeWordhh) for i._Z8makeWordhh
    spi.o(i._ZN8SPIClass10beginSlaveEv) refers to spi.o(i._ZN8SPIClass5beginEv) for SPIClass::begin()
    spi.o(i._ZN8SPIClass10beginSlaveEv) refers to spi.o(i._ZN8SPIClass12SPI_SettingsEP11SPI_TypeDeftttttt) for SPIClass::SPI_Settings(SPI_TypeDef*, unsigned short, unsigned short, unsigned short, unsigned short, unsigned short, unsigned short)
    spi.o(i._ZN8SPIClass10beginSlaveEv) refers to stm32f10x_spi.o(i.SPI_Cmd) for SPI_Cmd
    spi.o(i._ZN8SPIClass11setBitOrderEt) refers to stm32f10x_spi.o(i.SPI_Init) for SPI_Init
    spi.o(i._ZN8SPIClass11setBitOrderEt) refers to stm32f10x_spi.o(i.SPI_Cmd) for SPI_Cmd
    spi.o(i._ZN8SPIClass11setDataModeEh) refers to stm32f10x_spi.o(i.SPI_Cmd) for SPI_Cmd
    spi.o(i._ZN8SPIClass11setDataModeEh) refers to stm32f10x_spi.o(i.SPI_Init) for SPI_Init
    spi.o(i._ZN8SPIClass11setDataSizeEt) refers to stm32f10x_spi.o(i.SPI_Init) for SPI_Init
    spi.o(i._ZN8SPIClass11setDataSizeEt) refers to stm32f10x_spi.o(i.SPI_Cmd) for SPI_Cmd
    spi.o(i._ZN8SPIClass12SPI_SettingsEP11SPI_TypeDeftttttt) refers to stm32f10x_spi.o(i.SPI_Cmd) for SPI_Cmd
    spi.o(i._ZN8SPIClass12SPI_SettingsEP11SPI_TypeDeftttttt) refers to stm32f10x_spi.o(i.SPI_Init) for SPI_Init
    spi.o(i._ZN8SPIClass15setClockDividerEj) refers to spi.o(i._ZN8SPIClass8setClockEj) for SPIClass::setClock(unsigned)
    spi.o(i._ZN8SPIClass16beginTransactionE11SPISettings) refers to stm32f10x_spi.o(i.SPI_Cmd) for SPI_Cmd
    spi.o(i._ZN8SPIClass21beginTransactionSlaveEv) refers to spi.o(i._ZN8SPIClass10beginSlaveEv) for SPIClass::beginSlave()
    spi.o(i._ZN8SPIClass3endEv) refers to stm32f10x_spi.o(i.SPI_Cmd) for SPI_Cmd
    spi.o(i._ZN8SPIClass4recvEv) refers to spi.o(i._ZN8SPIClass4readEv) for SPIClass::read()
    spi.o(i._ZN8SPIClass4sendEPhj) refers to spi.o(i._ZN8SPIClass5writeEPKhj) for SPIClass::write(const unsigned char*, unsigned)
    spi.o(i._ZN8SPIClass4sendEh) refers to spi.o(i._ZN8SPIClass5writeEt) for SPIClass::write(unsigned short)
    spi.o(i._ZN8SPIClass5beginE11SPISettings) refers to spi.o(i._ZN8SPIClass5beginEv) for SPIClass::begin()
    spi.o(i._ZN8SPIClass5beginE11SPISettings) refers to spi.o(i._ZN8SPIClass8setClockEj) for SPIClass::setClock(unsigned)
    spi.o(i._ZN8SPIClass5beginE11SPISettings) refers to spi.o(i._ZN8SPIClass11setBitOrderEt) for SPIClass::setBitOrder(unsigned short)
    spi.o(i._ZN8SPIClass5beginE11SPISettings) refers to spi.o(i._ZN8SPIClass11setDataModeEh) for SPIClass::setDataMode(unsigned char)
    spi.o(i._ZN8SPIClass5beginE11SPISettings) refers to stm32f10x_spi.o(i.SPI_Cmd) for SPI_Cmd
    spi.o(i._ZN8SPIClass5beginEjtt) refers to spi.o(i._ZN8SPIClass5beginEv) for SPIClass::begin()
    spi.o(i._ZN8SPIClass5beginEjtt) refers to spi.o(i._ZN8SPIClass8setClockEj) for SPIClass::setClock(unsigned)
    spi.o(i._ZN8SPIClass5beginEjtt) refers to spi.o(i._ZN8SPIClass11setBitOrderEt) for SPIClass::setBitOrder(unsigned short)
    spi.o(i._ZN8SPIClass5beginEjtt) refers to spi.o(i._ZN8SPIClass11setDataModeEh) for SPIClass::setDataMode(unsigned char)
    spi.o(i._ZN8SPIClass5beginEjtt) refers to stm32f10x_spi.o(i.SPI_Cmd) for SPI_Cmd
    spi.o(i._ZN8SPIClass5beginEv) refers to stm32f10x_rcc.o(i.RCC_APB2PeriphClockCmd) for RCC_APB2PeriphClockCmd
    spi.o(i._ZN8SPIClass5beginEv) refers to stm32f10x_rcc.o(i.RCC_APB1PeriphClockCmd) for RCC_APB1PeriphClockCmd
    spi.o(i._ZN8SPIClass5beginEv) refers to stm32f10x_gpio.o(i.GPIO_Init) for GPIO_Init
    spi.o(i._ZN8SPIClass5beginEv) refers to spi.o(i._ZN8SPIClass12SPI_SettingsEP11SPI_TypeDeftttttt) for SPIClass::SPI_Settings(SPI_TypeDef*, unsigned short, unsigned short, unsigned short, unsigned short, unsigned short, unsigned short)
    spi.o(i._ZN8SPIClass5beginEv) refers to system_stm32f10x.o(.data) for SystemCoreClock
    spi.o(i._ZN8SPIClass8setClockEj) refers to stm32f10x_spi.o(i.SPI_Init) for SPI_Init
    spi.o(i._ZN8SPIClass8setClockEj) refers to stm32f10x_spi.o(i.SPI_Cmd) for SPI_Cmd
    spi.o(i.__sti___7_SPI_cpp_ce5662b4) refers to spi.o(.bss) for .bss
    spi.o(.ARM.exidx) refers to spi.o(i._ZN8SPIClassC1EP11SPI_TypeDef) for i._ZN8SPIClassC1EP11SPI_TypeDef
    spi.o(.ARM.exidx) refers to spi.o(i._ZN8SPIClass12SPI_SettingsEP11SPI_TypeDeftttttt) for i._ZN8SPIClass12SPI_SettingsEP11SPI_TypeDeftttttt
    spi.o(.ARM.exidx) refers to spi.o(i._ZN8SPIClass5beginEv) for i._ZN8SPIClass5beginEv
    spi.o(.ARM.exidx) refers to spi.o(i._ZN8SPIClass11setDataModeEh) for i._ZN8SPIClass11setDataModeEh
    spi.o(.ARM.exidx) refers to spi.o(i._ZN8SPIClass11setBitOrderEt) for i._ZN8SPIClass11setBitOrderEt
    spi.o(.ARM.exidx) refers to spi.o(i._ZN8SPIClass8setClockEj) for i._ZN8SPIClass8setClockEj
    spi.o(.ARM.exidx) refers to spi.o(i._ZN8SPIClass5beginEjtt) for i._ZN8SPIClass5beginEjtt
    spi.o(.ARM.exidx) refers to spi.o(i._ZN8SPIClass5beginE11SPISettings) for i._ZN8SPIClass5beginE11SPISettings
    spi.o(.ARM.exidx) refers to spi.o(i._ZN8SPIClass10beginSlaveEv) for i._ZN8SPIClass10beginSlaveEv
    spi.o(.ARM.exidx) refers to spi.o(i._ZN8SPIClass21beginTransactionSlaveEv) for i._ZN8SPIClass21beginTransactionSlaveEv
    spi.o(.ARM.exidx) refers to spi.o(i._ZN8SPIClass16beginTransactionE11SPISettings) for i._ZN8SPIClass16beginTransactionE11SPISettings
    spi.o(.ARM.exidx) refers to spi.o(i._ZN8SPIClass14endTransactionEv) for i._ZN8SPIClass14endTransactionEv
    spi.o(.ARM.exidx) refers to spi.o(i._ZN8SPIClass3endEv) for i._ZN8SPIClass3endEv
    spi.o(.ARM.exidx) refers to spi.o(i._ZN8SPIClass15setClockDividerEj) for i._ZN8SPIClass15setClockDividerEj
    spi.o(.ARM.exidx) refers to spi.o(i._ZN8SPIClass11setDataSizeEt) for i._ZN8SPIClass11setDataSizeEt
    spi.o(.ARM.exidx) refers to spi.o(i._ZN8SPIClass4readEv) for i._ZN8SPIClass4readEv
    spi.o(.ARM.exidx) refers to spi.o(i._ZN8SPIClass4readEPhj) for i._ZN8SPIClass4readEPhj
    spi.o(.ARM.exidx) refers to spi.o(i._ZN8SPIClass5writeEt) for i._ZN8SPIClass5writeEt
    spi.o(.ARM.exidx) refers to spi.o(i._ZN8SPIClass5writeEtj) for i._ZN8SPIClass5writeEtj
    spi.o(.ARM.exidx) refers to spi.o(i._ZN8SPIClass5writeEPKhj) for i._ZN8SPIClass5writeEPKhj
    spi.o(.ARM.exidx) refers to spi.o(i._ZN8SPIClass5writeEPKtj) for i._ZN8SPIClass5writeEPKtj
    spi.o(.ARM.exidx) refers to spi.o(i._ZNK8SPIClass8transferEh) for i._ZNK8SPIClass8transferEh
    spi.o(.ARM.exidx) refers to spi.o(i._ZNK8SPIClass10transfer16Et) for i._ZNK8SPIClass10transfer16Et
    spi.o(.ARM.exidx) refers to spi.o(i._ZN8SPIClass4sendEh) for i._ZN8SPIClass4sendEh
    spi.o(.ARM.exidx) refers to spi.o(i._ZN8SPIClass4sendEPhj) for i._ZN8SPIClass4sendEPhj
    spi.o(.ARM.exidx) refers to spi.o(i._ZN8SPIClass4recvEv) for i._ZN8SPIClass4recvEv
    spi.o(.ARM.exidx) refers to spi.o(i.__sti___7_SPI_cpp_ce5662b4) for i.__sti___7_SPI_cpp_ce5662b4
    spi.o(.init_array) refers to spi.o(i.__sti___7_SPI_cpp_ce5662b4) for __sti___7_SPI_cpp_ce5662b4
    spi.o(.init_array) refers to init_aeabi.o(.text) for __cpp_initialize__aeabi_
    stream.o(i._ZN6Stream10parseFloatEc) refers to stream.o(i._ZN6Stream13peekNextDigitEv) for Stream::peekNextDigit()
    stream.o(i._ZN6Stream10parseFloatEc) refers to f2d.o(x$fpl$f2d) for __aeabi_f2d
    stream.o(i._ZN6Stream10parseFloatEc) refers to dmul.o(x$fpl$dmul) for __aeabi_dmul
    stream.o(i._ZN6Stream10parseFloatEc) refers to d2f.o(x$fpl$d2f) for __aeabi_d2f
    stream.o(i._ZN6Stream10parseFloatEc) refers to stream.o(i._ZN6Stream9timedPeekEv) for Stream::timedPeek()
    stream.o(i._ZN6Stream10parseFloatEc) refers to fflt_clz.o(x$fpl$fflt) for __aeabi_i2f
    stream.o(i._ZN6Stream10parseFloatEc) refers to fmul.o(x$fpl$fmul) for __aeabi_fmul
    stream.o(i._ZN6Stream10parseFloatEv) refers to stream.o(i._ZN6Stream10parseFloatEc) for Stream::parseFloat(char)
    stream.o(i._ZN6Stream10readStringEv) refers to wstring.o(i._ZN6StringC1EPKc) for String::String(const char*)
    stream.o(i._ZN6Stream10readStringEv) refers to wstring.o(i._ZN6String6concatEc) for String::concat(char)
    stream.o(i._ZN6Stream10readStringEv) refers to stream.o(i._ZN6Stream9timedReadEv) for Stream::timedRead()
    stream.o(i._ZN6Stream13peekNextDigitEv) refers to stream.o(i._ZN6Stream9timedPeekEv) for Stream::timedPeek()
    stream.o(i._ZN6Stream14readBytesUntilEcPcj) refers to stream.o(i._ZN6Stream9timedReadEv) for Stream::timedRead()
    stream.o(i._ZN6Stream15readStringUntilEc) refers to wstring.o(i._ZN6StringC1EPKc) for String::String(const char*)
    stream.o(i._ZN6Stream15readStringUntilEc) refers to wstring.o(i._ZN6String6concatEc) for String::concat(char)
    stream.o(i._ZN6Stream15readStringUntilEc) refers to stream.o(i._ZN6Stream9timedReadEv) for Stream::timedRead()
    stream.o(i._ZN6Stream4findEPc) refers to strlen.o(.text) for strlen
    stream.o(i._ZN6Stream4findEPc) refers to stream.o(i._ZN6Stream9findUntilEPcjS0_j) for Stream::findUntil(char*, unsigned, char*, unsigned)
    stream.o(i._ZN6Stream4findEPcj) refers to stream.o(i._ZN6Stream9findUntilEPcjS0_j) for Stream::findUntil(char*, unsigned, char*, unsigned)
    stream.o(i._ZN6Stream8parseIntEc) refers to stream.o(i._ZN6Stream13peekNextDigitEv) for Stream::peekNextDigit()
    stream.o(i._ZN6Stream8parseIntEc) refers to stream.o(i._ZN6Stream9timedPeekEv) for Stream::timedPeek()
    stream.o(i._ZN6Stream8parseIntEv) refers to stream.o(i._ZN6Stream8parseIntEc) for Stream::parseInt(char)
    stream.o(i._ZN6Stream9findMultiEPNS_11MultiTargetEi) refers to stream.o(i._ZN6Stream9timedReadEv) for Stream::timedRead()
    stream.o(i._ZN6Stream9findUntilEPcS0_) refers to strlen.o(.text) for strlen
    stream.o(i._ZN6Stream9findUntilEPcS0_) refers to stream.o(i._ZN6Stream9findUntilEPcjS0_j) for Stream::findUntil(char*, unsigned, char*, unsigned)
    stream.o(i._ZN6Stream9findUntilEPcjS0_j) refers to stream.o(i._ZN6Stream9timedReadEv) for Stream::timedRead()
    stream.o(i._ZN6Stream9readBytesEPcj) refers to stream.o(i._ZN6Stream9timedReadEv) for Stream::timedRead()
    stream.o(i._ZN6Stream9timedPeekEv) refers to delay.o(i.millis) for millis
    stream.o(i._ZN6Stream9timedReadEv) refers to delay.o(i.millis) for millis
    stream.o(.ARM.exidx) refers to stream.o(i._ZN6Stream9timedReadEv) for i._ZN6Stream9timedReadEv
    stream.o(.ARM.exidx) refers to stream.o(i._ZN6Stream9timedPeekEv) for i._ZN6Stream9timedPeekEv
    stream.o(.ARM.exidx) refers to stream.o(i._ZN6Stream13peekNextDigitEv) for i._ZN6Stream13peekNextDigitEv
    stream.o(.ARM.exidx) refers to stream.o(i._ZN6Stream10setTimeoutEm) for i._ZN6Stream10setTimeoutEm
    stream.o(.ARM.exidx) refers to stream.o(i._ZN6Stream9findUntilEPcjS0_j) for i._ZN6Stream9findUntilEPcjS0_j
    stream.o(.ARM.exidx) refers to stream.o(i._ZN6Stream4findEPc) for i._ZN6Stream4findEPc
    stream.o(.ARM.exidx) refers to stream.o(i._ZN6Stream4findEPcj) for i._ZN6Stream4findEPcj
    stream.o(.ARM.exidx) refers to stream.o(i._ZN6Stream9findUntilEPcS0_) for i._ZN6Stream9findUntilEPcS0_
    stream.o(.ARM.exidx) refers to stream.o(i._ZN6Stream8parseIntEc) for i._ZN6Stream8parseIntEc
    stream.o(.ARM.exidx) refers to stream.o(i._ZN6Stream8parseIntEv) for i._ZN6Stream8parseIntEv
    stream.o(.ARM.exidx) refers to stream.o(i._ZN6Stream10parseFloatEc) for i._ZN6Stream10parseFloatEc
    stream.o(.ARM.exidx) refers to stream.o(i._ZN6Stream10parseFloatEv) for i._ZN6Stream10parseFloatEv
    stream.o(.ARM.exidx) refers to stream.o(i._ZN6Stream9readBytesEPcj) for i._ZN6Stream9readBytesEPcj
    stream.o(.ARM.exidx) refers to stream.o(i._ZN6Stream14readBytesUntilEcPcj) for i._ZN6Stream14readBytesUntilEcPcj
    stream.o(.ARM.exidx) refers to stream.o(i._ZN6Stream10readStringEv) for i._ZN6Stream10readStringEv
    stream.o(.ARM.exidx) refers to stream.o(i._ZN6Stream15readStringUntilEc) for i._ZN6Stream15readStringUntilEc
    stream.o(.ARM.exidx) refers to stream.o(i._ZN6Stream9findMultiEPNS_11MultiTargetEi) for i._ZN6Stream9findMultiEPNS_11MultiTargetEi
    tone.o(i._Z12toneSetTimerP11TIM_TypeDef) refers to tone.o(.data) for .data
    tone.o(i._Z16toneBlock_Volumnhjjf) refers to delay.o(i.millis) for millis
    tone.o(i._Z16toneBlock_Volumnhjjf) refers to fflt_clz.o(x$fpl$ffltu) for __aeabi_ui2f
    tone.o(i._Z16toneBlock_Volumnhjjf) refers to fmul.o(x$fpl$fmul) for __aeabi_fmul
    tone.o(i._Z16toneBlock_Volumnhjjf) refers to ffixu.o(x$fpl$ffixu) for __aeabi_f2uiz
    tone.o(i._Z16toneBlock_Volumnhjjf) refers to delay.o(i.delay_us) for delay_us
    tone.o(i._Z16toneBlock_Volumnhjjf) refers to gpio.o(.constdata) for PIN_MAP
    tone.o(i._Z17toneTimer_Handlerv) refers to delay.o(i.millis) for millis
    tone.o(i._Z17toneTimer_Handlerv) refers to tone.o(i._Z6noToneh) for noTone(unsigned char)
    tone.o(i._Z17toneTimer_Handlerv) refers to gpio.o(.constdata) for PIN_MAP
    tone.o(i._Z17toneTimer_Handlerv) refers to tone.o(.data) for .data
    tone.o(i._Z19toneBlock_Volumn_ushjjf) refers to delay.o(i.micros) for micros
    tone.o(i._Z19toneBlock_Volumn_ushjjf) refers to fflt_clz.o(x$fpl$ffltu) for __aeabi_ui2f
    tone.o(i._Z19toneBlock_Volumn_ushjjf) refers to fmul.o(x$fpl$fmul) for __aeabi_fmul
    tone.o(i._Z19toneBlock_Volumn_ushjjf) refers to ffixu.o(x$fpl$ffixu) for __aeabi_f2uiz
    tone.o(i._Z19toneBlock_Volumn_ushjjf) refers to delay.o(i.delay_us) for delay_us
    tone.o(i._Z19toneBlock_Volumn_ushjjf) refers to gpio.o(.constdata) for PIN_MAP
    tone.o(i._Z4tonehj) refers to tone.o(i._Z6noToneh) for noTone(unsigned char)
    tone.o(i._Z4tonehj) refers to timer.o(i.Timer_SetInterruptBase) for Timer_SetInterruptBase
    tone.o(i._Z4tonehj) refers to fflt_clz.o(x$fpl$ffltu) for __aeabi_ui2f
    tone.o(i._Z4tonehj) refers to fdiv.o(x$fpl$fdiv) for __aeabi_fdiv
    tone.o(i._Z4tonehj) refers to ffixu.o(x$fpl$ffixu) for __aeabi_f2uiz
    tone.o(i._Z4tonehj) refers to timer.o(i.Timer_SetInterruptTimeUpdate) for Timer_SetInterruptTimeUpdate
    tone.o(i._Z4tonehj) refers to stm32f10x_tim.o(i.TIM_Cmd) for TIM_Cmd
    tone.o(i._Z4tonehj) refers to dflt_clz.o(x$fpl$dfltu) for __aeabi_ui2d
    tone.o(i._Z4tonehj) refers to ddiv.o(x$fpl$ddiv) for __aeabi_ddiv
    tone.o(i._Z4tonehj) refers to dfixu.o(x$fpl$dfixu) for __aeabi_d2uiz
    tone.o(i._Z4tonehj) refers to tone.o(.data) for .data
    tone.o(i._Z4tonehj) refers to tone.o(i._Z17toneTimer_Handlerv) for toneTimer_Handler()
    tone.o(i._Z4tonehjj) refers to tone.o(i._Z6noToneh) for noTone(unsigned char)
    tone.o(i._Z4tonehjj) refers to tone.o(i._Z4tonehj) for tone(unsigned char, unsigned)
    tone.o(i._Z4tonehjj) refers to delay.o(i.millis) for millis
    tone.o(i._Z4tonehjj) refers to tone.o(.data) for .data
    tone.o(i._Z6noToneh) refers to stm32f10x_tim.o(i.TIM_Cmd) for TIM_Cmd
    tone.o(i._Z6noToneh) refers to arduino.o(i.digitalWrite) for digitalWrite
    tone.o(i._Z6noToneh) refers to tone.o(.data) for .data
    tone.o(i._Z9toneBlockhjj) refers to delay.o(i.millis) for millis
    tone.o(i._Z9toneBlockhjj) refers to delay.o(i.delay_us) for delay_us
    tone.o(i._Z9toneBlockhjj) refers to gpio.o(.constdata) for PIN_MAP
    tone.o(.ARM.exidx) refers to tone.o(i._Z6noToneh) for i._Z6noToneh
    tone.o(.ARM.exidx) refers to tone.o(i._Z17toneTimer_Handlerv) for i._Z17toneTimer_Handlerv
    tone.o(.ARM.exidx) refers to tone.o(i._Z12toneSetTimerP11TIM_TypeDef) for i._Z12toneSetTimerP11TIM_TypeDef
    tone.o(.ARM.exidx) refers to tone.o(i._Z4tonehj) for i._Z4tonehj
    tone.o(.ARM.exidx) refers to tone.o(i._Z4tonehjj) for i._Z4tonehjj
    tone.o(.ARM.exidx) refers to tone.o(i._Z9toneBlockhjj) for i._Z9toneBlockhjj
    tone.o(.ARM.exidx) refers to tone.o(i._Z16toneBlock_Volumnhjjf) for i._Z16toneBlock_Volumnhjjf
    tone.o(.ARM.exidx) refers to tone.o(i._Z19toneBlock_Volumn_ushjjf) for i._Z19toneBlock_Volumn_ushjjf
    adc.o(i.ADC_DMA_GetValue) refers to adc.o(i.ADC_DMA_SearchChannel) for ADC_DMA_SearchChannel
    adc.o(i.ADC_DMA_GetValue) refers to adc.o(.bss) for .bss
    adc.o(i.ADC_DMA_Init) refers to stm32f10x_rcc.o(i.RCC_AHBPeriphClockCmd) for RCC_AHBPeriphClockCmd
    adc.o(i.ADC_DMA_Init) refers to stm32f10x_rcc.o(i.RCC_APB2PeriphClockCmd) for RCC_APB2PeriphClockCmd
    adc.o(i.ADC_DMA_Init) refers to stm32f10x_dma.o(i.DMA_DeInit) for DMA_DeInit
    adc.o(i.ADC_DMA_Init) refers to stm32f10x_dma.o(i.DMA_Init) for DMA_Init
    adc.o(i.ADC_DMA_Init) refers to stm32f10x_dma.o(i.DMA_Cmd) for DMA_Cmd
    adc.o(i.ADC_DMA_Init) refers to stm32f10x_adc.o(i.ADC_Init) for ADC_Init
    adc.o(i.ADC_DMA_Init) refers to stm32f10x_rcc.o(i.RCC_ADCCLKConfig) for RCC_ADCCLKConfig
    adc.o(i.ADC_DMA_Init) refers to stm32f10x_adc.o(i.ADC_RegularChannelConfig) for ADC_RegularChannelConfig
    adc.o(i.ADC_DMA_Init) refers to stm32f10x_adc.o(i.ADC_TempSensorVrefintCmd) for ADC_TempSensorVrefintCmd
    adc.o(i.ADC_DMA_Init) refers to stm32f10x_adc.o(i.ADC_DMACmd) for ADC_DMACmd
    adc.o(i.ADC_DMA_Init) refers to stm32f10x_adc.o(i.ADC_Cmd) for ADC_Cmd
    adc.o(i.ADC_DMA_Init) refers to stm32f10x_adc.o(i.ADC_ResetCalibration) for ADC_ResetCalibration
    adc.o(i.ADC_DMA_Init) refers to stm32f10x_adc.o(i.ADC_GetResetCalibrationStatus) for ADC_GetResetCalibrationStatus
    adc.o(i.ADC_DMA_Init) refers to stm32f10x_adc.o(i.ADC_StartCalibration) for ADC_StartCalibration
    adc.o(i.ADC_DMA_Init) refers to stm32f10x_adc.o(i.ADC_GetCalibrationStatus) for ADC_GetCalibrationStatus
    adc.o(i.ADC_DMA_Init) refers to stm32f10x_adc.o(i.ADC_SoftwareStartConvCmd) for ADC_SoftwareStartConvCmd
    adc.o(i.ADC_DMA_Init) refers to adc.o(.bss) for .bss
    adc.o(i.ADC_DMA_Init) refers to adc.o(.data) for .data
    adc.o(i.ADC_DMA_Register) refers to adc.o(i.ADC_DMA_SearchChannel) for ADC_DMA_SearchChannel
    adc.o(i.ADC_DMA_Register) refers to adc.o(.data) for .data
    adc.o(i.ADC_DMA_Register) refers to adc.o(.bss) for .bss
    adc.o(i.ADC_DMA_SearchChannel) refers to adc.o(.bss) for .bss
    adc.o(i.ADC_DMA_SearchChannel) refers to adc.o(.data) for .data
    adc.o(i.ADCx_GetValue) refers to stm32f10x_adc.o(i.ADC_RegularChannelConfig) for ADC_RegularChannelConfig
    adc.o(i.ADCx_GetValue) refers to stm32f10x_adc.o(i.ADC_SoftwareStartConvCmd) for ADC_SoftwareStartConvCmd
    adc.o(i.ADCx_GetValue) refers to stm32f10x_adc.o(i.ADC_GetFlagStatus) for ADC_GetFlagStatus
    adc.o(i.ADCx_GetValue) refers to stm32f10x_adc.o(i.ADC_GetConversionValue) for ADC_GetConversionValue
    adc.o(i.ADCx_Init) refers to stm32f10x_rcc.o(i.RCC_APB2PeriphClockCmd) for RCC_APB2PeriphClockCmd
    adc.o(i.ADCx_Init) refers to stm32f10x_rcc.o(i.RCC_ADCCLKConfig) for RCC_ADCCLKConfig
    adc.o(i.ADCx_Init) refers to stm32f10x_adc.o(i.ADC_DeInit) for ADC_DeInit
    adc.o(i.ADCx_Init) refers to stm32f10x_adc.o(i.ADC_Init) for ADC_Init
    adc.o(i.ADCx_Init) refers to stm32f10x_adc.o(i.ADC_Cmd) for ADC_Cmd
    adc.o(i.ADCx_Init) refers to stm32f10x_adc.o(i.ADC_ResetCalibration) for ADC_ResetCalibration
    adc.o(i.ADCx_Init) refers to stm32f10x_adc.o(i.ADC_GetResetCalibrationStatus) for ADC_GetResetCalibrationStatus
    adc.o(i.ADCx_Init) refers to stm32f10x_adc.o(i.ADC_StartCalibration) for ADC_StartCalibration
    adc.o(i.ADCx_Init) refers to stm32f10x_adc.o(i.ADC_GetCalibrationStatus) for ADC_GetCalibrationStatus
    delay.o(i.Delay_Init) refers to system_stm32f10x.o(i.SystemCoreClockUpdate) for SystemCoreClockUpdate
    delay.o(i.Delay_Init) refers to delay.o(i.__NVIC_SetPriority) for __NVIC_SetPriority
    delay.o(i.Delay_Init) refers to system_stm32f10x.o(.data) for SystemCoreClock
    delay.o(i.SysClock_Init) refers to stm32f10x_rcc.o(i.RCC_SYSCLKConfig) for RCC_SYSCLKConfig
    delay.o(i.SysClock_Init) refers to stm32f10x_rcc.o(i.RCC_GetSYSCLKSource) for RCC_GetSYSCLKSource
    delay.o(i.SysClock_Init) refers to stm32f10x_rcc.o(i.RCC_HCLKConfig) for RCC_HCLKConfig
    delay.o(i.SysClock_Init) refers to stm32f10x_rcc.o(i.RCC_PCLK1Config) for RCC_PCLK1Config
    delay.o(i.SysClock_Init) refers to stm32f10x_rcc.o(i.RCC_PCLK2Config) for RCC_PCLK2Config
    delay.o(i.SysClock_Init) refers to stm32f10x_rcc.o(i.RCC_PLLCmd) for RCC_PLLCmd
    delay.o(i.SysClock_Init) refers to stm32f10x_rcc.o(i.RCC_HSEConfig) for RCC_HSEConfig
    delay.o(i.SysClock_Init) refers to stm32f10x_rcc.o(i.RCC_WaitForHSEStartUp) for RCC_WaitForHSEStartUp
    delay.o(i.SysClock_Init) refers to stm32f10x_rcc.o(i.RCC_PLLConfig) for RCC_PLLConfig
    delay.o(i.SysClock_Init) refers to stm32f10x_rcc.o(i.RCC_GetFlagStatus) for RCC_GetFlagStatus
    delay.o(i.SysClock_Init) refers to stm32f10x_rcc.o(i.RCC_APB2PeriphClockCmd) for RCC_APB2PeriphClockCmd
    delay.o(i.SysClock_Init) refers to delay.o(.data) for .data
    delay.o(i.SysClock_Init) refers to system_stm32f10x.o(.data) for SystemCoreClock
    delay.o(i.SysTick_Handler) refers to delay.o(.data) for .data
    delay.o(i.delay_ms) refers to delay.o(.data) for .data
    delay.o(i.delay_us) refers to system_stm32f10x.o(.data) for SystemCoreClock
    delay.o(i.micros) refers to system_stm32f10x.o(.data) for SystemCoreClock
    delay.o(i.micros) refers to delay.o(.data) for .data
    delay.o(i.millis) refers to delay.o(.data) for .data
    exti.o(i.EXTI0_IRQHandler) refers to stm32f10x_exti.o(i.EXTI_GetITStatus) for EXTI_GetITStatus
    exti.o(i.EXTI0_IRQHandler) refers to stm32f10x_exti.o(i.EXTI_ClearITPendingBit) for EXTI_ClearITPendingBit
    exti.o(i.EXTI0_IRQHandler) refers to exti.o(.bss) for .bss
    exti.o(i.EXTI15_10_IRQHandler) refers to stm32f10x_exti.o(i.EXTI_GetITStatus) for EXTI_GetITStatus
    exti.o(i.EXTI15_10_IRQHandler) refers to stm32f10x_exti.o(i.EXTI_ClearITPendingBit) for EXTI_ClearITPendingBit
    exti.o(i.EXTI15_10_IRQHandler) refers to exti.o(.bss) for .bss
    exti.o(i.EXTI1_IRQHandler) refers to stm32f10x_exti.o(i.EXTI_GetITStatus) for EXTI_GetITStatus
    exti.o(i.EXTI1_IRQHandler) refers to stm32f10x_exti.o(i.EXTI_ClearITPendingBit) for EXTI_ClearITPendingBit
    exti.o(i.EXTI1_IRQHandler) refers to exti.o(.bss) for .bss
    exti.o(i.EXTI2_IRQHandler) refers to stm32f10x_exti.o(i.EXTI_GetITStatus) for EXTI_GetITStatus
    exti.o(i.EXTI2_IRQHandler) refers to stm32f10x_exti.o(i.EXTI_ClearITPendingBit) for EXTI_ClearITPendingBit
    exti.o(i.EXTI2_IRQHandler) refers to exti.o(.bss) for .bss
    exti.o(i.EXTI3_IRQHandler) refers to stm32f10x_exti.o(i.EXTI_GetITStatus) for EXTI_GetITStatus
    exti.o(i.EXTI3_IRQHandler) refers to stm32f10x_exti.o(i.EXTI_ClearITPendingBit) for EXTI_ClearITPendingBit
    exti.o(i.EXTI3_IRQHandler) refers to exti.o(.bss) for .bss
    exti.o(i.EXTI4_IRQHandler) refers to stm32f10x_exti.o(i.EXTI_GetITStatus) for EXTI_GetITStatus
    exti.o(i.EXTI4_IRQHandler) refers to stm32f10x_exti.o(i.EXTI_ClearITPendingBit) for EXTI_ClearITPendingBit
    exti.o(i.EXTI4_IRQHandler) refers to exti.o(.bss) for .bss
    exti.o(i.EXTI9_5_IRQHandler) refers to stm32f10x_exti.o(i.EXTI_GetITStatus) for EXTI_GetITStatus
    exti.o(i.EXTI9_5_IRQHandler) refers to stm32f10x_exti.o(i.EXTI_ClearITPendingBit) for EXTI_ClearITPendingBit
    exti.o(i.EXTI9_5_IRQHandler) refers to exti.o(.bss) for .bss
    exti.o(i.EXTI_GetIRQn) refers to gpio.o(i.GPIO_GetPinNum) for GPIO_GetPinNum
    exti.o(i.EXTIx_Init) refers to gpio.o(i.GPIO_GetPinNum) for GPIO_GetPinNum
    exti.o(i.EXTIx_Init) refers to stm32f10x_rcc.o(i.RCC_APB2PeriphClockCmd) for RCC_APB2PeriphClockCmd
    exti.o(i.EXTIx_Init) refers to gpio.o(i.GPIO_GetPortNum) for GPIO_GetPortNum
    exti.o(i.EXTIx_Init) refers to stm32f10x_gpio.o(i.GPIO_EXTILineConfig) for GPIO_EXTILineConfig
    exti.o(i.EXTIx_Init) refers to stm32f10x_exti.o(i.EXTI_Init) for EXTI_Init
    exti.o(i.EXTIx_Init) refers to exti.o(i.EXTI_GetIRQn) for EXTI_GetIRQn
    exti.o(i.EXTIx_Init) refers to misc.o(i.NVIC_Init) for NVIC_Init
    exti.o(i.EXTIx_Init) refers to exti.o(.bss) for .bss
    exti.o(i.attachInterrupt) refers to exti.o(i.EXTIx_Init) for EXTIx_Init
    exti.o(i.detachInterrupt) refers to exti.o(i.EXTI_GetIRQn) for EXTI_GetIRQn
    gpio.o(i.GPIO_GetPinNum) refers to gpio.o(i.GPIO_GetPinSource) for GPIO_GetPinSource
    gpio.o(i.GPIO_GetPinNum) refers to gpio.o(.constdata) for .constdata
    gpio.o(i.GPIO_GetPortNum) refers to gpio.o(.constdata) for .constdata
    gpio.o(i.GPIO_JTAG_Disable) refers to stm32f10x_rcc.o(i.RCC_APB2PeriphClockCmd) for RCC_APB2PeriphClockCmd
    gpio.o(i.GPIO_JTAG_Disable) refers to stm32f10x_gpio.o(i.GPIO_PinRemapConfig) for GPIO_PinRemapConfig
    gpio.o(i.GPIOx_Init) refers to stm32f10x_rcc.o(i.RCC_APB2PeriphClockCmd) for RCC_APB2PeriphClockCmd
    gpio.o(i.GPIOx_Init) refers to stm32f10x_gpio.o(i.GPIO_Init) for GPIO_Init
    pwm.o(i.PWM_Init) refers to arduino.o(i.pinMode) for pinMode
    pwm.o(i.PWM_Init) refers to stm32f10x_tim.o(i.TIM_Cmd) for TIM_Cmd
    pwm.o(i.PWM_Init) refers to pwm.o(i.TIMx_OCxInit) for TIMx_OCxInit
    pwm.o(i.PWM_Init) refers to gpio.o(.constdata) for PIN_MAP
    pwm.o(i.PWM_Init) refers to system_stm32f10x.o(.data) for SystemCoreClock
    pwm.o(i.TIM_GetChannel) refers to gpio.o(.constdata) for PIN_MAP
    pwm.o(i.TIMx_OCxInit) refers to timer.o(i.Timer_ClockCmd) for Timer_ClockCmd
    pwm.o(i.TIMx_OCxInit) refers to stm32f10x_tim.o(i.TIM_TimeBaseInit) for TIM_TimeBaseInit
    pwm.o(i.TIMx_OCxInit) refers to stm32f10x_tim.o(i.TIM_OC1Init) for TIM_OC1Init
    pwm.o(i.TIMx_OCxInit) refers to stm32f10x_tim.o(i.TIM_OC1PreloadConfig) for TIM_OC1PreloadConfig
    pwm.o(i.TIMx_OCxInit) refers to stm32f10x_tim.o(i.TIM_OC2Init) for TIM_OC2Init
    pwm.o(i.TIMx_OCxInit) refers to stm32f10x_tim.o(i.TIM_OC2PreloadConfig) for TIM_OC2PreloadConfig
    pwm.o(i.TIMx_OCxInit) refers to stm32f10x_tim.o(i.TIM_OC3Init) for TIM_OC3Init
    pwm.o(i.TIMx_OCxInit) refers to stm32f10x_tim.o(i.TIM_OC3PreloadConfig) for TIM_OC3PreloadConfig
    pwm.o(i.TIMx_OCxInit) refers to stm32f10x_tim.o(i.TIM_OC4Init) for TIM_OC4Init
    pwm.o(i.TIMx_OCxInit) refers to stm32f10x_tim.o(i.TIM_OC4PreloadConfig) for TIM_OC4PreloadConfig
    pwm.o(i.TIMx_OCxInit) refers to stm32f10x_tim.o(i.TIM_Cmd) for TIM_Cmd
    pwm.o(i.TIMx_OCxInit) refers to stm32f10x_tim.o(i.TIM_CtrlPWMOutputs) for TIM_CtrlPWMOutputs
    pwm.o(i.pwmWrite) refers to gpio.o(.constdata) for PIN_MAP
    timer.o(i.Qsqrt) refers to scalbnf.o(x$fpl$scalbnf) for __ARM_scalbnf
    timer.o(i.Qsqrt) refers to fmul.o(x$fpl$fmul) for __aeabi_fmul
    timer.o(i.Qsqrt) refers to faddsub_clz.o(x$fpl$frsb) for __aeabi_frsub
    timer.o(i.Qsqrt) refers to fdiv.o(x$fpl$fdiv) for __aeabi_fdiv
    timer.o(i.TIM1_UP_IRQHandler) refers to stm32f10x_tim.o(i.TIM_GetITStatus) for TIM_GetITStatus
    timer.o(i.TIM1_UP_IRQHandler) refers to stm32f10x_tim.o(i.TIM_ClearITPendingBit) for TIM_ClearITPendingBit
    timer.o(i.TIM1_UP_IRQHandler) refers to timer.o(.bss) for .bss
    timer.o(i.TIM2_IRQHandler) refers to stm32f10x_tim.o(i.TIM_GetITStatus) for TIM_GetITStatus
    timer.o(i.TIM2_IRQHandler) refers to stm32f10x_tim.o(i.TIM_ClearITPendingBit) for TIM_ClearITPendingBit
    timer.o(i.TIM2_IRQHandler) refers to timer.o(.bss) for .bss
    timer.o(i.TIM3_IRQHandler) refers to stm32f10x_tim.o(i.TIM_GetITStatus) for TIM_GetITStatus
    timer.o(i.TIM3_IRQHandler) refers to stm32f10x_tim.o(i.TIM_ClearITPendingBit) for TIM_ClearITPendingBit
    timer.o(i.TIM3_IRQHandler) refers to timer.o(.bss) for .bss
    timer.o(i.TIM4_IRQHandler) refers to stm32f10x_tim.o(i.TIM_GetITStatus) for TIM_GetITStatus
    timer.o(i.TIM4_IRQHandler) refers to stm32f10x_tim.o(i.TIM_ClearITPendingBit) for TIM_ClearITPendingBit
    timer.o(i.TIM4_IRQHandler) refers to timer.o(.bss) for .bss
    timer.o(i.TIM5_IRQHandler) refers to stm32f10x_tim.o(i.TIM_GetITStatus) for TIM_GetITStatus
    timer.o(i.TIM5_IRQHandler) refers to stm32f10x_tim.o(i.TIM_ClearITPendingBit) for TIM_ClearITPendingBit
    timer.o(i.TIM5_IRQHandler) refers to timer.o(.bss) for .bss
    timer.o(i.TIM6_IRQHandler) refers to stm32f10x_tim.o(i.TIM_GetITStatus) for TIM_GetITStatus
    timer.o(i.TIM6_IRQHandler) refers to stm32f10x_tim.o(i.TIM_ClearITPendingBit) for TIM_ClearITPendingBit
    timer.o(i.TIM6_IRQHandler) refers to timer.o(.bss) for .bss
    timer.o(i.TIM7_IRQHandler) refers to stm32f10x_tim.o(i.TIM_GetITStatus) for TIM_GetITStatus
    timer.o(i.TIM7_IRQHandler) refers to stm32f10x_tim.o(i.TIM_ClearITPendingBit) for TIM_ClearITPendingBit
    timer.o(i.TIM7_IRQHandler) refers to timer.o(.bss) for .bss
    timer.o(i.TIM8_UP_IRQHandler) refers to stm32f10x_tim.o(i.TIM_GetITStatus) for TIM_GetITStatus
    timer.o(i.TIM8_UP_IRQHandler) refers to stm32f10x_tim.o(i.TIM_ClearITPendingBit) for TIM_ClearITPendingBit
    timer.o(i.TIM8_UP_IRQHandler) refers to timer.o(.bss) for .bss
    timer.o(i.Timer_ClockCmd) refers to stm32f10x_rcc.o(i.RCC_APB1PeriphClockCmd) for RCC_APB1PeriphClockCmd
    timer.o(i.Timer_ClockCmd) refers to stm32f10x_rcc.o(i.RCC_APB2PeriphClockCmd) for RCC_APB2PeriphClockCmd
    timer.o(i.Timer_FreqToArrPsc) refers to fflt_clz.o(x$fpl$ffltu) for __aeabi_ui2f
    timer.o(i.Timer_FreqToArrPsc) refers to timer.o(i.Qsqrt) for Qsqrt
    timer.o(i.Timer_FreqToArrPsc) refers to ffixu.o(x$fpl$ffixu) for __aeabi_f2uiz
    timer.o(i.Timer_GetClockOut) refers to system_stm32f10x.o(.data) for SystemCoreClock
    timer.o(i.Timer_SetInterrupt) refers to timer.o(i.Timer_TimeToArrPsc) for Timer_TimeToArrPsc
    timer.o(i.Timer_SetInterrupt) refers to timer.o(i.Timer_SetInterruptBase) for Timer_SetInterruptBase
    timer.o(i.Timer_SetInterrupt) refers to system_stm32f10x.o(.data) for SystemCoreClock
    timer.o(i.Timer_SetInterruptBase) refers to stm32f10x_tim.o(i.TIM_DeInit) for TIM_DeInit
    timer.o(i.Timer_SetInterruptBase) refers to timer.o(i.Timer_ClockCmd) for Timer_ClockCmd
    timer.o(i.Timer_SetInterruptBase) refers to stm32f10x_tim.o(i.TIM_TimeBaseInit) for TIM_TimeBaseInit
    timer.o(i.Timer_SetInterruptBase) refers to misc.o(i.NVIC_Init) for NVIC_Init
    timer.o(i.Timer_SetInterruptBase) refers to stm32f10x_tim.o(i.TIM_ClearFlag) for TIM_ClearFlag
    timer.o(i.Timer_SetInterruptBase) refers to stm32f10x_tim.o(i.TIM_ClearITPendingBit) for TIM_ClearITPendingBit
    timer.o(i.Timer_SetInterruptBase) refers to stm32f10x_tim.o(i.TIM_ITConfig) for TIM_ITConfig
    timer.o(i.Timer_SetInterruptBase) refers to timer.o(.bss) for .bss
    timer.o(i.Timer_SetInterruptFreqUpdate) refers to timer.o(i.Timer_FreqToArrPsc) for Timer_FreqToArrPsc
    timer.o(i.Timer_SetInterruptFreqUpdate) refers to stm32f10x_tim.o(i.TIM_SetAutoreload) for TIM_SetAutoreload
    timer.o(i.Timer_SetInterruptFreqUpdate) refers to stm32f10x_tim.o(i.TIM_PrescalerConfig) for TIM_PrescalerConfig
    timer.o(i.Timer_SetInterruptFreqUpdate) refers to system_stm32f10x.o(.data) for SystemCoreClock
    timer.o(i.Timer_SetInterruptTimeUpdate) refers to timer.o(i.Timer_TimeToArrPsc) for Timer_TimeToArrPsc
    timer.o(i.Timer_SetInterruptTimeUpdate) refers to stm32f10x_tim.o(i.TIM_SetAutoreload) for TIM_SetAutoreload
    timer.o(i.Timer_SetInterruptTimeUpdate) refers to stm32f10x_tim.o(i.TIM_PrescalerConfig) for TIM_PrescalerConfig
    timer.o(i.Timer_SetInterruptTimeUpdate) refers to system_stm32f10x.o(.data) for SystemCoreClock
    stm32f10x_adc.o(i.ADC_DeInit) refers to stm32f10x_rcc.o(i.RCC_APB2PeriphResetCmd) for RCC_APB2PeriphResetCmd
    stm32f10x_flash.o(i.FLASH_EnableWriteProtection) refers to stm32f10x_flash.o(i.FLASH_WaitForLastOperation) for FLASH_WaitForLastOperation
    stm32f10x_flash.o(i.FLASH_EraseAllBank1Pages) refers to stm32f10x_flash.o(i.FLASH_WaitForLastBank1Operation) for FLASH_WaitForLastBank1Operation
    stm32f10x_flash.o(i.FLASH_EraseAllPages) refers to stm32f10x_flash.o(i.FLASH_WaitForLastOperation) for FLASH_WaitForLastOperation
    stm32f10x_flash.o(i.FLASH_EraseOptionBytes) refers to stm32f10x_flash.o(i.FLASH_GetReadOutProtectionStatus) for FLASH_GetReadOutProtectionStatus
    stm32f10x_flash.o(i.FLASH_EraseOptionBytes) refers to stm32f10x_flash.o(i.FLASH_WaitForLastOperation) for FLASH_WaitForLastOperation
    stm32f10x_flash.o(i.FLASH_ErasePage) refers to stm32f10x_flash.o(i.FLASH_WaitForLastOperation) for FLASH_WaitForLastOperation
    stm32f10x_flash.o(i.FLASH_ProgramHalfWord) refers to stm32f10x_flash.o(i.FLASH_WaitForLastOperation) for FLASH_WaitForLastOperation
    stm32f10x_flash.o(i.FLASH_ProgramOptionByteData) refers to stm32f10x_flash.o(i.FLASH_WaitForLastOperation) for FLASH_WaitForLastOperation
    stm32f10x_flash.o(i.FLASH_ProgramWord) refers to stm32f10x_flash.o(i.FLASH_WaitForLastOperation) for FLASH_WaitForLastOperation
    stm32f10x_flash.o(i.FLASH_ReadOutProtection) refers to stm32f10x_flash.o(i.FLASH_WaitForLastOperation) for FLASH_WaitForLastOperation
    stm32f10x_flash.o(i.FLASH_UserOptionByteConfig) refers to stm32f10x_flash.o(i.FLASH_WaitForLastOperation) for FLASH_WaitForLastOperation
    stm32f10x_flash.o(i.FLASH_WaitForLastBank1Operation) refers to stm32f10x_flash.o(i.FLASH_GetBank1Status) for FLASH_GetBank1Status
    stm32f10x_flash.o(i.FLASH_WaitForLastOperation) refers to stm32f10x_flash.o(i.FLASH_GetBank1Status) for FLASH_GetBank1Status
    stm32f10x_gpio.o(i.GPIO_AFIODeInit) refers to stm32f10x_rcc.o(i.RCC_APB2PeriphResetCmd) for RCC_APB2PeriphResetCmd
    stm32f10x_gpio.o(i.GPIO_DeInit) refers to stm32f10x_rcc.o(i.RCC_APB2PeriphResetCmd) for RCC_APB2PeriphResetCmd
    stm32f10x_rcc.o(i.RCC_GetClocksFreq) refers to stm32f10x_rcc.o(.data) for .data
    stm32f10x_rcc.o(i.RCC_WaitForHSEStartUp) refers to stm32f10x_rcc.o(i.RCC_GetFlagStatus) for RCC_GetFlagStatus
    stm32f10x_spi.o(i.I2S_Init) refers to stm32f10x_rcc.o(i.RCC_GetClocksFreq) for RCC_GetClocksFreq
    stm32f10x_spi.o(i.SPI_I2S_DeInit) refers to stm32f10x_rcc.o(i.RCC_APB2PeriphResetCmd) for RCC_APB2PeriphResetCmd
    stm32f10x_spi.o(i.SPI_I2S_DeInit) refers to stm32f10x_rcc.o(i.RCC_APB1PeriphResetCmd) for RCC_APB1PeriphResetCmd
    stm32f10x_tim.o(i.TIM_DeInit) refers to stm32f10x_rcc.o(i.RCC_APB1PeriphResetCmd) for RCC_APB1PeriphResetCmd
    stm32f10x_tim.o(i.TIM_DeInit) refers to stm32f10x_rcc.o(i.RCC_APB2PeriphResetCmd) for RCC_APB2PeriphResetCmd
    stm32f10x_tim.o(i.TIM_ETRClockMode1Config) refers to stm32f10x_tim.o(i.TIM_ETRConfig) for TIM_ETRConfig
    stm32f10x_tim.o(i.TIM_ETRClockMode2Config) refers to stm32f10x_tim.o(i.TIM_ETRConfig) for TIM_ETRConfig
    stm32f10x_tim.o(i.TIM_ICInit) refers to stm32f10x_tim.o(i.TI1_Config) for TI1_Config
    stm32f10x_tim.o(i.TIM_ICInit) refers to stm32f10x_tim.o(i.TIM_SetIC1Prescaler) for TIM_SetIC1Prescaler
    stm32f10x_tim.o(i.TIM_ICInit) refers to stm32f10x_tim.o(i.TI2_Config) for TI2_Config
    stm32f10x_tim.o(i.TIM_ICInit) refers to stm32f10x_tim.o(i.TIM_SetIC2Prescaler) for TIM_SetIC2Prescaler
    stm32f10x_tim.o(i.TIM_ICInit) refers to stm32f10x_tim.o(i.TIM_SetIC3Prescaler) for TIM_SetIC3Prescaler
    stm32f10x_tim.o(i.TIM_ICInit) refers to stm32f10x_tim.o(i.TIM_SetIC4Prescaler) for TIM_SetIC4Prescaler
    stm32f10x_tim.o(i.TIM_ITRxExternalClockConfig) refers to stm32f10x_tim.o(i.TIM_SelectInputTrigger) for TIM_SelectInputTrigger
    stm32f10x_tim.o(i.TIM_PWMIConfig) refers to stm32f10x_tim.o(i.TI2_Config) for TI2_Config
    stm32f10x_tim.o(i.TIM_PWMIConfig) refers to stm32f10x_tim.o(i.TIM_SetIC2Prescaler) for TIM_SetIC2Prescaler
    stm32f10x_tim.o(i.TIM_PWMIConfig) refers to stm32f10x_tim.o(i.TI1_Config) for TI1_Config
    stm32f10x_tim.o(i.TIM_PWMIConfig) refers to stm32f10x_tim.o(i.TIM_SetIC1Prescaler) for TIM_SetIC1Prescaler
    stm32f10x_tim.o(i.TIM_TIxExternalClockConfig) refers to stm32f10x_tim.o(i.TI1_Config) for TI1_Config
    stm32f10x_tim.o(i.TIM_TIxExternalClockConfig) refers to stm32f10x_tim.o(i.TIM_SelectInputTrigger) for TIM_SelectInputTrigger
    stm32f10x_tim.o(i.TIM_TIxExternalClockConfig) refers to stm32f10x_tim.o(i.TI2_Config) for TI2_Config
    stm32f10x_usart.o(i.USART_DeInit) refers to stm32f10x_rcc.o(i.RCC_APB2PeriphResetCmd) for RCC_APB2PeriphResetCmd
    stm32f10x_usart.o(i.USART_DeInit) refers to stm32f10x_rcc.o(i.RCC_APB1PeriphResetCmd) for RCC_APB1PeriphResetCmd
    stm32f10x_usart.o(i.USART_Init) refers to stm32f10x_rcc.o(i.RCC_GetClocksFreq) for RCC_GetClocksFreq
    startup_stm32f10x_md.o(STACK) refers (Special) to heapauxi.o(.text) for __use_two_region_memory
    startup_stm32f10x_md.o(HEAP) refers (Special) to heapauxi.o(.text) for __use_two_region_memory
    startup_stm32f10x_md.o(RESET) refers (Special) to heapauxi.o(.text) for __use_two_region_memory
    startup_stm32f10x_md.o(RESET) refers to startup_stm32f10x_md.o(STACK) for __initial_sp
    startup_stm32f10x_md.o(RESET) refers to startup_stm32f10x_md.o(.text) for Reset_Handler
    startup_stm32f10x_md.o(RESET) refers to delay.o(i.SysTick_Handler) for SysTick_Handler
    startup_stm32f10x_md.o(RESET) refers to exti.o(i.EXTI0_IRQHandler) for EXTI0_IRQHandler
    startup_stm32f10x_md.o(RESET) refers to exti.o(i.EXTI1_IRQHandler) for EXTI1_IRQHandler
    startup_stm32f10x_md.o(RESET) refers to exti.o(i.EXTI2_IRQHandler) for EXTI2_IRQHandler
    startup_stm32f10x_md.o(RESET) refers to exti.o(i.EXTI3_IRQHandler) for EXTI3_IRQHandler
    startup_stm32f10x_md.o(RESET) refers to exti.o(i.EXTI4_IRQHandler) for EXTI4_IRQHandler
    startup_stm32f10x_md.o(RESET) refers to exti.o(i.EXTI9_5_IRQHandler) for EXTI9_5_IRQHandler
    startup_stm32f10x_md.o(RESET) refers to timer.o(i.TIM1_UP_IRQHandler) for TIM1_UP_IRQHandler
    startup_stm32f10x_md.o(RESET) refers to timer.o(i.TIM2_IRQHandler) for TIM2_IRQHandler
    startup_stm32f10x_md.o(RESET) refers to timer.o(i.TIM3_IRQHandler) for TIM3_IRQHandler
    startup_stm32f10x_md.o(RESET) refers to timer.o(i.TIM4_IRQHandler) for TIM4_IRQHandler
    startup_stm32f10x_md.o(RESET) refers to hardwareserial.o(i.USART1_IRQHandler) for USART1_IRQHandler
    startup_stm32f10x_md.o(RESET) refers to hardwareserial.o(i.USART2_IRQHandler) for USART2_IRQHandler
    startup_stm32f10x_md.o(RESET) refers to hardwareserial.o(i.USART3_IRQHandler) for USART3_IRQHandler
    startup_stm32f10x_md.o(RESET) refers to exti.o(i.EXTI15_10_IRQHandler) for EXTI15_10_IRQHandler
    startup_stm32f10x_md.o(.text) refers (Special) to heapauxi.o(.text) for __use_two_region_memory
    startup_stm32f10x_md.o(.text) refers to system_stm32f10x.o(i.SystemInit) for SystemInit
    startup_stm32f10x_md.o(.text) refers to __main.o(!!!main) for __main
    startup_stm32f10x_md.o(.text) refers to startup_stm32f10x_md.o(HEAP) for Heap_Mem
    startup_stm32f10x_md.o(.text) refers to startup_stm32f10x_md.o(STACK) for Stack_Mem
    system_stm32f10x.o(i.SystemCoreClockUpdate) refers to system_stm32f10x.o(.data) for .data
    system_stm32f10x.o(i.SystemInit) refers to system_stm32f10x.o(i.SetSysClockTo72) for SetSysClockTo72
    rt_ctype_table.o(.text) refers to rt_locale_intlibspace.o(.text) for __rt_locale
    rt_ctype_table.o(.text) refers to lc_ctype_c.o(locale$$code) for _get_lc_ctype
    free.o(.text) refers (Special) to hguard.o(.text) for __heap$guard
    free.o(.text) refers to rt_heap_descriptor_intlibspace.o(.text) for __rt_heap_descriptor
    free.o(.text) refers to heapstubs.o(.text) for __Heap_Free
    realloc.o(.text) refers (Special) to hguard.o(.text) for __heap$guard
    realloc.o(.text) refers to rt_heap_descriptor_intlibspace.o(.text) for __rt_heap_descriptor
    realloc.o(.text) refers to heapstubs.o(.text) for __Heap_Realloc
    realloc.o(.text) refers to h1_free.o(.text) for free
    realloc.o(.text) refers to h1_alloc.o(.text) for malloc
    h1_free.o(.text) refers to rt_heap_descriptor_intlibspace.o(.text) for __rt_heap_descriptor
    h1_realloc.o(.text) refers to rt_heap_descriptor_intlibspace.o(.text) for __rt_heap_descriptor
    h1_realloc.o(.text) refers to h1_free.o(.text) for free
    h1_realloc.o(.text) refers to h1_alloc.o(.text) for malloc
    h1_realloc.o(.text) refers to rt_memcpy_w.o(.text) for __aeabi_memcpy4
    h1_free_mt.o(.text) refers to rt_heap_descriptor_intlibspace.o(.text) for __rt_heap_descriptor
    h1_realloc_mt.o(.text) refers to rt_heap_descriptor_intlibspace.o(.text) for __rt_heap_descriptor
    h1_realloc_mt.o(.text) refers to h1_free_mt.o(.text) for _free_internal
    h1_realloc_mt.o(.text) refers to h1_free.o(.text) for free
    h1_realloc_mt.o(.text) refers to h1_alloc.o(.text) for malloc
    h1_realloc_mt.o(.text) refers to h1_alloc_mt.o(.text) for _malloc_internal
    h1_realloc_mt.o(.text) refers to rt_memcpy_w.o(.text) for __aeabi_memcpy4
    heap2.o(i._FDIterate) refers to heap2.o(.conststring) for .conststring
    heap2.o(i.___Heap_ProvideMemory$realtime) refers to fdtree.o(i._FDTree_Delete) for _FDTree_Delete
    heap2.o(i.___Heap_ProvideMemory$realtime) refers to fdtree.o(i._FDTree_Insert) for _FDTree_Insert
    heap2.o(i.___Heap_Stats$realtime) refers to heap2.o(i._Heap2_StatsIterate) for _Heap2_StatsIterate
    heap2.o(i.___Heap_Valid$realtime) refers to heap2.o(i._FDIterate) for _FDIterate
    heap2.o(i.___Heap_Valid$realtime) refers to heap2.o(.conststring) for .conststring
    heap2.o(i._free$realtime) refers to rt_heap_descriptor_intlibspace.o(.text) for __rt_heap_descriptor
    heap2.o(i._free$realtime) refers to fdtree.o(i._FDTree_Delete) for _FDTree_Delete
    heap2.o(i._free$realtime) refers to fdtree.o(i._FDTree_Insert) for _FDTree_Insert
    heap2.o(i._malloc$realtime) refers to rt_heap_descriptor_intlibspace.o(.text) for __rt_heap_descriptor
    heap2.o(i._malloc$realtime) refers to fdtree.o(i._FDTree_FindFirst) for _FDTree_FindFirst
    heap2.o(i._malloc$realtime) refers to init_alloc.o(.text) for __Heap_Full
    heap2.o(i._malloc$realtime) refers to fdtree.o(i._FDTree_RemoveNode) for _FDTree_RemoveNode
    heap2.o(i._malloc$realtime) refers to fdtree.o(i._FDTree_Insert) for _FDTree_Insert
    heap2.o(i._posix_memalign$realtime) refers to rt_heap_descriptor_intlibspace.o(.text) for __rt_heap_descriptor
    heap2.o(i._posix_memalign$realtime) refers to fdtree.o(i._FDTree_FindFirst) for _FDTree_FindFirst
    heap2.o(i._posix_memalign$realtime) refers to init_alloc.o(.text) for __Heap_Full
    heap2.o(i._posix_memalign$realtime) refers to fdtree.o(i._FDTree_RemoveNode) for _FDTree_RemoveNode
    heap2.o(i._posix_memalign$realtime) refers to fdtree.o(i._FDTree_Insert) for _FDTree_Insert
    heap2.o(i._realloc$realtime) refers to rt_heap_descriptor_intlibspace.o(.text) for __rt_heap_descriptor
    heap2.o(i._realloc$realtime) refers to fdtree.o(i._FDTree_Insert) for _FDTree_Insert
    heap2.o(i._realloc$realtime) refers to h1_free.o(.text) for free
    heap2.o(i._realloc$realtime) refers to h1_alloc.o(.text) for malloc
    heap2.o(i._realloc$realtime) refers to fdtree.o(i._FDTree_Delete) for _FDTree_Delete
    heap2.o(i._realloc$realtime) refers to rt_memcpy_w.o(.text) for __aeabi_memcpy4
    heap2mt.o(i._FDIterate) refers to heap2mt.o(.conststring) for .conststring
    heap2mt.o(i.___Heap_Initialize$realtime$concurrent) refers to mutex_dummy.o(.text) for _mutex_initialize
    heap2mt.o(i.___Heap_ProvideMemory$realtime$concurrent) refers to fdtree.o(i._FDTree_Delete) for _FDTree_Delete
    heap2mt.o(i.___Heap_ProvideMemory$realtime$concurrent) refers to fdtree.o(i._FDTree_Insert) for _FDTree_Insert
    heap2mt.o(i.___Heap_Stats$realtime$concurrent) refers to heap2mt.o(i._Heap2_StatsIterate) for _Heap2_StatsIterate
    heap2mt.o(i.___Heap_Valid$realtime$concurrent) refers to heap2mt.o(i._FDIterate) for _FDIterate
    heap2mt.o(i.___Heap_Valid$realtime$concurrent) refers to heap2mt.o(.conststring) for .conststring
    heap2mt.o(i._free$realtime$concurrent) refers to rt_heap_descriptor_intlibspace.o(.text) for __rt_heap_descriptor
    heap2mt.o(i._free$realtime$concurrent) refers to fdtree.o(i._FDTree_Delete) for _FDTree_Delete
    heap2mt.o(i._free$realtime$concurrent) refers to fdtree.o(i._FDTree_Insert) for _FDTree_Insert
    heap2mt.o(i._malloc$realtime$concurrent) refers to rt_heap_descriptor_intlibspace.o(.text) for __rt_heap_descriptor
    heap2mt.o(i._malloc$realtime$concurrent) refers to fdtree.o(i._FDTree_FindFirst) for _FDTree_FindFirst
    heap2mt.o(i._malloc$realtime$concurrent) refers to init_alloc.o(.text) for __Heap_Full
    heap2mt.o(i._malloc$realtime$concurrent) refers to fdtree.o(i._FDTree_RemoveNode) for _FDTree_RemoveNode
    heap2mt.o(i._malloc$realtime$concurrent) refers to fdtree.o(i._FDTree_Insert) for _FDTree_Insert
    heap2mt.o(i._posix_memalign$realtime$concurrent) refers to rt_heap_descriptor_intlibspace.o(.text) for __rt_heap_descriptor
    heap2mt.o(i._posix_memalign$realtime$concurrent) refers to fdtree.o(i._FDTree_FindFirst) for _FDTree_FindFirst
    heap2mt.o(i._posix_memalign$realtime$concurrent) refers to init_alloc.o(.text) for __Heap_Full
    heap2mt.o(i._posix_memalign$realtime$concurrent) refers to fdtree.o(i._FDTree_RemoveNode) for _FDTree_RemoveNode
    heap2mt.o(i._posix_memalign$realtime$concurrent) refers to fdtree.o(i._FDTree_Insert) for _FDTree_Insert
    heap2mt.o(i._realloc$realtime$concurrent) refers to rt_heap_descriptor_intlibspace.o(.text) for __rt_heap_descriptor
    heap2mt.o(i._realloc$realtime$concurrent) refers to fdtree.o(i._FDTree_Insert) for _FDTree_Insert
    heap2mt.o(i._realloc$realtime$concurrent) refers to h1_free.o(.text) for free
    heap2mt.o(i._realloc$realtime$concurrent) refers to h1_alloc.o(.text) for malloc
    heap2mt.o(i._realloc$realtime$concurrent) refers to fdtree.o(i._FDTree_Delete) for _FDTree_Delete
    heap2mt.o(i._realloc$realtime$concurrent) refers to rt_memcpy_w.o(.text) for __aeabi_memcpy4
    llsdiv.o(.text) refers to lludivv7m.o(.text) for __aeabi_uldivmod
    tolower.o(.text) refers to rt_ctype_table.o(.text) for __rt_ctype_table
    toupper.o(.text) refers to rt_ctype_table.o(.text) for __rt_ctype_table
    c89vsnprintf.o(.text) refers (Special) to _printf_a.o(.ARM.Collect$$_printf_percent$$00000006) for _printf_a
    c89vsnprintf.o(.text) refers (Special) to _printf_c.o(.ARM.Collect$$_printf_percent$$00000013) for _printf_c
    c89vsnprintf.o(.text) refers (Special) to _printf_charcount.o(.text) for _printf_charcount
    c89vsnprintf.o(.text) refers (Special) to _printf_d.o(.ARM.Collect$$_printf_percent$$00000009) for _printf_d
    c89vsnprintf.o(.text) refers (Special) to _printf_e.o(.ARM.Collect$$_printf_percent$$00000004) for _printf_e
    c89vsnprintf.o(.text) refers (Special) to _printf_f.o(.ARM.Collect$$_printf_percent$$00000003) for _printf_f
    c89vsnprintf.o(.text) refers (Special) to printf1.o(x$fpl$printf1) for _printf_fp_dec
    c89vsnprintf.o(.text) refers (Special) to _printf_g.o(.ARM.Collect$$_printf_percent$$00000005) for _printf_g
    c89vsnprintf.o(.text) refers (Special) to _printf_i.o(.ARM.Collect$$_printf_percent$$00000008) for _printf_i
    c89vsnprintf.o(.text) refers (Special) to _printf_dec.o(.text) for _printf_int_dec
    c89vsnprintf.o(.text) refers (Special) to _printf_l.o(.ARM.Collect$$_printf_percent$$00000012) for _printf_l
    c89vsnprintf.o(.text) refers (Special) to _printf_lc.o(.ARM.Collect$$_printf_percent$$00000015) for _printf_lc
    c89vsnprintf.o(.text) refers (Special) to _printf_ll.o(.ARM.Collect$$_printf_percent$$00000007) for _printf_ll
    c89vsnprintf.o(.text) refers (Special) to _printf_lld.o(.ARM.Collect$$_printf_percent$$0000000E) for _printf_lld
    c89vsnprintf.o(.text) refers (Special) to _printf_lli.o(.ARM.Collect$$_printf_percent$$0000000D) for _printf_lli
    c89vsnprintf.o(.text) refers (Special) to _printf_llo.o(.ARM.Collect$$_printf_percent$$00000010) for _printf_llo
    c89vsnprintf.o(.text) refers (Special) to _printf_llu.o(.ARM.Collect$$_printf_percent$$0000000F) for _printf_llu
    c89vsnprintf.o(.text) refers (Special) to _printf_llx.o(.ARM.Collect$$_printf_percent$$00000011) for _printf_llx
    c89vsnprintf.o(.text) refers (Special) to _printf_longlong_dec.o(.text) for _printf_longlong_dec
    c89vsnprintf.o(.text) refers (Special) to _printf_hex_int_ll_ptr.o(.text) for _printf_longlong_hex
    c89vsnprintf.o(.text) refers (Special) to _printf_oct_int_ll.o(.text) for _printf_longlong_oct
    c89vsnprintf.o(.text) refers (Special) to _printf_ls.o(.ARM.Collect$$_printf_percent$$00000016) for _printf_ls
    c89vsnprintf.o(.text) refers (Special) to _printf_n.o(.ARM.Collect$$_printf_percent$$00000001) for _printf_n
    c89vsnprintf.o(.text) refers (Special) to _printf_o.o(.ARM.Collect$$_printf_percent$$0000000B) for _printf_o
    c89vsnprintf.o(.text) refers (Special) to _printf_p.o(.ARM.Collect$$_printf_percent$$00000002) for _printf_p
    c89vsnprintf.o(.text) refers (Special) to _printf_percent.o(.ARM.Collect$$_printf_percent$$00000000) for _printf_percent
    c89vsnprintf.o(.text) refers (Special) to _printf_pad.o(.text) for _printf_post_padding
    c89vsnprintf.o(.text) refers (Special) to _printf_s.o(.ARM.Collect$$_printf_percent$$00000014) for _printf_s
    c89vsnprintf.o(.text) refers (Special) to _printf_str.o(.text) for _printf_str
    c89vsnprintf.o(.text) refers (Special) to _printf_truncate.o(.text) for _printf_truncate_signed
    c89vsnprintf.o(.text) refers (Special) to _printf_u.o(.ARM.Collect$$_printf_percent$$0000000A) for _printf_u
    c89vsnprintf.o(.text) refers (Special) to _printf_wctomb.o(.text) for _printf_wctomb
    c89vsnprintf.o(.text) refers (Special) to _printf_x.o(.ARM.Collect$$_printf_percent$$0000000C) for _printf_x
    c89vsnprintf.o(.text) refers to _printf_char_common.o(.text) for _printf_char_common
    c89vsnprintf.o(.text) refers to _sputc.o(.text) for _sputc
    c89vsnprintf.o(.text) refers to _snputc.o(.text) for _snputc
    __2sprintf.o(.text) refers to _printf_char_common.o(.text) for _printf_char_common
    __2sprintf.o(.text) refers to _sputc.o(.text) for _sputc
    noretval__2sprintf.o(.text) refers to _printf_char_common.o(.text) for _printf_char_common
    noretval__2sprintf.o(.text) refers to _sputc.o(.text) for _sputc
    __printf.o(.text) refers to _printf_percent.o(.ARM.Collect$$_printf_percent$$00000000) for _printf_percent
    _printf_dec.o(.text) refers (Weak) to _printf_truncate.o(.text) for _printf_truncate_signed
    _printf_dec.o(.text) refers (Weak) to _printf_truncate.o(.text) for _printf_truncate_unsigned
    _printf_dec.o(.text) refers to _printf_intcommon.o(.text) for _printf_int_common
    __printf_flags.o(.text) refers to _printf_percent.o(.ARM.Collect$$_printf_percent$$00000000) for _printf_percent
    __printf_flags.o(.text) refers to __printf_flags.o(.constdata) for .constdata
    __printf_ss.o(.text) refers to _printf_percent.o(.ARM.Collect$$_printf_percent$$00000000) for _printf_percent
    __printf_flags_ss.o(.text) refers to _printf_percent.o(.ARM.Collect$$_printf_percent$$00000000) for _printf_percent
    __printf_flags_ss.o(.text) refers to __printf_flags_ss.o(.constdata) for .constdata
    __printf_wp.o(.text) refers to __printf_wp.o(i._is_digit) for _is_digit
    __printf_wp.o(.text) refers to _printf_percent.o(.ARM.Collect$$_printf_percent$$00000000) for _printf_percent
    __printf_flags_wp.o(.text) refers to __printf_wp.o(i._is_digit) for _is_digit
    __printf_flags_wp.o(.text) refers to _printf_percent.o(.ARM.Collect$$_printf_percent$$00000000) for _printf_percent
    __printf_flags_wp.o(.text) refers to __printf_flags_wp.o(.constdata) for .constdata
    __printf_ss_wp.o(.text) refers to __printf_wp.o(i._is_digit) for _is_digit
    __printf_ss_wp.o(.text) refers to _printf_percent.o(.ARM.Collect$$_printf_percent$$00000000) for _printf_percent
    __printf_flags_ss_wp.o(.text) refers to __printf_wp.o(i._is_digit) for _is_digit
    __printf_flags_ss_wp.o(.text) refers to _printf_percent.o(.ARM.Collect$$_printf_percent$$00000000) for _printf_percent
    __printf_flags_ss_wp.o(.text) refers to __printf_flags_ss_wp.o(.constdata) for .constdata
    _printf_d.o(.ARM.Collect$$_printf_percent$$00000009) refers (Weak) to _printf_dec.o(.text) for _printf_int_dec
    _printf_f.o(.ARM.Collect$$_printf_percent$$00000003) refers (Weak) to printf1.o(x$fpl$printf1) for _printf_fp_dec
    _printf_e.o(.ARM.Collect$$_printf_percent$$00000004) refers (Weak) to printf1.o(x$fpl$printf1) for _printf_fp_dec
    _printf_g.o(.ARM.Collect$$_printf_percent$$00000005) refers (Weak) to printf1.o(x$fpl$printf1) for _printf_fp_dec
    _printf_a.o(.ARM.Collect$$_printf_percent$$00000006) refers (Weak) to printf2.o(x$fpl$printf2) for _printf_fp_hex
    _printf_percent.o(.ARM.Collect$$_printf_percent$$00000000) refers (Special) to _printf_percent_end.o(.ARM.Collect$$_printf_percent$$00000017) for _printf_percent_end
    atol.o(.text) refers to rt_errno_addr_intlibspace.o(.text) for __aeabi_errno_addr
    atol.o(.text) refers to strtol.o(.text) for strtol
    rand.o(.emb_text) refers (Special) to libinit2.o(.ARM.Collect$$libinit$$0000000D) for __rt_lib_init_rand_2
    rand.o(.emb_text) refers to rand.o(.text) for _rand_init
    rand.o(.emb_text) refers to rand.o(.bss) for _random_number_data
    rand.o(.text) refers (Special) to libinit2.o(.ARM.Collect$$libinit$$0000000D) for __rt_lib_init_rand_2
    rand.o(.text) refers to rand.o(.bss) for .bss
    rand.o(.bss) refers (Special) to libinit2.o(.ARM.Collect$$libinit$$0000000D) for __rt_lib_init_rand_2
    atexit_aeabi.o(.text) refers to aeabi_atexit.o(.text) for __aeabi_atexit
    atexit_aeabi.o(.ARM.exidx) refers to atexit_aeabi.o(.text) for .text
    aeabi_atexit.o(.text) refers (Special) to cxa_finalize.o(.text) for __cxa_finalize
    aeabi_atexit.o(.text) refers to h1_alloc.o(.text) for malloc
    aeabi_atexit.o(.text) refers to rt_ddtor_pointer_addr_intlibspace.o(.text) for __rt_ddtor_pointer_addr
    aeabi_atexit.o(.ARM.exidx) refers (Special) to cxa_finalize.o(.text) for __cxa_finalize
    aeabi_atexit.o(.ARM.exidx) refers to aeabi_atexit.o(.text) for .text
    rt_memcpy_v6.o(.text) refers to rt_memcpy_w.o(.text) for __aeabi_memcpy4
    rt_memmove_v6.o(.text) refers to rt_memcpy_v6.o(.text) for __aeabi_memcpy
    rt_memmove_v6.o(.text) refers to rt_memmove_w.o(.text) for __memmove_aligned
    rt_memclr.o(.text) refers to rt_memclr_w.o(.text) for _memset_w
    strncpy.o(.text) refers to rt_memclr.o(.text) for __aeabi_memclr
    __main.o(!!!main) refers to __rtentry.o(.ARM.Collect$$rtentry$$00000000) for __rt_entry
    init_aeabi.o(.emb_text) refers (Special) to libinit2.o(.ARM.Collect$$libinit$$00000031) for __rt_lib_init_cpp_2
    init_aeabi.o(.init_array) refers (Special) to libinit2.o(.ARM.Collect$$libinit$$00000031) for __rt_lib_init_cpp_2
    init_aeabi.o(.init_array) refers to init_aeabi.o(.text) for __cpp_initialize__aeabi_
    init_aeabi.o(.dummy_text) refers (Special) to libinit2.o(.ARM.Collect$$libinit$$00000031) for __rt_lib_init_cpp_2
    init_aeabi.o(.text) refers (Special) to libinit2.o(.ARM.Collect$$libinit$$00000031) for __rt_lib_init_cpp_2
    init_aeabi.o(.ARM.exidx) refers (Special) to libinit2.o(.ARM.Collect$$libinit$$00000031) for __rt_lib_init_cpp_2
    init_aeabi.o(.ARM.exidx) refers to init_aeabi.o(.text) for .text
    delete.o(i._ZdlPv) refers to h1_free.o(.text) for free
    delete.o(.ARM.exidx) refers to delete.o(i._ZdlPv) for i._ZdlPv
    pure_virt.o(i.__cxa_pure_virtual) refers to defsig_pvfn_outer.o(.text) for __rt_SIGPVFN
    pure_virt.o(.ARM.exidx) refers to pure_virt.o(i.__cxa_pure_virtual) for i.__cxa_pure_virtual
    lib_rtti_impl.o(i._ZN10__cxxabiv116__enum_type_infoD0Ev) refers to lib_rtti_impl.o(i._ZN10__cxxabiv116__enum_type_infoD1Ev) for __cxxabiv1::__enum_type_info::~__enum_type_info()
    lib_rtti_impl.o(i._ZN10__cxxabiv117__array_type_infoD0Ev) refers to lib_rtti_impl.o(i._ZN10__cxxabiv117__array_type_infoD1Ev) for __cxxabiv1::__array_type_info::~__array_type_info()
    lib_rtti_impl.o(i._ZN10__cxxabiv117__class_type_infoD0Ev) refers to lib_rtti_impl.o(i._ZN10__cxxabiv117__class_type_infoD1Ev) for __cxxabiv1::__class_type_info::~__class_type_info()
    lib_rtti_impl.o(i._ZN10__cxxabiv117__pbase_type_infoD0Ev) refers to lib_rtti_impl.o(i._ZN10__cxxabiv117__pbase_type_infoD1Ev) for __cxxabiv1::__pbase_type_info::~__pbase_type_info()
    lib_rtti_impl.o(i._ZN10__cxxabiv119__pointer_type_infoD0Ev) refers to lib_rtti_impl.o(i._ZN10__cxxabiv119__pointer_type_infoD1Ev) for __cxxabiv1::__pointer_type_info::~__pointer_type_info()
    lib_rtti_impl.o(i._ZN10__cxxabiv119__pointer_type_infoD1Ev) refers to lib_rtti_impl.o(i._ZN10__cxxabiv117__pbase_type_infoD1Ev) for __cxxabiv1::__pbase_type_info::~__pbase_type_info()
    lib_rtti_impl.o(i._ZN10__cxxabiv120__function_type_infoD0Ev) refers to lib_rtti_impl.o(i._ZN10__cxxabiv120__function_type_infoD1Ev) for __cxxabiv1::__function_type_info::~__function_type_info()
    lib_rtti_impl.o(i._ZN10__cxxabiv120__si_class_type_infoD0Ev) refers to lib_rtti_impl.o(i._ZN10__cxxabiv120__si_class_type_infoD1Ev) for __cxxabiv1::__si_class_type_info::~__si_class_type_info()
    lib_rtti_impl.o(i._ZN10__cxxabiv120__si_class_type_infoD1Ev) refers to lib_rtti_impl.o(i._ZN10__cxxabiv117__class_type_infoD1Ev) for __cxxabiv1::__class_type_info::~__class_type_info()
    lib_rtti_impl.o(i._ZN10__cxxabiv121__vmi_class_type_infoD0Ev) refers to lib_rtti_impl.o(i._ZN10__cxxabiv121__vmi_class_type_infoD1Ev) for __cxxabiv1::__vmi_class_type_info::~__vmi_class_type_info()
    lib_rtti_impl.o(i._ZN10__cxxabiv121__vmi_class_type_infoD1Ev) refers to lib_rtti_impl.o(i._ZN10__cxxabiv117__class_type_infoD1Ev) for __cxxabiv1::__class_type_info::~__class_type_info()
    lib_rtti_impl.o(i._ZN10__cxxabiv123__fundamental_type_infoD0Ev) refers to lib_rtti_impl.o(i._ZN10__cxxabiv123__fundamental_type_infoD1Ev) for __cxxabiv1::__fundamental_type_info::~__fundamental_type_info()
    lib_rtti_impl.o(i._ZN10__cxxabiv129__pointer_to_member_type_infoD0Ev) refers to lib_rtti_impl.o(i._ZN10__cxxabiv129__pointer_to_member_type_infoD1Ev) for __cxxabiv1::__pointer_to_member_type_info::~__pointer_to_member_type_info()
    lib_rtti_impl.o(i._ZN10__cxxabiv129__pointer_to_member_type_infoD1Ev) refers to lib_rtti_impl.o(i._ZN10__cxxabiv117__pbase_type_infoD1Ev) for __cxxabiv1::__pbase_type_info::~__pbase_type_info()
    lib_rtti_impl.o(.ARM.exidx) refers to lib_rtti_impl.o(i._ZN10__cxxabiv123__fundamental_type_infoD1Ev) for i._ZN10__cxxabiv123__fundamental_type_infoD1Ev
    lib_rtti_impl.o(.ARM.exidx) refers to lib_rtti_impl.o(i._ZN10__cxxabiv123__fundamental_type_infoD0Ev) for i._ZN10__cxxabiv123__fundamental_type_infoD0Ev
    lib_rtti_impl.o(.ARM.exidx) refers to lib_rtti_impl.o(i._ZN10__cxxabiv117__array_type_infoD1Ev) for i._ZN10__cxxabiv117__array_type_infoD1Ev
    lib_rtti_impl.o(.ARM.exidx) refers to lib_rtti_impl.o(i._ZN10__cxxabiv117__array_type_infoD0Ev) for i._ZN10__cxxabiv117__array_type_infoD0Ev
    lib_rtti_impl.o(.ARM.exidx) refers to lib_rtti_impl.o(i._ZN10__cxxabiv120__function_type_infoD1Ev) for i._ZN10__cxxabiv120__function_type_infoD1Ev
    lib_rtti_impl.o(.ARM.exidx) refers to lib_rtti_impl.o(i._ZN10__cxxabiv120__function_type_infoD0Ev) for i._ZN10__cxxabiv120__function_type_infoD0Ev
    lib_rtti_impl.o(.ARM.exidx) refers to lib_rtti_impl.o(i._ZN10__cxxabiv116__enum_type_infoD1Ev) for i._ZN10__cxxabiv116__enum_type_infoD1Ev
    lib_rtti_impl.o(.ARM.exidx) refers to lib_rtti_impl.o(i._ZN10__cxxabiv116__enum_type_infoD0Ev) for i._ZN10__cxxabiv116__enum_type_infoD0Ev
    lib_rtti_impl.o(.ARM.exidx) refers to lib_rtti_impl.o(i._ZN10__cxxabiv117__class_type_infoD1Ev) for i._ZN10__cxxabiv117__class_type_infoD1Ev
    lib_rtti_impl.o(.ARM.exidx) refers to lib_rtti_impl.o(i._ZN10__cxxabiv117__class_type_infoD0Ev) for i._ZN10__cxxabiv117__class_type_infoD0Ev
    lib_rtti_impl.o(.ARM.exidx) refers to lib_rtti_impl.o(i._ZN10__cxxabiv120__si_class_type_infoD1Ev) for i._ZN10__cxxabiv120__si_class_type_infoD1Ev
    lib_rtti_impl.o(.ARM.exidx) refers to lib_rtti_impl.o(i._ZN10__cxxabiv120__si_class_type_infoD0Ev) for i._ZN10__cxxabiv120__si_class_type_infoD0Ev
    lib_rtti_impl.o(.ARM.exidx) refers to lib_rtti_impl.o(i._ZN10__cxxabiv121__vmi_class_type_infoD1Ev) for i._ZN10__cxxabiv121__vmi_class_type_infoD1Ev
    lib_rtti_impl.o(.ARM.exidx) refers to lib_rtti_impl.o(i._ZN10__cxxabiv121__vmi_class_type_infoD0Ev) for i._ZN10__cxxabiv121__vmi_class_type_infoD0Ev
    lib_rtti_impl.o(.ARM.exidx) refers to lib_rtti_impl.o(i._ZN10__cxxabiv117__pbase_type_infoD1Ev) for i._ZN10__cxxabiv117__pbase_type_infoD1Ev
    lib_rtti_impl.o(.ARM.exidx) refers to lib_rtti_impl.o(i._ZN10__cxxabiv117__pbase_type_infoD0Ev) for i._ZN10__cxxabiv117__pbase_type_infoD0Ev
    lib_rtti_impl.o(.ARM.exidx) refers to lib_rtti_impl.o(i._ZN10__cxxabiv119__pointer_type_infoD1Ev) for i._ZN10__cxxabiv119__pointer_type_infoD1Ev
    lib_rtti_impl.o(.ARM.exidx) refers to lib_rtti_impl.o(i._ZN10__cxxabiv119__pointer_type_infoD0Ev) for i._ZN10__cxxabiv119__pointer_type_infoD0Ev
    lib_rtti_impl.o(.ARM.exidx) refers to lib_rtti_impl.o(i._ZN10__cxxabiv129__pointer_to_member_type_infoD1Ev) for i._ZN10__cxxabiv129__pointer_to_member_type_infoD1Ev
    lib_rtti_impl.o(.ARM.exidx) refers to lib_rtti_impl.o(i._ZN10__cxxabiv129__pointer_to_member_type_infoD0Ev) for i._ZN10__cxxabiv129__pointer_to_member_type_infoD0Ev
    d2f.o(x$fpl$d2f) refers (Special) to usenofp.o(x$fpl$usenofp) for __I$use$fp
    d2f.o(x$fpl$d2f) refers to fretinf.o(x$fpl$fretinf) for __fpl_fretinf
    d2f.o(x$fpl$d2f) refers to dnaninf.o(x$fpl$dnaninf) for __fpl_dnaninf
    daddsub_clz.o(x$fpl$dadd) refers (Special) to usenofp.o(x$fpl$usenofp) for __I$use$fp
    daddsub_clz.o(x$fpl$dadd) refers to daddsub_clz.o(x$fpl$dsub) for _dsub1
    daddsub_clz.o(x$fpl$dadd) refers to dretinf.o(x$fpl$dretinf) for __fpl_dretinf
    daddsub_clz.o(x$fpl$dadd) refers to dnaninf.o(x$fpl$dnaninf) for __fpl_dnaninf
    daddsub_clz.o(x$fpl$drsb) refers (Special) to usenofp.o(x$fpl$usenofp) for __I$use$fp
    daddsub_clz.o(x$fpl$drsb) refers to daddsub_clz.o(x$fpl$dadd) for _dadd1
    daddsub_clz.o(x$fpl$drsb) refers to daddsub_clz.o(x$fpl$dsub) for _dsub1
    daddsub_clz.o(x$fpl$dsub) refers (Special) to usenofp.o(x$fpl$usenofp) for __I$use$fp
    daddsub_clz.o(x$fpl$dsub) refers to daddsub_clz.o(x$fpl$dadd) for _dadd1
    daddsub_clz.o(x$fpl$dsub) refers to dnaninf.o(x$fpl$dnaninf) for __fpl_dnaninf
    ddiv.o(x$fpl$drdiv) refers (Special) to usenofp.o(x$fpl$usenofp) for __I$use$fp
    ddiv.o(x$fpl$drdiv) refers to ddiv.o(x$fpl$ddiv) for ddiv_entry
    ddiv.o(x$fpl$ddiv) refers (Special) to usenofp.o(x$fpl$usenofp) for __I$use$fp
    ddiv.o(x$fpl$ddiv) refers to dretinf.o(x$fpl$dretinf) for __fpl_dretinf
    ddiv.o(x$fpl$ddiv) refers to dnaninf.o(x$fpl$dnaninf) for __fpl_dnaninf
    dfix.o(x$fpl$dfix) refers (Special) to usenofp.o(x$fpl$usenofp) for __I$use$fp
    dfix.o(x$fpl$dfix) refers to dnaninf.o(x$fpl$dnaninf) for __fpl_dnaninf
    dfix.o(x$fpl$dfixr) refers (Special) to usenofp.o(x$fpl$usenofp) for __I$use$fp
    dfix.o(x$fpl$dfixr) refers to dnaninf.o(x$fpl$dnaninf) for __fpl_dnaninf
    dfixll.o(x$fpl$llsfromd) refers (Special) to usenofp.o(x$fpl$usenofp) for __I$use$fp
    dfixll.o(x$fpl$llsfromd) refers to dnaninf.o(x$fpl$dnaninf) for __fpl_dnaninf
    dfixll.o(x$fpl$llsfromdr) refers (Special) to usenofp.o(x$fpl$usenofp) for __I$use$fp
    dfixll.o(x$fpl$llsfromdr) refers to dnaninf.o(x$fpl$dnaninf) for __fpl_dnaninf
    dfixu.o(x$fpl$dfixu) refers (Special) to usenofp.o(x$fpl$usenofp) for __I$use$fp
    dfixu.o(x$fpl$dfixu) refers to dnaninf.o(x$fpl$dnaninf) for __fpl_dnaninf
    dfixu.o(x$fpl$dfixur) refers (Special) to usenofp.o(x$fpl$usenofp) for __I$use$fp
    dfixu.o(x$fpl$dfixur) refers to dnaninf.o(x$fpl$dnaninf) for __fpl_dnaninf
    dflt_clz.o(x$fpl$dfltu) refers (Special) to usenofp.o(x$fpl$usenofp) for __I$use$fp
    dflt_clz.o(x$fpl$dflt) refers (Special) to usenofp.o(x$fpl$usenofp) for __I$use$fp
    dflt_clz.o(x$fpl$dfltn) refers (Special) to usenofp.o(x$fpl$usenofp) for __I$use$fp
    dfltll_clz.o(x$fpl$dfltll) refers (Special) to usenofp.o(x$fpl$usenofp) for __I$use$fp
    dfltll_clz.o(x$fpl$dfltull) refers (Special) to usenofp.o(x$fpl$usenofp) for __I$use$fp
    dleqf.o(x$fpl$dleqf) refers (Special) to usenofp.o(x$fpl$usenofp) for __I$use$fp
    dleqf.o(x$fpl$dleqf) refers to dnaninf.o(x$fpl$dnaninf) for __fpl_dnaninf
    dleqf.o(x$fpl$dleqf) refers to dcmpi.o(x$fpl$dcmpinf) for __fpl_dcmp_Inf
    dmul.o(x$fpl$dmul) refers (Special) to usenofp.o(x$fpl$usenofp) for __I$use$fp
    dmul.o(x$fpl$dmul) refers to dretinf.o(x$fpl$dretinf) for __fpl_dretinf
    dmul.o(x$fpl$dmul) refers to dnaninf.o(x$fpl$dnaninf) for __fpl_dnaninf
    drleqf.o(x$fpl$drleqf) refers (Special) to usenofp.o(x$fpl$usenofp) for __I$use$fp
    drleqf.o(x$fpl$drleqf) refers to dleqf.o(x$fpl$dleqf) for __fpl_dcmple_InfNaN
    f2d.o(x$fpl$f2d) refers (Special) to usenofp.o(x$fpl$usenofp) for __I$use$fp
    f2d.o(x$fpl$f2d) refers to fnaninf.o(x$fpl$fnaninf) for __fpl_fnaninf
    f2d.o(x$fpl$f2d) refers to dretinf.o(x$fpl$dretinf) for __fpl_dretinf
    faddsub_clz.o(x$fpl$fadd) refers (Special) to usenofp.o(x$fpl$usenofp) for __I$use$fp
    faddsub_clz.o(x$fpl$fadd) refers to faddsub_clz.o(x$fpl$fsub) for _fsub1
    faddsub_clz.o(x$fpl$fadd) refers to fretinf.o(x$fpl$fretinf) for __fpl_fretinf
    faddsub_clz.o(x$fpl$fadd) refers to fnaninf.o(x$fpl$fnaninf) for __fpl_fnaninf
    faddsub_clz.o(x$fpl$frsb) refers (Special) to usenofp.o(x$fpl$usenofp) for __I$use$fp
    faddsub_clz.o(x$fpl$frsb) refers to faddsub_clz.o(x$fpl$fadd) for _fadd1
    faddsub_clz.o(x$fpl$frsb) refers to faddsub_clz.o(x$fpl$fsub) for _fsub1
    faddsub_clz.o(x$fpl$fsub) refers (Special) to usenofp.o(x$fpl$usenofp) for __I$use$fp
    faddsub_clz.o(x$fpl$fsub) refers to faddsub_clz.o(x$fpl$fadd) for _fadd1
    faddsub_clz.o(x$fpl$fsub) refers to fnaninf.o(x$fpl$fnaninf) for __fpl_fnaninf
    fdiv.o(x$fpl$frdiv) refers (Special) to usenofp.o(x$fpl$usenofp) for __I$use$fp
    fdiv.o(x$fpl$frdiv) refers to fdiv.o(x$fpl$fdiv) for _fdiv1
    fdiv.o(x$fpl$fdiv) refers (Special) to usenofp.o(x$fpl$usenofp) for __I$use$fp
    fdiv.o(x$fpl$fdiv) refers to fretinf.o(x$fpl$fretinf) for __fpl_fretinf
    fdiv.o(x$fpl$fdiv) refers to fnaninf.o(x$fpl$fnaninf) for __fpl_fnaninf
    ffix.o(x$fpl$ffix) refers (Special) to usenofp.o(x$fpl$usenofp) for __I$use$fp
    ffix.o(x$fpl$ffix) refers to fnaninf.o(x$fpl$fnaninf) for __fpl_fnaninf
    ffix.o(x$fpl$ffixr) refers (Special) to usenofp.o(x$fpl$usenofp) for __I$use$fp
    ffix.o(x$fpl$ffixr) refers to fnaninf.o(x$fpl$fnaninf) for __fpl_fnaninf
    ffixu.o(x$fpl$ffixu) refers (Special) to usenofp.o(x$fpl$usenofp) for __I$use$fp
    ffixu.o(x$fpl$ffixu) refers to fnaninf.o(x$fpl$fnaninf) for __fpl_fnaninf
    ffixu.o(x$fpl$ffixur) refers (Special) to usenofp.o(x$fpl$usenofp) for __I$use$fp
    ffixu.o(x$fpl$ffixur) refers to fnaninf.o(x$fpl$fnaninf) for __fpl_fnaninf
    fflt_clz.o(x$fpl$ffltu) refers (Special) to usenofp.o(x$fpl$usenofp) for __I$use$fp
    fflt_clz.o(x$fpl$fflt) refers (Special) to usenofp.o(x$fpl$usenofp) for __I$use$fp
    fflt_clz.o(x$fpl$ffltn) refers (Special) to usenofp.o(x$fpl$usenofp) for __I$use$fp
    fmul.o(x$fpl$fmul) refers (Special) to usenofp.o(x$fpl$usenofp) for __I$use$fp
    fmul.o(x$fpl$fmul) refers to fretinf.o(x$fpl$fretinf) for __fpl_fretinf
    fmul.o(x$fpl$fmul) refers to fnaninf.o(x$fpl$fnaninf) for __fpl_fnaninf
    printf1.o(x$fpl$printf1) refers to _printf_fp_dec.o(.text) for _printf_fp_dec_real
    printf2.o(x$fpl$printf2) refers to _printf_fp_hex.o(.text) for _printf_fp_hex_real
    printf2b.o(x$fpl$printf2) refers to _printf_fp_hex.o(.text) for _printf_fp_hex_real
    scalbn.o(x$fpl$scalbn) refers (Special) to usenofp.o(x$fpl$usenofp) for __I$use$fp
    scalbn.o(x$fpl$scalbn) refers to dcheck1.o(x$fpl$dcheck1) for __fpl_dcheck_NaN1
    scalbnf.o(x$fpl$scalbnf) refers (Special) to usenofp.o(x$fpl$usenofp) for __I$use$fp
    scalbnf.o(x$fpl$scalbnf) refers to fcheck1.o(x$fpl$fcheck1) for __fpl_fcheck_NaN1
    atof.o(i.__softfp_atof) refers (Special) to usenofp.o(x$fpl$usenofp) for __I$use$fp
    atof.o(i.__softfp_atof) refers to _rserrno.o(.text) for __read_errno
    atof.o(i.__softfp_atof) refers to strtod.o(.text) for __strtod_int
    atof.o(i.atof) refers (Special) to usenofp.o(x$fpl$usenofp) for __I$use$fp
    atof.o(i.atof) refers to _rserrno.o(.text) for __read_errno
    atof.o(i.atof) refers to strtod.o(.text) for __strtod_int
    __rtentry.o(.ARM.Collect$$rtentry$$00000000) refers (Special) to __rtentry2.o(.ARM.Collect$$rtentry$$0000000A) for __rt_entry_li
    __rtentry.o(.ARM.Collect$$rtentry$$00000000) refers (Special) to __rtentry2.o(.ARM.Collect$$rtentry$$0000000D) for __rt_entry_main
    __rtentry.o(.ARM.Collect$$rtentry$$00000000) refers (Special) to __rtentry2.o(.ARM.Collect$$rtentry$$0000000C) for __rt_entry_postli_1
    __rtentry.o(.ARM.Collect$$rtentry$$00000000) refers (Special) to __rtentry2.o(.ARM.Collect$$rtentry$$00000009) for __rt_entry_postsh_1
    __rtentry.o(.ARM.Collect$$rtentry$$00000000) refers (Special) to __rtentry2.o(.ARM.Collect$$rtentry$$00000002) for __rt_entry_presh_1
    __rtentry.o(.ARM.Collect$$rtentry$$00000000) refers (Special) to __rtentry4.o(.ARM.Collect$$rtentry$$00000004) for __rt_entry_sh
    aeabi_ldiv0_sigfpe.o(.text) refers to rt_div0.o(.text) for __rt_div0
    rt_heap_descriptor.o(.text) refers to rt_heap_descriptor.o(.bss) for __rt_heap_descriptor_data
    rt_heap_descriptor_intlibspace.o(.text) refers to libspace.o(.bss) for __libspace_start
    rt_locale.o(.text) refers to rt_locale.o(.bss) for __rt_locale_data
    rt_locale_intlibspace.o(.text) refers to libspace.o(.bss) for __libspace_start
    rt_ddtor_pointer_addr.o(.text) refers to rt_ddtor_pointer_addr.o(.bss) for __rt_ddtor_pointer_addr_data
    rt_ddtor_pointer_addr_intlibspace.o(.text) refers to libspace.o(.bss) for __libspace_start
    rt_errno_addr.o(.text) refers to rt_errno_addr.o(.bss) for __aeabi_errno_addr_data
    rt_errno_addr_intlibspace.o(.text) refers to libspace.o(.bss) for __libspace_start
    init_alloc.o(.text) refers (Special) to hguard.o(.text) for __heap$guard
    init_alloc.o(.text) refers (Special) to libinit2.o(.ARM.Collect$$libinit$$00000005) for __rt_lib_init_heap_2
    init_alloc.o(.text) refers (Special) to maybetermalloc1.o(.emb_text) for _maybe_terminate_alloc
    init_alloc.o(.text) refers to h1_extend.o(.text) for __Heap_ProvideMemory
    init_alloc.o(.text) refers to defsig_rtmem_outer.o(.text) for __rt_SIGRTMEM
    init_alloc.o(.text) refers to rt_heap_descriptor_intlibspace.o(.text) for __rt_heap_descriptor
    init_alloc.o(.text) refers to h1_init.o(.text) for __Heap_Initialize
    malloc.o(.text) refers (Special) to hguard.o(.text) for __heap$guard
    malloc.o(.text) refers (Special) to init_alloc.o(.text) for _init_alloc
    malloc.o(.text) refers to rt_heap_descriptor_intlibspace.o(.text) for __rt_heap_descriptor
    malloc.o(.text) refers to heapstubs.o(.text) for __Heap_Alloc
    h1_alloc.o(.text) refers (Special) to h1_init.o(.text) for __Heap_Initialize
    h1_alloc.o(.text) refers to rt_heap_descriptor_intlibspace.o(.text) for __rt_heap_descriptor
    h1_alloc.o(.text) refers to init_alloc.o(.text) for __Heap_Full
    h1_alloc_mt.o(.text) refers (Special) to h1_init.o(.text) for __Heap_Initialize
    h1_alloc_mt.o(.text) refers to init_alloc.o(.text) for __Heap_Full
    h1_alloc_mt.o(.text) refers to rt_heap_descriptor_intlibspace.o(.text) for __rt_heap_descriptor
    _rserrno.o(.text) refers to rt_errno_addr_intlibspace.o(.text) for __aeabi_errno_addr
    _printf_str.o(.text) refers (Special) to _printf_char.o(.text) for _printf_cs_common
    _printf_str.o(.text) refers (Weak) to _printf_pad.o(.text) for _printf_pre_padding
    _printf_str.o(.text) refers (Weak) to _printf_pad.o(.text) for _printf_post_padding
    _printf_intcommon.o(.text) refers (Weak) to _printf_pad.o(.text) for _printf_pre_padding
    _printf_intcommon.o(.text) refers (Weak) to _printf_pad.o(.text) for _printf_pre_padding
    _printf_intcommon.o(.text) refers (Weak) to _printf_pad.o(.text) for _printf_post_padding
    _printf_fp_dec.o(.text) refers (Special) to usenofp.o(x$fpl$usenofp) for __I$use$fp
    _printf_fp_dec.o(.text) refers (Special) to lc_numeric_c.o(locale$$code) for _get_lc_numeric
    _printf_fp_dec.o(.text) refers to bigflt0.o(.text) for _btod_etento
    _printf_fp_dec.o(.text) refers to btod.o(CL$$btod_d2e) for _btod_d2e
    _printf_fp_dec.o(.text) refers to btod.o(CL$$btod_ediv) for _btod_ediv
    _printf_fp_dec.o(.text) refers to btod.o(CL$$btod_emul) for _btod_emul
    _printf_fp_dec.o(.text) refers to lludiv10.o(.text) for _ll_udiv10
    _printf_fp_dec.o(.text) refers to fpclassify.o(i.__ARM_fpclassify) for __ARM_fpclassify
    _printf_fp_dec.o(.text) refers to _printf_fp_infnan.o(.text) for _printf_fp_infnan
    _printf_fp_dec.o(.text) refers (Weak) to _printf_pad.o(.text) for _printf_pre_padding
    _printf_fp_dec.o(.text) refers (Weak) to _printf_pad.o(.text) for _printf_pre_padding
    _printf_fp_dec.o(.text) refers to rt_locale_intlibspace.o(.text) for __rt_locale
    _printf_fp_dec.o(.text) refers (Weak) to _printf_pad.o(.text) for _printf_post_padding
    _printf_fp_hex.o(.text) refers (Special) to usenofp.o(x$fpl$usenofp) for __I$use$fp
    _printf_fp_hex.o(.text) refers to fpclassify.o(i.__ARM_fpclassify) for __ARM_fpclassify
    _printf_fp_hex.o(.text) refers to _printf_fp_infnan.o(.text) for _printf_fp_infnan
    _printf_fp_hex.o(.text) refers (Weak) to _printf_pad.o(.text) for _printf_pre_padding
    _printf_fp_hex.o(.text) refers (Weak) to _printf_pad.o(.text) for _printf_pre_padding
    _printf_fp_hex.o(.text) refers (Weak) to _printf_pad.o(.text) for _printf_post_padding
    _printf_fp_hex.o(.text) refers to _printf_fp_hex.o(.constdata) for .constdata
    _printf_fp_hex.o(.constdata) refers (Special) to usenofp.o(x$fpl$usenofp) for __I$use$fp
    _printf_char_common.o(.text) refers to __printf_flags_ss_wp.o(.text) for __printf
    _printf_wctomb.o(.text) refers (Special) to _printf_wchar.o(.text) for _printf_lcs_common
    _printf_wctomb.o(.text) refers to _wcrtomb.o(.text) for _wcrtomb
    _printf_wctomb.o(.text) refers (Weak) to _printf_pad.o(.text) for _printf_pre_padding
    _printf_wctomb.o(.text) refers (Weak) to _printf_pad.o(.text) for _printf_post_padding
    _printf_wctomb.o(.text) refers to _printf_wctomb.o(.constdata) for .constdata
    _printf_wctomb.o(.constdata) refers (Special) to _printf_wchar.o(.text) for _printf_lcs_common
    _printf_longlong_dec.o(.text) refers to lludiv10.o(.text) for _ll_udiv10
    _printf_longlong_dec.o(.text) refers to _printf_intcommon.o(.text) for _printf_int_common
    _printf_oct_ll.o(.text) refers to _printf_intcommon.o(.text) for _printf_int_common
    _printf_oct_int.o(.text) refers (Weak) to _printf_truncate.o(.text) for _printf_truncate_unsigned
    _printf_oct_int.o(.text) refers to _printf_intcommon.o(.text) for _printf_int_common
    _printf_oct_int_ll.o(.text) refers to _printf_intcommon.o(.text) for _printf_int_common
    _printf_oct_int_ll.o(.text) refers (Weak) to _printf_truncate.o(.text) for _printf_truncate_unsigned
    _printf_hex_ll.o(.text) refers to _printf_intcommon.o(.text) for _printf_int_common
    _printf_hex_ll.o(.text) refers to _printf_hex_ll.o(.constdata) for .constdata
    _printf_hex_int.o(.text) refers (Weak) to _printf_truncate.o(.text) for _printf_truncate_unsigned
    _printf_hex_int.o(.text) refers to _printf_intcommon.o(.text) for _printf_int_common
    _printf_hex_int.o(.text) refers to _printf_hex_int.o(.constdata) for .constdata
    _printf_hex_int_ll.o(.text) refers to _printf_intcommon.o(.text) for _printf_int_common
    _printf_hex_int_ll.o(.text) refers (Weak) to _printf_truncate.o(.text) for _printf_truncate_unsigned
    _printf_hex_int_ll.o(.text) refers to _printf_hex_int_ll.o(.constdata) for .constdata
    _printf_hex_ptr.o(.text) refers to _printf_intcommon.o(.text) for _printf_int_common
    _printf_hex_ptr.o(.text) refers to _printf_hex_ptr.o(.constdata) for .constdata
    _printf_hex_int_ptr.o(.text) refers to _printf_intcommon.o(.text) for _printf_int_common
    _printf_hex_int_ptr.o(.text) refers (Weak) to _printf_truncate.o(.text) for _printf_truncate_unsigned
    _printf_hex_int_ptr.o(.text) refers to _printf_hex_int_ptr.o(.constdata) for .constdata
    _printf_hex_ll_ptr.o(.text) refers to _printf_intcommon.o(.text) for _printf_int_common
    _printf_hex_ll_ptr.o(.text) refers to _printf_hex_ll_ptr.o(.constdata) for .constdata
    _printf_hex_int_ll_ptr.o(.text) refers to _printf_intcommon.o(.text) for _printf_int_common
    _printf_hex_int_ll_ptr.o(.text) refers (Weak) to _printf_truncate.o(.text) for _printf_truncate_unsigned
    _printf_hex_int_ll_ptr.o(.text) refers to _printf_hex_int_ll_ptr.o(.constdata) for .constdata
    _printf_c.o(.ARM.Collect$$_printf_percent$$00000013) refers (Weak) to _printf_char.o(.text) for _printf_char
    _printf_s.o(.ARM.Collect$$_printf_percent$$00000014) refers (Weak) to _printf_char.o(.text) for _printf_string
    _printf_n.o(.ARM.Collect$$_printf_percent$$00000001) refers (Weak) to _printf_charcount.o(.text) for _printf_charcount
    _printf_x.o(.ARM.Collect$$_printf_percent$$0000000C) refers (Weak) to _printf_hex_int_ll_ptr.o(.text) for _printf_int_hex
    _printf_p.o(.ARM.Collect$$_printf_percent$$00000002) refers (Weak) to _printf_hex_int_ll_ptr.o(.text) for _printf_hex_ptr
    _printf_o.o(.ARM.Collect$$_printf_percent$$0000000B) refers (Weak) to _printf_oct_int_ll.o(.text) for _printf_int_oct
    _printf_i.o(.ARM.Collect$$_printf_percent$$00000008) refers (Weak) to _printf_dec.o(.text) for _printf_int_dec
    _printf_u.o(.ARM.Collect$$_printf_percent$$0000000A) refers (Weak) to _printf_dec.o(.text) for _printf_int_dec
    _printf_lli.o(.ARM.Collect$$_printf_percent$$0000000D) refers (Special) to _printf_ll.o(.ARM.Collect$$_printf_percent$$00000007) for _printf_ll
    _printf_lli.o(.ARM.Collect$$_printf_percent$$0000000D) refers (Weak) to _printf_longlong_dec.o(.text) for _printf_longlong_dec
    _printf_lld.o(.ARM.Collect$$_printf_percent$$0000000E) refers (Special) to _printf_ll.o(.ARM.Collect$$_printf_percent$$00000007) for _printf_ll
    _printf_lld.o(.ARM.Collect$$_printf_percent$$0000000E) refers (Weak) to _printf_longlong_dec.o(.text) for _printf_longlong_dec
    _printf_llu.o(.ARM.Collect$$_printf_percent$$0000000F) refers (Special) to _printf_ll.o(.ARM.Collect$$_printf_percent$$00000007) for _printf_ll
    _printf_llu.o(.ARM.Collect$$_printf_percent$$0000000F) refers (Weak) to _printf_longlong_dec.o(.text) for _printf_longlong_dec
    _printf_lc.o(.ARM.Collect$$_printf_percent$$00000015) refers (Special) to _printf_l.o(.ARM.Collect$$_printf_percent$$00000012) for _printf_l
    _printf_lc.o(.ARM.Collect$$_printf_percent$$00000015) refers (Weak) to _printf_wchar.o(.text) for _printf_wchar
    _printf_ls.o(.ARM.Collect$$_printf_percent$$00000016) refers (Special) to _printf_l.o(.ARM.Collect$$_printf_percent$$00000012) for _printf_l
    _printf_ls.o(.ARM.Collect$$_printf_percent$$00000016) refers (Weak) to _printf_wchar.o(.text) for _printf_wstring
    _printf_llo.o(.ARM.Collect$$_printf_percent$$00000010) refers (Special) to _printf_ll.o(.ARM.Collect$$_printf_percent$$00000007) for _printf_ll
    _printf_llo.o(.ARM.Collect$$_printf_percent$$00000010) refers (Weak) to _printf_oct_int_ll.o(.text) for _printf_ll_oct
    _printf_llx.o(.ARM.Collect$$_printf_percent$$00000011) refers (Special) to _printf_ll.o(.ARM.Collect$$_printf_percent$$00000007) for _printf_ll
    _printf_llx.o(.ARM.Collect$$_printf_percent$$00000011) refers (Weak) to _printf_hex_int_ll_ptr.o(.text) for _printf_ll_hex
    strtod.o(.text) refers (Special) to lc_numeric_c.o(locale$$code) for _get_lc_numeric
    strtod.o(.text) refers to scanf1.o(x$fpl$scanf1) for _scanf_real
    strtod.o(.text) refers to _sgetc.o(.text) for _sgetc
    strtod.o(.text) refers to isspace.o(.text) for isspace
    strtol.o(.text) refers to rt_ctype_table.o(.text) for __rt_ctype_table
    strtol.o(.text) refers to _strtoul.o(.text) for _strtoul
    strtol.o(.text) refers to rt_errno_addr_intlibspace.o(.text) for __aeabi_errno_addr
    lc_ctype_c.o(locale$$data) refers (Special) to libinit2.o(.ARM.Collect$$libinit$$00000012) for __rt_lib_init_lc_ctype_2
    lc_ctype_c.o(locale$$code) refers (Special) to libinit2.o(.ARM.Collect$$libinit$$00000012) for __rt_lib_init_lc_ctype_2
    lc_ctype_c.o(locale$$code) refers to strcmpv7m.o(.text) for strcmp
    lc_ctype_c.o(locale$$code) refers to lc_ctype_c.o(locale$$data) for __lcctype_c_name
    cxa_finalize.o(.text) refers (Special) to libshutdown2.o(.ARM.Collect$$libshutdown$$00000001) for __rt_lib_shutdown_cpp_2
    cxa_finalize.o(.text) refers to rt_ddtor_pointer_addr_intlibspace.o(.text) for __rt_ddtor_pointer_addr
    cxa_finalize.o(.text) refers to h1_free.o(.text) for free
    cxa_finalize.o(.ARM.exidx) refers (Special) to libshutdown2.o(.ARM.Collect$$libshutdown$$00000001) for __rt_lib_shutdown_cpp_2
    cxa_finalize.o(.ARM.exidx) refers to cxa_finalize.o(.text) for .text
    defsig_pvfn_outer.o(.text) refers to defsig_pvfn_inner.o(.text) for __rt_SIGPVFN_inner
    defsig_pvfn_outer.o(.text) refers to defsig_exit.o(.text) for __sig_exit
    defsig_pvfn_formal.o(.text) refers to rt_raise.o(.text) for __rt_raise
    rt_memmove_w.o(.text) refers to rt_memcpy_w.o(.text) for __aeabi_memcpy4
    libinit2.o(.ARM.Collect$$libinit$$00000005) refers (Weak) to init_alloc.o(.text) for _init_alloc
    libinit2.o(.ARM.Collect$$libinit$$0000000D) refers (Weak) to rand.o(.text) for _rand_init
    libinit2.o(.ARM.Collect$$libinit$$0000000F) refers (Weak) to rt_locale_intlibspace.o(.text) for __rt_locale
    libinit2.o(.ARM.Collect$$libinit$$00000010) refers to libinit2.o(.ARM.Collect$$libinit$$0000000F) for .ARM.Collect$$libinit$$0000000F
    libinit2.o(.ARM.Collect$$libinit$$00000012) refers to libinit2.o(.ARM.Collect$$libinit$$0000000F) for .ARM.Collect$$libinit$$0000000F
    libinit2.o(.ARM.Collect$$libinit$$00000012) refers (Weak) to lc_ctype_c.o(locale$$code) for _get_lc_ctype
    libinit2.o(.ARM.Collect$$libinit$$00000014) refers to libinit2.o(.ARM.Collect$$libinit$$0000000F) for .ARM.Collect$$libinit$$0000000F
    libinit2.o(.ARM.Collect$$libinit$$00000016) refers to libinit2.o(.ARM.Collect$$libinit$$0000000F) for .ARM.Collect$$libinit$$0000000F
    libinit2.o(.ARM.Collect$$libinit$$00000016) refers (Weak) to lc_numeric_c.o(locale$$code) for _get_lc_numeric
    libinit2.o(.ARM.Collect$$libinit$$00000018) refers to libinit2.o(.ARM.Collect$$libinit$$0000000F) for .ARM.Collect$$libinit$$0000000F
    libinit2.o(.ARM.Collect$$libinit$$00000026) refers to argv_veneer.o(.emb_text) for __ARM_argv_veneer
    libinit2.o(.ARM.Collect$$libinit$$00000027) refers to argv_veneer.o(.emb_text) for __ARM_argv_veneer
    libinit2.o(.ARM.Collect$$libinit$$00000031) refers (Weak) to init_aeabi.o(.text) for __cpp_initialize__aeabi_
    type_info_dtor.o(.ARM.exidx) refers to type_info_dtor.o(i._ZNSt9type_infoD1Ev) for i._ZNSt9type_infoD1Ev
    type_info_dtor.o(.ARM.exidx) refers to type_info_dtor.o(i._ZNSt9type_infoD0Ev) for i._ZNSt9type_infoD0Ev
    arm_exceptions_callterm.o(.text) refers to arm_exceptions_globs.o(.text) for __cxa_get_globals
    arm_exceptions_callterm.o(.text) refers to arm_exceptions_support.o(.text) for __ARM::is_foreign_exception(_Unwind_Control_Block*)
    arm_exceptions_callterm.o(.text) refers to arm_exceptions_terminate.o(.text) for std::terminate()
    arm_exceptions_callterm.o(.ARM.exidx) refers to arm_exceptions_callterm.o(.text) for .text
    dcheck1.o(x$fpl$dcheck1) refers (Special) to usenofp.o(x$fpl$usenofp) for __I$use$fp
    dcheck1.o(x$fpl$dcheck1) refers to retnan.o(x$fpl$retnan) for __fpl_return_NaN
    dcmpi.o(x$fpl$dcmpinf) refers (Special) to usenofp.o(x$fpl$usenofp) for __I$use$fp
    dnaninf.o(x$fpl$dnaninf) refers (Special) to usenofp.o(x$fpl$usenofp) for __I$use$fp
    dretinf.o(x$fpl$dretinf) refers (Special) to usenofp.o(x$fpl$usenofp) for __I$use$fp
    fcheck1.o(x$fpl$fcheck1) refers (Special) to usenofp.o(x$fpl$usenofp) for __I$use$fp
    fcheck1.o(x$fpl$fcheck1) refers to retnan.o(x$fpl$retnan) for __fpl_return_NaN
    fnaninf.o(x$fpl$fnaninf) refers (Special) to usenofp.o(x$fpl$usenofp) for __I$use$fp
    fretinf.o(x$fpl$fretinf) refers (Special) to usenofp.o(x$fpl$usenofp) for __I$use$fp
    libspace.o(.text) refers to libspace.o(.bss) for __libspace_start
    __rtentry2.o(.ARM.Collect$$rtentry$$00000008) refers to boardinit2.o(.text) for _platform_post_stackheap_init
    __rtentry2.o(.ARM.Collect$$rtentry$$0000000A) refers to libinit.o(.ARM.Collect$$libinit$$00000000) for __rt_lib_init
    __rtentry2.o(.ARM.Collect$$rtentry$$0000000B) refers to boardinit3.o(.text) for _platform_post_lib_init
    __rtentry2.o(.ARM.Collect$$rtentry$$0000000D) refers to main.o(i.main) for main
    __rtentry2.o(.ARM.Collect$$rtentry$$0000000D) refers to exit.o(.text) for exit
    __rtentry2.o(.ARM.exidx) refers to __rtentry2.o(.ARM.Collect$$rtentry$$00000001) for .ARM.Collect$$rtentry$$00000001
    __rtentry2.o(.ARM.exidx) refers to __rtentry2.o(.ARM.Collect$$rtentry$$00000008) for .ARM.Collect$$rtentry$$00000008
    __rtentry2.o(.ARM.exidx) refers to __rtentry2.o(.ARM.Collect$$rtentry$$0000000A) for .ARM.Collect$$rtentry$$0000000A
    __rtentry2.o(.ARM.exidx) refers to __rtentry2.o(.ARM.Collect$$rtentry$$0000000B) for .ARM.Collect$$rtentry$$0000000B
    __rtentry2.o(.ARM.exidx) refers to __rtentry2.o(.ARM.Collect$$rtentry$$0000000D) for .ARM.Collect$$rtentry$$0000000D
    __rtentry4.o(.ARM.Collect$$rtentry$$00000004) refers to sys_stackheap_outer.o(.text) for __user_setup_stackheap
    __rtentry4.o(.ARM.exidx) refers to __rtentry4.o(.ARM.Collect$$rtentry$$00000004) for .ARM.Collect$$rtentry$$00000004
    rt_div0.o(.text) refers to defsig_fpe_outer.o(.text) for __rt_SIGFPE
    rt_raise.o(.text) refers to __raise.o(.text) for __raise
    rt_raise.o(.text) refers to sys_exit.o(.text) for _sys_exit
    maybetermalloc2.o(.emb_text) refers (Special) to term_alloc.o(.text) for _terminate_alloc
    h1_extend.o(.text) refers to h1_free.o(.text) for free
    h1_init_mt.o(.text) refers to mutex_dummy.o(.text) for _mutex_initialize
    h1_extend_mt.o(.text) refers to h1_free_mt.o(.text) for _free_internal
    isspace.o(.text) refers to rt_ctype_table.o(.text) for __rt_ctype_table
    _printf_fp_infnan.o(.text) refers (Weak) to _printf_pad.o(.text) for _printf_pre_padding
    _printf_fp_infnan.o(.text) refers (Weak) to _printf_pad.o(.text) for _printf_post_padding
    _printf_char.o(.text) refers (Weak) to _printf_str.o(.text) for _printf_str
    _printf_wchar.o(.text) refers (Weak) to _printf_wctomb.o(.text) for _printf_wctomb
    _strtoul.o(.text) refers to _chval.o(.text) for _chval
    _strtoul.o(.text) refers to rt_errno_addr_intlibspace.o(.text) for __aeabi_errno_addr
    bigflt0.o(.text) refers (Special) to usenofp.o(x$fpl$usenofp) for __I$use$fp
    bigflt0.o(.text) refers to btod.o(CL$$btod_emul) for _btod_emul
    bigflt0.o(.text) refers to btod.o(CL$$btod_ediv) for _btod_ediv
    bigflt0.o(.text) refers to bigflt0.o(.constdata) for .constdata
    bigflt0.o(.constdata) refers (Special) to usenofp.o(x$fpl$usenofp) for __I$use$fp
    btod.o(CL$$btod_d2e) refers (Special) to usenofp.o(x$fpl$usenofp) for __I$use$fp
    btod.o(CL$$btod_d2e) refers to btod.o(CL$$btod_d2e_norm_op1) for _d2e_norm_op1
    btod.o(CL$$btod_d2e_norm_op1) refers (Special) to usenofp.o(x$fpl$usenofp) for __I$use$fp
    btod.o(CL$$btod_d2e_norm_op1) refers to btod.o(CL$$btod_d2e_denorm_low) for _d2e_denorm_low
    btod.o(CL$$btod_d2e_denorm_low) refers (Special) to usenofp.o(x$fpl$usenofp) for __I$use$fp
    btod.o(CL$$btod_emul) refers (Special) to usenofp.o(x$fpl$usenofp) for __I$use$fp
    btod.o(CL$$btod_emul) refers to btod.o(CL$$btod_mult_common) for __btod_mult_common
    btod.o(CL$$btod_emul) refers to btod.o(CL$$btod_e2e) for _e2e
    btod.o(CL$$btod_ediv) refers (Special) to usenofp.o(x$fpl$usenofp) for __I$use$fp
    btod.o(CL$$btod_ediv) refers to btod.o(CL$$btod_div_common) for __btod_div_common
    btod.o(CL$$btod_ediv) refers to btod.o(CL$$btod_e2e) for _e2e
    btod.o(CL$$btod_emuld) refers (Special) to usenofp.o(x$fpl$usenofp) for __I$use$fp
    btod.o(CL$$btod_emuld) refers to btod.o(CL$$btod_mult_common) for __btod_mult_common
    btod.o(CL$$btod_emuld) refers to btod.o(CL$$btod_e2d) for _e2d
    btod.o(CL$$btod_edivd) refers (Special) to usenofp.o(x$fpl$usenofp) for __I$use$fp
    btod.o(CL$$btod_edivd) refers to btod.o(CL$$btod_div_common) for __btod_div_common
    btod.o(CL$$btod_edivd) refers to btod.o(CL$$btod_e2d) for _e2d
    btod.o(CL$$btod_e2e) refers (Special) to usenofp.o(x$fpl$usenofp) for __I$use$fp
    btod.o(CL$$btod_e2d) refers (Special) to usenofp.o(x$fpl$usenofp) for __I$use$fp
    btod.o(CL$$btod_e2d) refers to btod.o(CL$$btod_e2e) for _e2e
    btod.o(CL$$btod_mult_common) refers (Special) to usenofp.o(x$fpl$usenofp) for __I$use$fp
    btod.o(CL$$btod_div_common) refers (Special) to usenofp.o(x$fpl$usenofp) for __I$use$fp
    _wcrtomb.o(.text) refers to rt_ctype_table.o(.text) for __rt_ctype_table
    lc_numeric_c.o(locale$$data) refers (Special) to libinit2.o(.ARM.Collect$$libinit$$00000016) for __rt_lib_init_lc_numeric_2
    lc_numeric_c.o(locale$$code) refers (Special) to libinit2.o(.ARM.Collect$$libinit$$00000016) for __rt_lib_init_lc_numeric_2
    lc_numeric_c.o(locale$$code) refers to strcmpv7m.o(.text) for strcmp
    lc_numeric_c.o(locale$$code) refers to lc_numeric_c.o(locale$$data) for __lcnum_c_name
    defsig_exit.o(.text) refers to sys_exit.o(.text) for _sys_exit
    defsig_rtmem_outer.o(.text) refers to defsig_rtmem_inner.o(.text) for __rt_SIGRTMEM_inner
    defsig_rtmem_outer.o(.text) refers to defsig_exit.o(.text) for __sig_exit
    defsig_rtmem_formal.o(.text) refers to rt_raise.o(.text) for __rt_raise
    defsig_pvfn_inner.o(.text) refers to defsig_general.o(.text) for __default_signal_display
    heapauxa.o(.text) refers to heapauxa.o(.data) for .data
    _get_argv.o(.text) refers (Special) to hrguard.o(.text) for __heap_region$guard
    _get_argv.o(.text) refers to h1_alloc.o(.text) for malloc
    _get_argv.o(.text) refers to defsig_rtmem_outer.o(.text) for __rt_SIGRTMEM
    _get_argv.o(.text) refers to sys_command.o(.text) for _sys_command_string
    argv_veneer.o(.emb_text) refers to no_argv.o(.text) for __ARM_get_argv
    libshutdown2.o(.ARM.Collect$$libshutdown$$00000001) refers (Weak) to cxa_finalize.o(.text) for __cxa_finalize
    libshutdown2.o(.ARM.Collect$$libshutdown$$0000000D) refers (Weak) to term_alloc.o(.text) for _terminate_alloc
    arm_begincatch_noexceptions.o(.ARM.exidx) refers to arm_begincatch_noexceptions.o(.text) for .text
    arm_exceptions_terminate.o(.text) refers to arm_exceptions_globs.o(.text) for __cxa_get_globals
    arm_exceptions_terminate.o(.text) refers to abort.o(.text) for abort
    arm_exceptions_terminate.o(.ARM.exidx) refers to arm_exceptions_terminate.o(.text) for .text
    arm_exceptions_support.o(.text) refers to arm_exceptions_support.o(.constdata) for .constdata
    arm_exceptions_support.o(.ARM.exidx) refers to arm_exceptions_support.o(.text) for .text
    arm_exceptions_globs.o(.text) refers to abort.o(.text) for abort
    arm_exceptions_globs.o(.text) refers to rt_eh_globals_addr_intlibspace.o(.text) for __rt_eh_globals_addr
    arm_exceptions_globs.o(.text) refers to h1_alloc.o(.text) for malloc
    arm_exceptions_globs.o(.text) refers to arm_exceptions_mem.o(.text) for __ARM_exceptions_buffer_init
    arm_exceptions_globs.o(.ARM.exidx) refers to arm_exceptions_globs.o(.text) for .text
    istatus.o(x$fpl$ieeestatus) refers (Special) to usenofp.o(x$fpl$usenofp) for __I$use$fp
    retnan.o(x$fpl$retnan) refers (Special) to usenofp.o(x$fpl$usenofp) for __I$use$fp
    retnan.o(x$fpl$retnan) refers to trapv.o(x$fpl$trapveneer) for __fpl_cmpreturn
    scanf1.o(x$fpl$scanf1) refers to scanf_fp.o(.text) for _scanf_really_real
    fpclassify.o(i.__ARM_fpclassify) refers (Special) to usenofp.o(x$fpl$usenofp) for __I$use$fp
    sys_command.o(.text) refers (Special) to use_no_semi.o(.text) for __I$use$semihosting
    sys_command.o(.text) refers (Special) to indicate_semi.o(.text) for __semihosting_library_function
    sys_exit.o(.text) refers (Special) to use_no_semi.o(.text) for __I$use$semihosting
    sys_exit.o(.text) refers (Special) to indicate_semi.o(.text) for __semihosting_library_function
    sys_stackheap_outer.o(.text) refers to libspace.o(.text) for __user_perproc_libspace
    sys_stackheap_outer.o(.text) refers to startup_stm32f10x_md.o(.text) for __user_initial_stackheap
    rt_eh_globals_addr.o(.text) refers to rt_eh_globals_addr.o(.bss) for __rt_eh_globals_addr_data
    rt_eh_globals_addr_intlibspace.o(.text) refers to libspace.o(.bss) for __libspace_start
    term_alloc.o(.text) refers (Special) to libshutdown2.o(.ARM.Collect$$libshutdown$$0000000E) for __rt_lib_shutdown_heap_2
    term_alloc.o(.text) refers to rt_heap_descriptor_intlibspace.o(.text) for __rt_heap_descriptor
    term_alloc.o(.text) refers to h1_final.o(.text) for __Heap_Finalize
    scanf_fp.o(.text) refers (Special) to usenofp.o(x$fpl$usenofp) for __I$use$fp
    scanf_fp.o(.text) refers (Special) to lc_numeric_c.o(locale$$code) for _get_lc_numeric
    scanf_fp.o(.text) refers to rt_errno_addr_intlibspace.o(.text) for __aeabi_errno_addr
    scanf_fp.o(.text) refers to istatus.o(x$fpl$ieeestatus) for __ieee_status
    scanf_fp.o(.text) refers to bigflt0.o(.text) for _btod_etento
    scanf_fp.o(.text) refers to btod.o(CL$$btod_emuld) for _btod_emuld
    scanf_fp.o(.text) refers to btod.o(CL$$btod_edivd) for _btod_edivd
    scanf_fp.o(.text) refers to rt_locale_intlibspace.o(.text) for __rt_locale
    scanf_fp.o(.text) refers to scanf2.o(x$fpl$scanf2) for _scanf_infnan
    scanf_fp.o(.text) refers to __printf_wp.o(i._is_digit) for _is_digit
    scanf_fp.o(.text) refers to fpconst.o(c$$dmax) for __dbl_max
    scanf_fp.o(.text) refers to fpconst.o(c$$dinf) for __huge_val
    scanf_fp.o(.text) refers to narrow.o(i.__mathlib_narrow) for __mathlib_narrow
    exit.o(.text) refers to rtexit.o(.ARM.Collect$$rtexit$$00000000) for __rt_exit
    abort.o(.text) refers to defsig_abrt_outer.o(.text) for __rt_SIGABRT
    abort.o(.text) refers (Weak) to libshutdown.o(.ARM.Collect$$libshutdown$$00000000) for __rt_lib_shutdown
    abort.o(.text) refers to sys_exit.o(.text) for _sys_exit
    __raise.o(.text) refers to defsig.o(CL$$defsig) for __default_signal_handler
    defsig_general.o(.text) refers to sys_wrch.o(.text) for _ttywrch
    defsig_fpe_outer.o(.text) refers to defsig_fpe_inner.o(.text) for __rt_SIGFPE_inner
    defsig_fpe_outer.o(.text) refers to defsig_exit.o(.text) for __sig_exit
    defsig_fpe_formal.o(.text) refers to rt_raise.o(.text) for __rt_raise
    defsig_rtmem_inner.o(.text) refers to defsig_general.o(.text) for __default_signal_display
    _get_argv_nomalloc.o(.text) refers (Special) to hrguard.o(.text) for __heap_region$guard
    _get_argv_nomalloc.o(.text) refers to defsig_rtmem_outer.o(.text) for __rt_SIGRTMEM
    _get_argv_nomalloc.o(.text) refers to sys_command.o(.text) for _sys_command_string
    libinit.o(.ARM.Collect$$libinit$$00000000) refers (Special) to libinit2.o(.ARM.Collect$$libinit$$0000002E) for __rt_lib_init_alloca_1
    libinit.o(.ARM.Collect$$libinit$$00000000) refers (Special) to libinit2.o(.ARM.Collect$$libinit$$0000002C) for __rt_lib_init_argv_1
    libinit.o(.ARM.Collect$$libinit$$00000000) refers (Special) to libinit2.o(.ARM.Collect$$libinit$$0000001B) for __rt_lib_init_atexit_1
    libinit.o(.ARM.Collect$$libinit$$00000000) refers (Special) to libinit2.o(.ARM.Collect$$libinit$$00000021) for __rt_lib_init_clock_1
    libinit.o(.ARM.Collect$$libinit$$00000000) refers (Special) to libinit2.o(.ARM.Collect$$libinit$$00000032) for __rt_lib_init_cpp_1
    libinit.o(.ARM.Collect$$libinit$$00000000) refers (Special) to libinit2.o(.ARM.Collect$$libinit$$00000030) for __rt_lib_init_exceptions_1
    libinit.o(.ARM.Collect$$libinit$$00000000) refers (Special) to libinit2.o(.ARM.Collect$$libinit$$00000002) for __rt_lib_init_fp_1
    libinit.o(.ARM.Collect$$libinit$$00000000) refers (Special) to libinit2.o(.ARM.Collect$$libinit$$0000001F) for __rt_lib_init_fp_trap_1
    libinit.o(.ARM.Collect$$libinit$$00000000) refers (Special) to libinit2.o(.ARM.Collect$$libinit$$00000023) for __rt_lib_init_getenv_1
    libinit.o(.ARM.Collect$$libinit$$00000000) refers (Special) to libinit2.o(.ARM.Collect$$libinit$$0000000A) for __rt_lib_init_heap_1
    libinit.o(.ARM.Collect$$libinit$$00000000) refers (Special) to libinit2.o(.ARM.Collect$$libinit$$00000011) for __rt_lib_init_lc_collate_1
    libinit.o(.ARM.Collect$$libinit$$00000000) refers (Special) to libinit2.o(.ARM.Collect$$libinit$$00000013) for __rt_lib_init_lc_ctype_1
    libinit.o(.ARM.Collect$$libinit$$00000000) refers (Special) to libinit2.o(.ARM.Collect$$libinit$$00000015) for __rt_lib_init_lc_monetary_1
    libinit.o(.ARM.Collect$$libinit$$00000000) refers (Special) to libinit2.o(.ARM.Collect$$libinit$$00000017) for __rt_lib_init_lc_numeric_1
    libinit.o(.ARM.Collect$$libinit$$00000000) refers (Special) to libinit2.o(.ARM.Collect$$libinit$$00000019) for __rt_lib_init_lc_time_1
    libinit.o(.ARM.Collect$$libinit$$00000000) refers (Special) to libinit2.o(.ARM.Collect$$libinit$$00000004) for __rt_lib_init_preinit_1
    libinit.o(.ARM.Collect$$libinit$$00000000) refers (Special) to libinit2.o(.ARM.Collect$$libinit$$0000000E) for __rt_lib_init_rand_1
    libinit.o(.ARM.Collect$$libinit$$00000000) refers (Special) to libinit2.o(.ARM.Collect$$libinit$$00000033) for __rt_lib_init_return
    libinit.o(.ARM.Collect$$libinit$$00000000) refers (Special) to libinit2.o(.ARM.Collect$$libinit$$0000001D) for __rt_lib_init_signal_1
    libinit.o(.ARM.Collect$$libinit$$00000000) refers (Special) to libinit2.o(.ARM.Collect$$libinit$$00000025) for __rt_lib_init_stdio_1
    libinit.o(.ARM.Collect$$libinit$$00000000) refers (Special) to libinit2.o(.ARM.Collect$$libinit$$0000000C) for __rt_lib_init_user_alloc_1
    arm_exceptions_mem.o(.text) refers to h1_alloc.o(.text) for malloc
    arm_exceptions_mem.o(.ARM.exidx) refers to arm_exceptions_mem.o(.text) for .text
    trapv.o(x$fpl$trapveneer) refers (Special) to usenofp.o(x$fpl$usenofp) for __I$use$fp
    sys_wrch.o(.text) refers (Special) to use_no_semi.o(.text) for __I$use$semihosting
    sys_wrch.o(.text) refers (Special) to indicate_semi.o(.text) for __semihosting_library_function
    rtexit.o(.ARM.Collect$$rtexit$$00000000) refers (Special) to rtexit2.o(.ARM.Collect$$rtexit$$00000004) for __rt_exit_exit
    rtexit.o(.ARM.Collect$$rtexit$$00000000) refers (Special) to rtexit2.o(.ARM.Collect$$rtexit$$00000003) for __rt_exit_ls
    rtexit.o(.ARM.Collect$$rtexit$$00000000) refers (Special) to rtexit2.o(.ARM.Collect$$rtexit$$00000002) for __rt_exit_prels_1
    rtexit.o(.ARM.exidx) refers (Special) to rtexit2.o(.ARM.Collect$$rtexit$$00000004) for __rt_exit_exit
    rtexit.o(.ARM.exidx) refers (Special) to rtexit2.o(.ARM.Collect$$rtexit$$00000003) for __rt_exit_ls
    rtexit.o(.ARM.exidx) refers (Special) to rtexit2.o(.ARM.Collect$$rtexit$$00000002) for __rt_exit_prels_1
    rtexit.o(.ARM.exidx) refers to rtexit.o(.ARM.Collect$$rtexit$$00000000) for .ARM.Collect$$rtexit$$00000000
    defsig_abrt_outer.o(.text) refers to defsig_abrt_inner.o(.text) for __rt_SIGABRT_inner
    defsig_abrt_outer.o(.text) refers to defsig_exit.o(.text) for __sig_exit
    defsig_abrt_formal.o(.text) refers to rt_raise.o(.text) for __rt_raise
    defsig_fpe_inner.o(.text) refers to defsig_general.o(.text) for __default_signal_display
    defsig.o(CL$$defsig) refers to defsig_abrt_inner.o(.text) for __rt_SIGABRT_inner
    defsig.o(CL$$defsig) refers to defsig_fpe_inner.o(.text) for __rt_SIGFPE_inner
    defsig.o(CL$$defsig) refers to defsig_rtmem_inner.o(.text) for __rt_SIGRTMEM_inner
    defsig.o(CL$$defsig) refers to defsig_pvfn_inner.o(.text) for __rt_SIGPVFN_inner
    fpconst.o(c$$dinf) refers (Special) to usenofp.o(x$fpl$usenofp) for __I$use$fp
    fpconst.o(c$$dnan) refers (Special) to usenofp.o(x$fpl$usenofp) for __I$use$fp
    fpconst.o(c$$finf) refers (Special) to usenofp.o(x$fpl$usenofp) for __I$use$fp
    fpconst.o(c$$dmax) refers (Special) to usenofp.o(x$fpl$usenofp) for __I$use$fp
    scanf2.o(x$fpl$scanf2) refers to scanf_hexfp.o(.text) for _scanf_really_hex_real
    scanf2.o(x$fpl$scanf2) refers to scanf_infnan.o(.text) for _scanf_really_infnan
    scanf2b.o(x$fpl$scanf2) refers to scanf_hexfp.o(.text) for _scanf_really_hex_real
    scanf2b.o(x$fpl$scanf2) refers to scanf_infnan.o(.text) for _scanf_really_infnan
    narrow.o(i.__mathlib_narrow) refers (Special) to usenofp.o(x$fpl$usenofp) for __I$use$fp
    narrow.o(i.__mathlib_narrow) refers to narrow.o(i.__mathlib_tofloat) for __mathlib_tofloat
    narrow.o(i.__mathlib_tofloat) refers (Special) to usenofp.o(x$fpl$usenofp) for __I$use$fp
    narrow.o(i.__mathlib_tofloat) refers to frexp.o(i.frexp) for frexp
    narrow.o(i.__mathlib_tofloat) refers to deqf.o(x$fpl$deqf) for __aeabi_cdcmpeq
    narrow.o(i.__mathlib_tofloat) refers to d2f.o(x$fpl$d2f) for __aeabi_d2f
    narrow.o(i.__mathlib_tofloat) refers to _rserrno.o(.text) for __set_errno
    narrow.o(i.__mathlib_tofloat) refers to drleqf.o(x$fpl$drleqf) for __aeabi_cdrcmple
    narrow.o(i.__softfp___mathlib_tofloat) refers (Special) to usenofp.o(x$fpl$usenofp) for __I$use$fp
    narrow.o(i.__softfp___mathlib_tofloat) refers to narrow.o(i.__mathlib_tofloat) for __mathlib_tofloat
    rtexit2.o(.ARM.Collect$$rtexit$$00000003) refers to libshutdown.o(.ARM.Collect$$libshutdown$$00000000) for __rt_lib_shutdown
    rtexit2.o(.ARM.Collect$$rtexit$$00000004) refers to sys_exit.o(.text) for _sys_exit
    rtexit2.o(.ARM.exidx) refers to rtexit2.o(.ARM.Collect$$rtexit$$00000001) for .ARM.Collect$$rtexit$$00000001
    rtexit2.o(.ARM.exidx) refers to rtexit2.o(.ARM.Collect$$rtexit$$00000003) for .ARM.Collect$$rtexit$$00000003
    rtexit2.o(.ARM.exidx) refers to rtexit2.o(.ARM.Collect$$rtexit$$00000004) for .ARM.Collect$$rtexit$$00000004
    scanf_hexfp.o(.text) refers to _chval.o(.text) for _chval
    scanf_hexfp.o(.text) refers to llshl.o(.text) for __aeabi_llsl
    scanf_hexfp.o(.text) refers to ldexp.o(i.__support_ldexp) for __support_ldexp
    scanf_hexfp.o(.text) refers to narrow.o(i.__mathlib_narrow) for __mathlib_narrow
    defsig_abrt_inner.o(.text) refers to defsig_general.o(.text) for __default_signal_display
    defsig_rtred_inner.o(.text) refers to defsig_general.o(.text) for __default_signal_display
    defsig_stak_inner.o(.text) refers to defsig_general.o(.text) for __default_signal_display
    defsig_cppl_inner.o(.text) refers to defsig_general.o(.text) for __default_signal_display
    defsig_segv_inner.o(.text) refers to defsig_general.o(.text) for __default_signal_display
    defsig_other.o(.text) refers to defsig_general.o(.text) for __default_signal_display
    deqf.o(x$fpl$deqf) refers (Special) to usenofp.o(x$fpl$usenofp) for __I$use$fp
    deqf.o(x$fpl$deqf) refers to dnaninf.o(x$fpl$dnaninf) for __fpl_dnaninf
    deqf.o(x$fpl$deqf) refers to dcmpi.o(x$fpl$dcmpinf) for __fpl_dcmp_Inf
    frexp.o(i.__softfp_frexp) refers (Special) to usenofp.o(x$fpl$usenofp) for __I$use$fp
    frexp.o(i.__softfp_frexp) refers to scalbn.o(x$fpl$scalbn) for __ARM_scalbn
    frexp.o(i.frexp) refers (Special) to usenofp.o(x$fpl$usenofp) for __I$use$fp
    frexp.o(i.frexp) refers to scalbn.o(x$fpl$scalbn) for __ARM_scalbn
    libshutdown.o(.ARM.Collect$$libshutdown$$00000000) refers (Special) to libshutdown2.o(.ARM.Collect$$libshutdown$$00000002) for __rt_lib_shutdown_cpp_1
    libshutdown.o(.ARM.Collect$$libshutdown$$00000000) refers (Special) to libshutdown2.o(.ARM.Collect$$libshutdown$$00000007) for __rt_lib_shutdown_fp_trap_1
    libshutdown.o(.ARM.Collect$$libshutdown$$00000000) refers (Special) to libshutdown2.o(.ARM.Collect$$libshutdown$$0000000F) for __rt_lib_shutdown_heap_1
    libshutdown.o(.ARM.Collect$$libshutdown$$00000000) refers (Special) to libshutdown2.o(.ARM.Collect$$libshutdown$$00000010) for __rt_lib_shutdown_return
    libshutdown.o(.ARM.Collect$$libshutdown$$00000000) refers (Special) to libshutdown2.o(.ARM.Collect$$libshutdown$$0000000A) for __rt_lib_shutdown_signal_1
    libshutdown.o(.ARM.Collect$$libshutdown$$00000000) refers (Special) to libshutdown2.o(.ARM.Collect$$libshutdown$$00000004) for __rt_lib_shutdown_stdio_1
    libshutdown.o(.ARM.Collect$$libshutdown$$00000000) refers (Special) to libshutdown2.o(.ARM.Collect$$libshutdown$$0000000C) for __rt_lib_shutdown_user_alloc_1
    ldexp.o(i.__softfp_ldexp) refers (Special) to usenofp.o(x$fpl$usenofp) for __I$use$fp
    ldexp.o(i.__softfp_ldexp) refers to ldexp.o(i.ldexp) for ldexp
    ldexp.o(i.__support_ldexp) refers (Special) to usenofp.o(x$fpl$usenofp) for __I$use$fp
    ldexp.o(i.__support_ldexp) refers to ldexp.o(i.ldexp) for ldexp
    ldexp.o(i.ldexp) refers (Special) to usenofp.o(x$fpl$usenofp) for __I$use$fp
    ldexp.o(i.ldexp) refers to deqf.o(x$fpl$deqf) for __aeabi_cdcmpeq
    ldexp.o(i.ldexp) refers to scalbn.o(x$fpl$scalbn) for __ARM_scalbn
    ldexp.o(i.ldexp) refers to _rserrno.o(.text) for __set_errno
    ldexp.o(i.ldexp) refers to dunder.o(i.__mathlib_dbl_underflow) for __mathlib_dbl_underflow
    ldexp.o(i.ldexp) refers to dunder.o(i.__mathlib_dbl_overflow) for __mathlib_dbl_overflow
    ldexp_x.o(i.____softfp_ldexp$lsc) refers (Special) to usenofp.o(x$fpl$usenofp) for __I$use$fp
    ldexp_x.o(i.____softfp_ldexp$lsc) refers to ldexp_x.o(i.__ldexp$lsc) for __ldexp$lsc
    ldexp_x.o(i.____support_ldexp$lsc) refers (Special) to usenofp.o(x$fpl$usenofp) for __I$use$fp
    ldexp_x.o(i.____support_ldexp$lsc) refers to ldexp_x.o(i.__ldexp$lsc) for __ldexp$lsc
    ldexp_x.o(i.__ldexp$lsc) refers (Special) to usenofp.o(x$fpl$usenofp) for __I$use$fp
    ldexp_x.o(i.__ldexp$lsc) refers to deqf.o(x$fpl$deqf) for __aeabi_cdcmpeq
    ldexp_x.o(i.__ldexp$lsc) refers to scalbn.o(x$fpl$scalbn) for __ARM_scalbn
    ldexp_x.o(i.__ldexp$lsc) refers to _rserrno.o(.text) for __set_errno
    ldexp_x.o(i.__ldexp$lsc) refers to qnan.o(.constdata) for __mathlib_zero
    dunder.o(i.__mathlib_dbl_divzero) refers to ddiv.o(x$fpl$ddiv) for __aeabi_ddiv
    dunder.o(i.__mathlib_dbl_infnan) refers to scalbn.o(x$fpl$scalbn) for __ARM_scalbn
    dunder.o(i.__mathlib_dbl_infnan2) refers to daddsub_clz.o(x$fpl$dadd) for __aeabi_dadd
    dunder.o(i.__mathlib_dbl_invalid) refers to ddiv.o(x$fpl$ddiv) for __aeabi_ddiv
    dunder.o(i.__mathlib_dbl_overflow) refers to scalbn.o(x$fpl$scalbn) for __ARM_scalbn
    dunder.o(i.__mathlib_dbl_posinfnan) refers to dmul.o(x$fpl$dmul) for __aeabi_dmul
    dunder.o(i.__mathlib_dbl_underflow) refers to scalbn.o(x$fpl$scalbn) for __ARM_scalbn
    qnan.o(.constdata) refers (Special) to usenofp.o(x$fpl$usenofp) for __I$use$fp
    ft6336u.o(.constdata__ZTV7FT6336U) refers to ft6336u.o(.constdata__ZTI7FT6336U) for typeinfo for FT6336U
    ft6336u.o(.constdata__ZTV7FT6336U) refers to ft6336u.o(i._ZN7FT6336UD1Ev) for FT6336U::~FT6336U()
    ft6336u.o(.constdata__ZTV7FT6336U) refers to ft6336u.o(i._ZN7FT6336UD0Ev) for FT6336U::~FT6336U__deallocating()
    ft6336u.o(.constdata__ZTI7FT6336U) refers to lib_rtti_impl.o(.constdata__ZTVN10__cxxabiv117__class_type_infoE) for vtable for __cxxabiv1::__class_type_info
    ft6336u.o(.constdata__ZTI7FT6336U) refers to ft6336u.o(.constdata__ZTS7FT6336U) for typeinfo name for FT6336U
    hardwareserial.o(.constdata__ZTV14HardwareSerial) refers to hardwareserial.o(.constdata__ZTI14HardwareSerial) for typeinfo for HardwareSerial
    hardwareserial.o(.constdata__ZTV14HardwareSerial) refers to hardwareserial.o(i._ZN14HardwareSerial5writeEh) for HardwareSerial::write(unsigned char)
    hardwareserial.o(.constdata__ZTV14HardwareSerial) refers to print.o(i._ZN5Print5writeEPKc) for Print::write(const char*)
    hardwareserial.o(.constdata__ZTV14HardwareSerial) refers to print.o(i._ZN5Print5writeEPKvj) for Print::write(const void*, unsigned)
    hardwareserial.o(.constdata__ZTV14HardwareSerial) refers to hardwareserial.o(i._ZN14HardwareSerial9availableEv) for HardwareSerial::available()
    hardwareserial.o(.constdata__ZTV14HardwareSerial) refers to hardwareserial.o(i._ZN14HardwareSerial4readEv) for HardwareSerial::read()
    hardwareserial.o(.constdata__ZTV14HardwareSerial) refers to hardwareserial.o(i._ZN14HardwareSerial4peekEv) for HardwareSerial::peek()
    hardwareserial.o(.constdata__ZTV14HardwareSerial) refers to hardwareserial.o(i._ZN14HardwareSerial5flushEv) for HardwareSerial::flush()
    hardwareserial.o(.constdata__ZTI14HardwareSerial) refers to lib_rtti_impl.o(.constdata__ZTVN10__cxxabiv120__si_class_type_infoE) for vtable for __cxxabiv1::__si_class_type_info
    hardwareserial.o(.constdata__ZTI14HardwareSerial) refers to hardwareserial.o(.constdata__ZTS14HardwareSerial) for typeinfo name for HardwareSerial
    hardwareserial.o(.constdata__ZTI14HardwareSerial) refers to hardwareserial.o(.constdata__ZTI6Stream) for typeinfo for Stream
    hardwareserial.o(.constdata__ZTI6Stream) refers to lib_rtti_impl.o(.constdata__ZTVN10__cxxabiv120__si_class_type_infoE) for vtable for __cxxabiv1::__si_class_type_info
    hardwareserial.o(.constdata__ZTI6Stream) refers to hardwareserial.o(.constdata__ZTS6Stream) for typeinfo name for Stream
    hardwareserial.o(.constdata__ZTI6Stream) refers to print.o(.constdata__ZTI5Print) for typeinfo for Print
    print.o(.constdata__ZTV5Print) refers to print.o(.constdata__ZTI5Print) for typeinfo for Print
    print.o(.constdata__ZTV5Print) refers to pure_virt.o(i.__cxa_pure_virtual) for __cxa_pure_virtual
    print.o(.constdata__ZTV5Print) refers to print.o(i._ZN5Print5writeEPKc) for Print::write(const char*)
    print.o(.constdata__ZTV5Print) refers to print.o(i._ZN5Print5writeEPKvj) for Print::write(const void*, unsigned)
    print.o(.constdata__ZTI5Print) refers to lib_rtti_impl.o(.constdata__ZTVN10__cxxabiv117__class_type_infoE) for vtable for __cxxabiv1::__class_type_info
    print.o(.constdata__ZTI5Print) refers to print.o(.constdata__ZTS5Print) for typeinfo name for Print
    wstring.o(.ARM.exidx) refers to wstring.o(i._ZN6String4initEv) for i._ZN6String4initEv
    wstring.o(i._ZSt6strstrPcPKc) refers to strstr.o(.text) for strstr
    wstring.o(.ARM.exidx) refers to wstring.o(i._ZSt6strstrPcPKc) for i._ZSt6strstrPcPKc
    wire.o(.constdata__ZTV7TwoWire) refers to wire.o(.constdata__ZTI7TwoWire) for typeinfo for TwoWire
    wire.o(.constdata__ZTV7TwoWire) refers to wire.o(i._ZN7TwoWire7processEv) for TwoWire::process()
    wire.o(.constdata__ZTV7TwoWire) refers to wire.o(i._ZN7TwoWire5beginEh) for TwoWire::begin(unsigned char)
    wire.o(.constdata__ZTI7TwoWire) refers to lib_rtti_impl.o(.constdata__ZTVN10__cxxabiv120__si_class_type_infoE) for vtable for __cxxabiv1::__si_class_type_info
    wire.o(.constdata__ZTI7TwoWire) refers to wire.o(.constdata__ZTS7TwoWire) for typeinfo name for TwoWire
    wire.o(.constdata__ZTI7TwoWire) refers to wirebase.o(.constdata__ZTI8WireBase) for typeinfo for WireBase
    wirebase.o(.constdata__ZTV8WireBase) refers to wirebase.o(.constdata__ZTI8WireBase) for typeinfo for WireBase
    wirebase.o(.constdata__ZTV8WireBase) refers to pure_virt.o(i.__cxa_pure_virtual) for __cxa_pure_virtual
    wirebase.o(.constdata__ZTV8WireBase) refers to wirebase.o(i._ZN8WireBase5beginEh) for WireBase::begin(unsigned char)
    wirebase.o(.constdata__ZTI8WireBase) refers to lib_rtti_impl.o(.constdata__ZTVN10__cxxabiv117__class_type_infoE) for vtable for __cxxabiv1::__class_type_info
    wirebase.o(.constdata__ZTI8WireBase) refers to wirebase.o(.constdata__ZTS8WireBase) for typeinfo name for WireBase
    lib_rtti_impl.o(.constdata__ZTVN10__cxxabiv123__fundamental_type_infoE) refers to lib_rtti_impl.o(.constdata__ZTIN10__cxxabiv123__fundamental_type_infoE) for typeinfo for __cxxabiv1::__fundamental_type_info
    lib_rtti_impl.o(.constdata__ZTVN10__cxxabiv123__fundamental_type_infoE) refers to lib_rtti_impl.o(i._ZN10__cxxabiv123__fundamental_type_infoD1Ev) for __cxxabiv1::__fundamental_type_info::~__fundamental_type_info()
    lib_rtti_impl.o(.constdata__ZTVN10__cxxabiv123__fundamental_type_infoE) refers to lib_rtti_impl.o(i._ZN10__cxxabiv123__fundamental_type_infoD0Ev) for __cxxabiv1::__fundamental_type_info::~__fundamental_type_info__deallocating()
    lib_rtti_impl.o(.constdata__ZTVN10__cxxabiv117__array_type_infoE) refers to lib_rtti_impl.o(.constdata__ZTIN10__cxxabiv117__array_type_infoE) for typeinfo for __cxxabiv1::__array_type_info
    lib_rtti_impl.o(.constdata__ZTVN10__cxxabiv117__array_type_infoE) refers to lib_rtti_impl.o(i._ZN10__cxxabiv117__array_type_infoD1Ev) for __cxxabiv1::__array_type_info::~__array_type_info()
    lib_rtti_impl.o(.constdata__ZTVN10__cxxabiv117__array_type_infoE) refers to lib_rtti_impl.o(i._ZN10__cxxabiv117__array_type_infoD0Ev) for __cxxabiv1::__array_type_info::~__array_type_info__deallocating()
    lib_rtti_impl.o(.constdata__ZTVN10__cxxabiv120__function_type_infoE) refers to lib_rtti_impl.o(.constdata__ZTIN10__cxxabiv120__function_type_infoE) for typeinfo for __cxxabiv1::__function_type_info
    lib_rtti_impl.o(.constdata__ZTVN10__cxxabiv120__function_type_infoE) refers to lib_rtti_impl.o(i._ZN10__cxxabiv120__function_type_infoD1Ev) for __cxxabiv1::__function_type_info::~__function_type_info()
    lib_rtti_impl.o(.constdata__ZTVN10__cxxabiv120__function_type_infoE) refers to lib_rtti_impl.o(i._ZN10__cxxabiv120__function_type_infoD0Ev) for __cxxabiv1::__function_type_info::~__function_type_info__deallocating()
    lib_rtti_impl.o(.constdata__ZTVN10__cxxabiv116__enum_type_infoE) refers to lib_rtti_impl.o(.constdata__ZTIN10__cxxabiv116__enum_type_infoE) for typeinfo for __cxxabiv1::__enum_type_info
    lib_rtti_impl.o(.constdata__ZTVN10__cxxabiv116__enum_type_infoE) refers to lib_rtti_impl.o(i._ZN10__cxxabiv116__enum_type_infoD1Ev) for __cxxabiv1::__enum_type_info::~__enum_type_info()
    lib_rtti_impl.o(.constdata__ZTVN10__cxxabiv116__enum_type_infoE) refers to lib_rtti_impl.o(i._ZN10__cxxabiv116__enum_type_infoD0Ev) for __cxxabiv1::__enum_type_info::~__enum_type_info__deallocating()
    lib_rtti_impl.o(.constdata__ZTVN10__cxxabiv117__class_type_infoE) refers to lib_rtti_impl.o(.constdata__ZTIN10__cxxabiv117__class_type_infoE) for typeinfo for __cxxabiv1::__class_type_info
    lib_rtti_impl.o(.constdata__ZTVN10__cxxabiv117__class_type_infoE) refers to lib_rtti_impl.o(i._ZN10__cxxabiv117__class_type_infoD1Ev) for __cxxabiv1::__class_type_info::~__class_type_info()
    lib_rtti_impl.o(.constdata__ZTVN10__cxxabiv117__class_type_infoE) refers to lib_rtti_impl.o(i._ZN10__cxxabiv117__class_type_infoD0Ev) for __cxxabiv1::__class_type_info::~__class_type_info__deallocating()
    lib_rtti_impl.o(.constdata__ZTVN10__cxxabiv120__si_class_type_infoE) refers to lib_rtti_impl.o(.constdata__ZTIN10__cxxabiv120__si_class_type_infoE) for typeinfo for __cxxabiv1::__si_class_type_info
    lib_rtti_impl.o(.constdata__ZTVN10__cxxabiv120__si_class_type_infoE) refers to lib_rtti_impl.o(i._ZN10__cxxabiv120__si_class_type_infoD1Ev) for __cxxabiv1::__si_class_type_info::~__si_class_type_info()
    lib_rtti_impl.o(.constdata__ZTVN10__cxxabiv120__si_class_type_infoE) refers to lib_rtti_impl.o(i._ZN10__cxxabiv120__si_class_type_infoD0Ev) for __cxxabiv1::__si_class_type_info::~__si_class_type_info__deallocating()
    lib_rtti_impl.o(.constdata__ZTVN10__cxxabiv121__vmi_class_type_infoE) refers to lib_rtti_impl.o(.constdata__ZTIN10__cxxabiv121__vmi_class_type_infoE) for typeinfo for __cxxabiv1::__vmi_class_type_info
    lib_rtti_impl.o(.constdata__ZTVN10__cxxabiv121__vmi_class_type_infoE) refers to lib_rtti_impl.o(i._ZN10__cxxabiv121__vmi_class_type_infoD1Ev) for __cxxabiv1::__vmi_class_type_info::~__vmi_class_type_info()
    lib_rtti_impl.o(.constdata__ZTVN10__cxxabiv121__vmi_class_type_infoE) refers to lib_rtti_impl.o(i._ZN10__cxxabiv121__vmi_class_type_infoD0Ev) for __cxxabiv1::__vmi_class_type_info::~__vmi_class_type_info__deallocating()
    lib_rtti_impl.o(.constdata__ZTVN10__cxxabiv117__pbase_type_infoE) refers to lib_rtti_impl.o(.constdata__ZTIN10__cxxabiv117__pbase_type_infoE) for typeinfo for __cxxabiv1::__pbase_type_info
    lib_rtti_impl.o(.constdata__ZTVN10__cxxabiv117__pbase_type_infoE) refers to lib_rtti_impl.o(i._ZN10__cxxabiv117__pbase_type_infoD1Ev) for __cxxabiv1::__pbase_type_info::~__pbase_type_info()
    lib_rtti_impl.o(.constdata__ZTVN10__cxxabiv117__pbase_type_infoE) refers to lib_rtti_impl.o(i._ZN10__cxxabiv117__pbase_type_infoD0Ev) for __cxxabiv1::__pbase_type_info::~__pbase_type_info__deallocating()
    lib_rtti_impl.o(.constdata__ZTVN10__cxxabiv119__pointer_type_infoE) refers to lib_rtti_impl.o(.constdata__ZTIN10__cxxabiv119__pointer_type_infoE) for typeinfo for __cxxabiv1::__pointer_type_info
    lib_rtti_impl.o(.constdata__ZTVN10__cxxabiv119__pointer_type_infoE) refers to lib_rtti_impl.o(i._ZN10__cxxabiv119__pointer_type_infoD1Ev) for __cxxabiv1::__pointer_type_info::~__pointer_type_info()
    lib_rtti_impl.o(.constdata__ZTVN10__cxxabiv119__pointer_type_infoE) refers to lib_rtti_impl.o(i._ZN10__cxxabiv119__pointer_type_infoD0Ev) for __cxxabiv1::__pointer_type_info::~__pointer_type_info__deallocating()
    lib_rtti_impl.o(.constdata__ZTVN10__cxxabiv129__pointer_to_member_type_infoE) refers to lib_rtti_impl.o(.constdata__ZTIN10__cxxabiv129__pointer_to_member_type_infoE) for typeinfo for __cxxabiv1::__pointer_to_member_type_info
    lib_rtti_impl.o(.constdata__ZTVN10__cxxabiv129__pointer_to_member_type_infoE) refers to lib_rtti_impl.o(i._ZN10__cxxabiv129__pointer_to_member_type_infoD1Ev) for __cxxabiv1::__pointer_to_member_type_info::~__pointer_to_member_type_info()
    lib_rtti_impl.o(.constdata__ZTVN10__cxxabiv129__pointer_to_member_type_infoE) refers to lib_rtti_impl.o(i._ZN10__cxxabiv129__pointer_to_member_type_infoD0Ev) for __cxxabiv1::__pointer_to_member_type_info::~__pointer_to_member_type_info__deallocating()
    lib_rtti_impl.o(.ARM.exidx) refers to lib_rtti_impl.o(i._ZNSt9type_infodlEPv) for i._ZNSt9type_infodlEPv
    lib_rtti_impl.o(.constdata__ZTIN10__cxxabiv123__fundamental_type_infoE) refers to lib_rtti_impl.o(.constdata__ZTVN10__cxxabiv120__si_class_type_infoE) for vtable for __cxxabiv1::__si_class_type_info
    lib_rtti_impl.o(.constdata__ZTIN10__cxxabiv123__fundamental_type_infoE) refers to lib_rtti_impl.o(.constdata__ZTSN10__cxxabiv123__fundamental_type_infoE) for typeinfo name for __cxxabiv1::__fundamental_type_info
    lib_rtti_impl.o(.constdata__ZTIN10__cxxabiv123__fundamental_type_infoE) refers to type_info_dtor.o(.constdata__ZTISt9type_info) for typeinfo for std::type_info
    lib_rtti_impl.o(.constdata__ZTIN10__cxxabiv117__array_type_infoE) refers to lib_rtti_impl.o(.constdata__ZTVN10__cxxabiv120__si_class_type_infoE) for vtable for __cxxabiv1::__si_class_type_info
    lib_rtti_impl.o(.constdata__ZTIN10__cxxabiv117__array_type_infoE) refers to lib_rtti_impl.o(.constdata__ZTSN10__cxxabiv117__array_type_infoE) for typeinfo name for __cxxabiv1::__array_type_info
    lib_rtti_impl.o(.constdata__ZTIN10__cxxabiv117__array_type_infoE) refers to type_info_dtor.o(.constdata__ZTISt9type_info) for typeinfo for std::type_info
    lib_rtti_impl.o(.constdata__ZTIN10__cxxabiv120__function_type_infoE) refers to lib_rtti_impl.o(.constdata__ZTVN10__cxxabiv120__si_class_type_infoE) for vtable for __cxxabiv1::__si_class_type_info
    lib_rtti_impl.o(.constdata__ZTIN10__cxxabiv120__function_type_infoE) refers to lib_rtti_impl.o(.constdata__ZTSN10__cxxabiv120__function_type_infoE) for typeinfo name for __cxxabiv1::__function_type_info
    lib_rtti_impl.o(.constdata__ZTIN10__cxxabiv120__function_type_infoE) refers to type_info_dtor.o(.constdata__ZTISt9type_info) for typeinfo for std::type_info
    lib_rtti_impl.o(.constdata__ZTIN10__cxxabiv116__enum_type_infoE) refers to lib_rtti_impl.o(.constdata__ZTVN10__cxxabiv120__si_class_type_infoE) for vtable for __cxxabiv1::__si_class_type_info
    lib_rtti_impl.o(.constdata__ZTIN10__cxxabiv116__enum_type_infoE) refers to lib_rtti_impl.o(.constdata__ZTSN10__cxxabiv116__enum_type_infoE) for typeinfo name for __cxxabiv1::__enum_type_info
    lib_rtti_impl.o(.constdata__ZTIN10__cxxabiv116__enum_type_infoE) refers to type_info_dtor.o(.constdata__ZTISt9type_info) for typeinfo for std::type_info
    lib_rtti_impl.o(.constdata__ZTIN10__cxxabiv117__class_type_infoE) refers to lib_rtti_impl.o(.constdata__ZTVN10__cxxabiv120__si_class_type_infoE) for vtable for __cxxabiv1::__si_class_type_info
    lib_rtti_impl.o(.constdata__ZTIN10__cxxabiv117__class_type_infoE) refers to lib_rtti_impl.o(.constdata__ZTSN10__cxxabiv117__class_type_infoE) for typeinfo name for __cxxabiv1::__class_type_info
    lib_rtti_impl.o(.constdata__ZTIN10__cxxabiv117__class_type_infoE) refers to type_info_dtor.o(.constdata__ZTISt9type_info) for typeinfo for std::type_info
    lib_rtti_impl.o(.constdata__ZTIN10__cxxabiv120__si_class_type_infoE) refers to lib_rtti_impl.o(.constdata__ZTVN10__cxxabiv120__si_class_type_infoE) for vtable for __cxxabiv1::__si_class_type_info
    lib_rtti_impl.o(.constdata__ZTIN10__cxxabiv120__si_class_type_infoE) refers to lib_rtti_impl.o(.constdata__ZTSN10__cxxabiv120__si_class_type_infoE) for typeinfo name for __cxxabiv1::__si_class_type_info
    lib_rtti_impl.o(.constdata__ZTIN10__cxxabiv120__si_class_type_infoE) refers to lib_rtti_impl.o(.constdata__ZTIN10__cxxabiv117__class_type_infoE) for typeinfo for __cxxabiv1::__class_type_info
    lib_rtti_impl.o(.constdata__ZTIN10__cxxabiv121__vmi_class_type_infoE) refers to lib_rtti_impl.o(.constdata__ZTVN10__cxxabiv120__si_class_type_infoE) for vtable for __cxxabiv1::__si_class_type_info
    lib_rtti_impl.o(.constdata__ZTIN10__cxxabiv121__vmi_class_type_infoE) refers to lib_rtti_impl.o(.constdata__ZTSN10__cxxabiv121__vmi_class_type_infoE) for typeinfo name for __cxxabiv1::__vmi_class_type_info
    lib_rtti_impl.o(.constdata__ZTIN10__cxxabiv121__vmi_class_type_infoE) refers to lib_rtti_impl.o(.constdata__ZTIN10__cxxabiv117__class_type_infoE) for typeinfo for __cxxabiv1::__class_type_info
    lib_rtti_impl.o(.constdata__ZTIN10__cxxabiv117__pbase_type_infoE) refers to lib_rtti_impl.o(.constdata__ZTVN10__cxxabiv120__si_class_type_infoE) for vtable for __cxxabiv1::__si_class_type_info
    lib_rtti_impl.o(.constdata__ZTIN10__cxxabiv117__pbase_type_infoE) refers to lib_rtti_impl.o(.constdata__ZTSN10__cxxabiv117__pbase_type_infoE) for typeinfo name for __cxxabiv1::__pbase_type_info
    lib_rtti_impl.o(.constdata__ZTIN10__cxxabiv117__pbase_type_infoE) refers to type_info_dtor.o(.constdata__ZTISt9type_info) for typeinfo for std::type_info
    lib_rtti_impl.o(.constdata__ZTIN10__cxxabiv119__pointer_type_infoE) refers to lib_rtti_impl.o(.constdata__ZTVN10__cxxabiv120__si_class_type_infoE) for vtable for __cxxabiv1::__si_class_type_info
    lib_rtti_impl.o(.constdata__ZTIN10__cxxabiv119__pointer_type_infoE) refers to lib_rtti_impl.o(.constdata__ZTSN10__cxxabiv119__pointer_type_infoE) for typeinfo name for __cxxabiv1::__pointer_type_info
    lib_rtti_impl.o(.constdata__ZTIN10__cxxabiv119__pointer_type_infoE) refers to lib_rtti_impl.o(.constdata__ZTIN10__cxxabiv117__pbase_type_infoE) for typeinfo for __cxxabiv1::__pbase_type_info
    lib_rtti_impl.o(.constdata__ZTIN10__cxxabiv129__pointer_to_member_type_infoE) refers to lib_rtti_impl.o(.constdata__ZTVN10__cxxabiv120__si_class_type_infoE) for vtable for __cxxabiv1::__si_class_type_info
    lib_rtti_impl.o(.constdata__ZTIN10__cxxabiv129__pointer_to_member_type_infoE) refers to lib_rtti_impl.o(.constdata__ZTSN10__cxxabiv129__pointer_to_member_type_infoE) for typeinfo name for __cxxabiv1::__pointer_to_member_type_info
    lib_rtti_impl.o(.constdata__ZTIN10__cxxabiv129__pointer_to_member_type_infoE) refers to lib_rtti_impl.o(.constdata__ZTIN10__cxxabiv117__pbase_type_infoE) for typeinfo for __cxxabiv1::__pbase_type_info
    lib_rtti_impl.o(i.__ARM_common_noexcept_landing) refers to arm_exceptions_callterm.o(.text) for __cxa_call_terminate
    lib_rtti_impl.o(.ARM.exidx) refers to lib_rtti_impl.o(i.__ARM_common_noexcept_landing) for i.__ARM_common_noexcept_landing
    type_info_dtor.o(.constdata__ZTVSt9type_info) refers to type_info_dtor.o(.constdata__ZTISt9type_info) for typeinfo for std::type_info
    type_info_dtor.o(.constdata__ZTVSt9type_info) refers to type_info_dtor.o(i._ZNSt9type_infoD1Ev) for std::type_info::~type_info()
    type_info_dtor.o(.constdata__ZTVSt9type_info) refers to type_info_dtor.o(i._ZNSt9type_infoD0Ev) for std::type_info::~type_info__deallocating()
    type_info_dtor.o(.constdata__ZTISt9type_info) refers to lib_rtti_impl.o(.constdata__ZTVN10__cxxabiv117__class_type_infoE) for vtable for __cxxabiv1::__class_type_info
    type_info_dtor.o(.constdata__ZTISt9type_info) refers to type_info_dtor.o(.constdata__ZTSSt9type_info) for typeinfo name for std::type_info


==============================================================================

Removing Unused input sections from the image.

    Removing main.o(.rev16_text), (4 bytes).
    Removing main.o(.revsh_text), (4 bytes).
    Removing main.o(.rrx_text), (6 bytes).
    Removing main.o(.ARM.exidx), (8 bytes).
    Removing main.o(.ARM.exidx), (8 bytes).
    Removing main.o(.ARM.exidx), (8 bytes).
    Removing bsp_i2c_scan.o(.rev16_text), (4 bytes).
    Removing bsp_i2c_scan.o(.revsh_text), (4 bytes).
    Removing bsp_i2c_scan.o(.rrx_text), (6 bytes).
    Removing bsp_i2c_scan.o(.ARM.exidx), (8 bytes).
    Removing bsp_imu.o(.rev16_text), (4 bytes).
    Removing bsp_imu.o(.revsh_text), (4 bytes).
    Removing bsp_imu.o(.rrx_text), (6 bytes).
    Removing bsp_imu.o(i._Z12IMU_GetStepsv), (12 bytes).
    Removing bsp_imu.o(.ARM.exidx), (8 bytes).
    Removing bsp_imu.o(.ARM.exidx), (8 bytes).
    Removing bsp_imu.o(.ARM.exidx), (8 bytes).
    Removing bsp_imu.o(.ARM.exidx), (8 bytes).
    Removing bsp_particlesensor.o(.rev16_text), (4 bytes).
    Removing bsp_particlesensor.o(.revsh_text), (4 bytes).
    Removing bsp_particlesensor.o(.rrx_text), (6 bytes).
    Removing bsp_particlesensor.o(.ARM.exidx), (8 bytes).
    Removing bsp_particlesensor.o(.ARM.exidx), (8 bytes).
    Removing bsp_particlesensor.o(.ARM.exidx), (8 bytes).
    Removing bsp_particlesensor.o(.ARM.exidx), (8 bytes).
    Removing bsp_touchpad.o(.rev16_text), (4 bytes).
    Removing bsp_touchpad.o(.revsh_text), (4 bytes).
    Removing bsp_touchpad.o(.rrx_text), (6 bytes).
    Removing bsp_touchpad.o(i._Z18TouchPad_GetPointsPsS_), (16 bytes).
    Removing bsp_touchpad.o(i._Z19TouchPad_GetPressedv), (12 bytes).
    Removing bsp_touchpad.o(.ARM.exidx), (8 bytes).
    Removing bsp_touchpad.o(.ARM.exidx), (8 bytes).
    Removing bsp_touchpad.o(.ARM.exidx), (8 bytes).
    Removing bsp_touchpad.o(.ARM.exidx), (8 bytes).
    Removing bsp_touchpad.o(.ARM.exidx), (8 bytes).
    Removing bsp_touchpad.o(.ARM.exidx), (8 bytes).
    Removing bsp_comslave.o(.rev16_text), (4 bytes).
    Removing bsp_comslave.o(.revsh_text), (4 bytes).
    Removing bsp_comslave.o(.rrx_text), (6 bytes).
    Removing bsp_comslave.o(.ARM.exidx), (8 bytes).
    Removing bsp_comslave.o(.ARM.exidx), (8 bytes).
    Removing bsp_comslave.o(.ARM.exidx), (8 bytes).
    Removing bsp_comslave.o(.ARM.exidx), (8 bytes).
    Removing ft6336u.o(.rev16_text), (4 bytes).
    Removing ft6336u.o(.revsh_text), (4 bytes).
    Removing ft6336u.o(.rrx_text), (6 bytes).
    Removing ft6336u.o(i._ZN7FT6336U10read_stateEv), (6 bytes).
    Removing ft6336u.o(i._ZN7FT6336U11read_g_modeEv), (6 bytes).
    Removing ft6336u.o(i._ZN7FT6336U12read_chip_idEv), (6 bytes).
    Removing ft6336u.o(i._ZN7FT6336U12read_pwrmodeEv), (6 bytes).
    Removing ft6336u.o(i._ZN7FT6336U12write_g_modeE11G_MODE_Enum), (8 bytes).
    Removing ft6336u.o(i._ZN7FT6336U13read_touch2_xEv), (32 bytes).
    Removing ft6336u.o(i._ZN7FT6336U13read_touch2_yEv), (32 bytes).
    Removing ft6336u.o(i._ZN7FT6336U14read_ctrl_modeEv), (6 bytes).
    Removing ft6336u.o(i._ZN7FT6336U14read_td_statusEv), (6 bytes).
    Removing ft6336u.o(i._ZN7FT6336U14read_touch1_idEv), (12 bytes).
    Removing ft6336u.o(i._ZN7FT6336U14read_touch2_idEv), (12 bytes).
    Removing ft6336u.o(i._ZN7FT6336U15read_gesture_idEv), (6 bytes).
    Removing ft6336u.o(i._ZN7FT6336U15write_ctrl_modeE14CTRL_MODE_Enum), (8 bytes).
    Removing ft6336u.o(i._ZN7FT6336U16read_active_rateEv), (6 bytes).
    Removing ft6336u.o(i._ZN7FT6336U16read_device_modeEv), (14 bytes).
    Removing ft6336u.o(i._ZN7FT6336U16read_firmware_idEv), (6 bytes).
    Removing ft6336u.o(i._ZN7FT6336U16read_touch1_miscEv), (12 bytes).
    Removing ft6336u.o(i._ZN7FT6336U16read_touch2_miscEv), (12 bytes).
    Removing ft6336u.o(i._ZN7FT6336U17read_focaltech_idEv), (6 bytes).
    Removing ft6336u.o(i._ZN7FT6336U17read_monitor_rateEv), (6 bytes).
    Removing ft6336u.o(i._ZN7FT6336U17read_radian_valueEv), (6 bytes).
    Removing ft6336u.o(i._ZN7FT6336U17read_touch2_eventEv), (12 bytes).
    Removing ft6336u.o(i._ZN7FT6336U17read_touch_numberEv), (14 bytes).
    Removing ft6336u.o(i._ZN7FT6336U17write_device_modeE16DEVICE_MODE_Enum), (10 bytes).
    Removing ft6336u.o(i._ZN7FT6336U18read_distance_zoomEv), (6 bytes).
    Removing ft6336u.o(i._ZN7FT6336U18read_touch1_weightEv), (6 bytes).
    Removing ft6336u.o(i._ZN7FT6336U18read_touch2_weightEv), (6 bytes).
    Removing ft6336u.o(i._ZN7FT6336U18write_radian_valueEh), (8 bytes).
    Removing ft6336u.o(i._ZN7FT6336U19read_offset_up_downEv), (6 bytes).
    Removing ft6336u.o(i._ZN7FT6336U19write_distance_zoomEh), (8 bytes).
    Removing ft6336u.o(i._ZN7FT6336U20read_library_versionEv), (32 bytes).
    Removing ft6336u.o(i._ZN7FT6336U20read_release_code_idEv), (6 bytes).
    Removing ft6336u.o(i._ZN7FT6336U20read_touch_thresholdEv), (6 bytes).
    Removing ft6336u.o(i._ZN7FT6336U20write_offset_up_downEh), (8 bytes).
    Removing ft6336u.o(i._ZN7FT6336U21read_distance_up_downEv), (6 bytes).
    Removing ft6336u.o(i._ZN7FT6336U22read_offset_left_rightEv), (6 bytes).
    Removing ft6336u.o(i._ZN7FT6336U22write_distance_up_downEh), (8 bytes).
    Removing ft6336u.o(i._ZN7FT6336U23read_filter_coefficientEv), (6 bytes).
    Removing ft6336u.o(i._ZN7FT6336U23write_offset_left_rightEh), (8 bytes).
    Removing ft6336u.o(i._ZN7FT6336U24read_distance_left_rightEv), (6 bytes).
    Removing ft6336u.o(i._ZN7FT6336U25write_distance_left_rightEh), (8 bytes).
    Removing ft6336u.o(i._ZN7FT6336U30read_time_period_enter_monitorEv), (6 bytes).
    Removing ft6336u.o(i._ZN7FT6336U4scanEv), (192 bytes).
    Removing ft6336u.o(i._ZN7FT6336U5beginEv), (12 bytes).
    Removing ft6336u.o(i._ZN7FT6336U9writeByteEhh), (44 bytes).
    Removing ft6336u.o(i._ZN7FT6336UD0Ev), (4 bytes).
    Removing ft6336u.o(.ARM.exidx), (8 bytes).
    Removing ft6336u.o(.ARM.exidx), (8 bytes).
    Removing ft6336u.o(.ARM.exidx), (8 bytes).
    Removing ft6336u.o(.ARM.exidx), (8 bytes).
    Removing ft6336u.o(.ARM.exidx), (8 bytes).
    Removing ft6336u.o(.ARM.exidx), (8 bytes).
    Removing ft6336u.o(.ARM.exidx), (8 bytes).
    Removing ft6336u.o(.ARM.exidx), (8 bytes).
    Removing ft6336u.o(.ARM.exidx), (8 bytes).
    Removing ft6336u.o(.ARM.exidx), (8 bytes).
    Removing ft6336u.o(.ARM.exidx), (8 bytes).
    Removing ft6336u.o(.ARM.exidx), (8 bytes).
    Removing ft6336u.o(.ARM.exidx), (8 bytes).
    Removing ft6336u.o(.ARM.exidx), (8 bytes).
    Removing ft6336u.o(.ARM.exidx), (8 bytes).
    Removing ft6336u.o(.ARM.exidx), (8 bytes).
    Removing ft6336u.o(.ARM.exidx), (8 bytes).
    Removing ft6336u.o(.ARM.exidx), (8 bytes).
    Removing ft6336u.o(.ARM.exidx), (8 bytes).
    Removing ft6336u.o(.ARM.exidx), (8 bytes).
    Removing ft6336u.o(.ARM.exidx), (8 bytes).
    Removing ft6336u.o(.ARM.exidx), (8 bytes).
    Removing ft6336u.o(.ARM.exidx), (8 bytes).
    Removing ft6336u.o(.ARM.exidx), (8 bytes).
    Removing ft6336u.o(.ARM.exidx), (8 bytes).
    Removing ft6336u.o(.ARM.exidx), (8 bytes).
    Removing ft6336u.o(.ARM.exidx), (8 bytes).
    Removing ft6336u.o(.ARM.exidx), (8 bytes).
    Removing ft6336u.o(.ARM.exidx), (8 bytes).
    Removing ft6336u.o(.ARM.exidx), (8 bytes).
    Removing ft6336u.o(.ARM.exidx), (8 bytes).
    Removing ft6336u.o(.ARM.exidx), (8 bytes).
    Removing ft6336u.o(.ARM.exidx), (8 bytes).
    Removing ft6336u.o(.ARM.exidx), (8 bytes).
    Removing ft6336u.o(.ARM.exidx), (8 bytes).
    Removing ft6336u.o(.ARM.exidx), (8 bytes).
    Removing ft6336u.o(.ARM.exidx), (8 bytes).
    Removing ft6336u.o(.ARM.exidx), (8 bytes).
    Removing ft6336u.o(.ARM.exidx), (8 bytes).
    Removing ft6336u.o(.ARM.exidx), (8 bytes).
    Removing ft6336u.o(.ARM.exidx), (8 bytes).
    Removing ft6336u.o(.ARM.exidx), (8 bytes).
    Removing ft6336u.o(.ARM.exidx), (8 bytes).
    Removing ft6336u.o(.ARM.exidx), (8 bytes).
    Removing ft6336u.o(.ARM.exidx), (8 bytes).
    Removing ft6336u.o(.ARM.exidx), (8 bytes).
    Removing ft6336u.o(.ARM.exidx), (8 bytes).
    Removing ft6336u.o(.ARM.exidx), (8 bytes).
    Removing ft6336u.o(.ARM.exidx), (8 bytes).
    Removing ft6336u.o(.ARM.exidx), (8 bytes).
    Removing ft6336u.o(.ARM.exidx), (8 bytes).
    Removing ft6336u.o(.ARM.exidx), (8 bytes).
    Removing lis2ds12_acc.o(.rev16_text), (4 bytes).
    Removing lis2ds12_acc.o(.revsh_text), (4 bytes).
    Removing lis2ds12_acc.o(.rrx_text), (6 bytes).
    Removing lis2ds12_acc.o(i._Z17LIS2DS12_ACC_R_STPvP17LIS2DS12_ACC_ST_t), (30 bytes).
    Removing lis2ds12_acc.o(i._Z17LIS2DS12_ACC_R_XHPvP17LIS2DS12_ACC_XH_t), (30 bytes).
    Removing lis2ds12_acc.o(i._Z17LIS2DS12_ACC_R_XLPvP17LIS2DS12_ACC_XL_t), (30 bytes).
    Removing lis2ds12_acc.o(i._Z17LIS2DS12_ACC_R_YHPvP17LIS2DS12_ACC_YH_t), (30 bytes).
    Removing lis2ds12_acc.o(i._Z17LIS2DS12_ACC_R_YLPvP17LIS2DS12_ACC_YL_t), (30 bytes).
    Removing lis2ds12_acc.o(i._Z17LIS2DS12_ACC_R_ZHPvP17LIS2DS12_ACC_ZH_t), (30 bytes).
    Removing lis2ds12_acc.o(i._Z17LIS2DS12_ACC_R_ZLPvP17LIS2DS12_ACC_ZL_t), (30 bytes).
    Removing lis2ds12_acc.o(i._Z17LIS2DS12_ACC_W_STPv17LIS2DS12_ACC_ST_t), (54 bytes).
    Removing lis2ds12_acc.o(i._Z18LIS2DS12_ACC_R_BDUPvP18LIS2DS12_ACC_BDU_t), (30 bytes).
    Removing lis2ds12_acc.o(i._Z18LIS2DS12_ACC_R_FTHPvP25LIS2DS12_ACC_FTH_STATUS_t), (26 bytes).
    Removing lis2ds12_acc.o(i._Z18LIS2DS12_ACC_R_LATPvPh), (32 bytes).
    Removing lis2ds12_acc.o(i._Z18LIS2DS12_ACC_R_LIRPvP18LIS2DS12_ACC_LIR_t), (30 bytes).
    Removing lis2ds12_acc.o(i._Z18LIS2DS12_ACC_R_ODRPvP18LIS2DS12_ACC_ODR_t), (30 bytes).
    Removing lis2ds12_acc.o(i._Z18LIS2DS12_ACC_R_SIMPvP18LIS2DS12_ACC_SIM_t), (30 bytes).
    Removing lis2ds12_acc.o(i._Z18LIS2DS12_ACC_W_BDUPv18LIS2DS12_ACC_BDU_t), (54 bytes).
    Removing lis2ds12_acc.o(i._Z18LIS2DS12_ACC_W_LATPvh), (58 bytes).
    Removing lis2ds12_acc.o(i._Z18LIS2DS12_ACC_W_SIMPv18LIS2DS12_ACC_SIM_t), (54 bytes).
    Removing lis2ds12_acc.o(i._Z19LIS2DS12_ACC_R_BOOTPvP19LIS2DS12_ACC_BOOT_t), (30 bytes).
    Removing lis2ds12_acc.o(i._Z19LIS2DS12_ACC_R_DRDYPvP19LIS2DS12_ACC_DRDY_t), (30 bytes).
    Removing lis2ds12_acc.o(i._Z19LIS2DS12_ACC_R_X_WUPvP19LIS2DS12_ACC_X_WU_t), (30 bytes).
    Removing lis2ds12_acc.o(i._Z19LIS2DS12_ACC_R_Y_WUPvP19LIS2DS12_ACC_Y_WU_t), (30 bytes).
    Removing lis2ds12_acc.o(i._Z19LIS2DS12_ACC_R_Z_WUPvP19LIS2DS12_ACC_Z_WU_t), (30 bytes).
    Removing lis2ds12_acc.o(i._Z19LIS2DS12_ACC_W_BOOTPv19LIS2DS12_ACC_BOOT_t), (54 bytes).
    Removing lis2ds12_acc.o(i._Z20LIS2DS12_ACC_R_4D_ENPvP20LIS2DS12_ACC_4D_EN_t), (30 bytes).
    Removing lis2ds12_acc.o(i._Z20LIS2DS12_ACC_R_6D_IAPvP20LIS2DS12_ACC_6D_IA_t), (30 bytes).
    Removing lis2ds12_acc.o(i._Z20LIS2DS12_ACC_R_FF_IAPvP20LIS2DS12_ACC_FF_IA_t), (30 bytes).
    Removing lis2ds12_acc.o(i._Z20LIS2DS12_ACC_R_FMODEPvP20LIS2DS12_ACC_FMODE_t), (30 bytes).
    Removing lis2ds12_acc.o(i._Z20LIS2DS12_ACC_R_PP_ODPvP20LIS2DS12_ACC_PP_OD_t), (30 bytes).
    Removing lis2ds12_acc.o(i._Z20LIS2DS12_ACC_R_QUIETPvPh), (32 bytes).
    Removing lis2ds12_acc.o(i._Z20LIS2DS12_ACC_R_SHOCKPvPh), (30 bytes).
    Removing lis2ds12_acc.o(i._Z20LIS2DS12_ACC_R_WU_IAPvP20LIS2DS12_ACC_WU_IA_t), (30 bytes).
    Removing lis2ds12_acc.o(i._Z20LIS2DS12_ACC_R_X_TAPPvP20LIS2DS12_ACC_X_TAP_t), (30 bytes).
    Removing lis2ds12_acc.o(i._Z20LIS2DS12_ACC_R_Y_TAPPvP20LIS2DS12_ACC_Y_TAP_t), (30 bytes).
    Removing lis2ds12_acc.o(i._Z20LIS2DS12_ACC_R_Z_TAPPvP20LIS2DS12_ACC_Z_TAP_t), (30 bytes).
    Removing lis2ds12_acc.o(i._Z20LIS2DS12_ACC_W_4D_ENPv20LIS2DS12_ACC_4D_EN_t), (54 bytes).
    Removing lis2ds12_acc.o(i._Z20LIS2DS12_ACC_W_FMODEPv20LIS2DS12_ACC_FMODE_t), (54 bytes).
    Removing lis2ds12_acc.o(i._Z20LIS2DS12_ACC_W_PP_ODPv20LIS2DS12_ACC_PP_OD_t), (54 bytes).
    Removing lis2ds12_acc.o(i._Z20LIS2DS12_ACC_W_QUIETPvh), (58 bytes).
    Removing lis2ds12_acc.o(i._Z20LIS2DS12_ACC_W_SHOCKPvh), (56 bytes).
    Removing lis2ds12_acc.o(i._Z21LIS2DS12_ACC_R_6D_THSPvP21LIS2DS12_ACC_6D_THS_t), (30 bytes).
    Removing lis2ds12_acc.o(i._Z21LIS2DS12_ACC_R_FS_SRCPvP21LIS2DS12_ACC_FS_SRC_t), (30 bytes).
    Removing lis2ds12_acc.o(i._Z21LIS2DS12_ACC_R_HF_ODRPvP21LIS2DS12_ACC_HF_ODR_t), (30 bytes).
    Removing lis2ds12_acc.o(i._Z21LIS2DS12_ACC_R_PEDO4GPvP21LIS2DS12_ACC_PEDO4G_t), (30 bytes).
    Removing lis2ds12_acc.o(i._Z21LIS2DS12_ACC_R_TAP_IAPvP21LIS2DS12_ACC_TAP_IA_t), (30 bytes).
    Removing lis2ds12_acc.o(i._Z21LIS2DS12_ACC_R_TUD_ENPvP21LIS2DS12_ACC_TUD_EN_t), (30 bytes).
    Removing lis2ds12_acc.o(i._Z21LIS2DS12_ACC_R_WU_THSPvPh), (30 bytes).
    Removing lis2ds12_acc.o(i._Z21LIS2DS12_ACC_W_6D_THSPv21LIS2DS12_ACC_6D_THS_t), (54 bytes).
    Removing lis2ds12_acc.o(i._Z21LIS2DS12_ACC_W_HF_ODRPv21LIS2DS12_ACC_HF_ODR_t), (54 bytes).
    Removing lis2ds12_acc.o(i._Z21LIS2DS12_ACC_W_TUD_ENPv21LIS2DS12_ACC_TUD_EN_t), (54 bytes).
    Removing lis2ds12_acc.o(i._Z21LIS2DS12_ACC_W_WU_THSPvh), (56 bytes).
    Removing lis2ds12_acc.o(i._Z22LIS2DS12_ACC_R_INT1_6DPvP22LIS2DS12_ACC_INT1_6D_t), (30 bytes).
    Removing lis2ds12_acc.o(i._Z22LIS2DS12_ACC_R_INT1_FFPvP22LIS2DS12_ACC_INT1_FF_t), (30 bytes).
    Removing lis2ds12_acc.o(i._Z22LIS2DS12_ACC_R_INT1_WUPvP22LIS2DS12_ACC_INT1_WU_t), (30 bytes).
    Removing lis2ds12_acc.o(i._Z22LIS2DS12_ACC_R_OVR_DUPPvP22LIS2DS12_ACC_OVR_DUP_t), (30 bytes).
    Removing lis2ds12_acc.o(i._Z22LIS2DS12_ACC_R_SC_MTHSPvPh), (30 bytes).
    Removing lis2ds12_acc.o(i._Z22LIS2DS12_ACC_R_TAP_THSPvPh), (30 bytes).
    Removing lis2ds12_acc.o(i._Z22LIS2DS12_ACC_R_TILT_ONPvP22LIS2DS12_ACC_TILT_ON_t), (30 bytes).
    Removing lis2ds12_acc.o(i._Z22LIS2DS12_ACC_W_INT1_6DPv22LIS2DS12_ACC_INT1_6D_t), (54 bytes).
    Removing lis2ds12_acc.o(i._Z22LIS2DS12_ACC_W_INT1_FFPv22LIS2DS12_ACC_INT1_FF_t), (54 bytes).
    Removing lis2ds12_acc.o(i._Z22LIS2DS12_ACC_W_INT1_WUPv22LIS2DS12_ACC_INT1_WU_t), (54 bytes).
    Removing lis2ds12_acc.o(i._Z22LIS2DS12_ACC_W_TAP_THSPvh), (56 bytes).
    Removing lis2ds12_acc.o(i._Z22LIS2DS12_ACC_W_TILT_ONPv22LIS2DS12_ACC_TILT_ON_t), (54 bytes).
    Removing lis2ds12_acc.o(i._Z23LIS2DS12_ACC_R_DRDY_DUPPvP23LIS2DS12_ACC_DRDY_DUP_t), (30 bytes).
    Removing lis2ds12_acc.o(i._Z23LIS2DS12_ACC_R_FIFO_OVRPvP23LIS2DS12_ACC_FIFO_OVR_t), (30 bytes).
    Removing lis2ds12_acc.o(i._Z23LIS2DS12_ACC_R_FIFO_THSPvP23LIS2DS12_ACC_FIFO_THS_t), (30 bytes).
    Removing lis2ds12_acc.o(i._Z23LIS2DS12_ACC_R_FUNC_CFGPvP23LIS2DS12_ACC_FUNC_CFG_t), (30 bytes).
    Removing lis2ds12_acc.o(i._Z23LIS2DS12_ACC_R_INT1_FTHPvP23LIS2DS12_ACC_INT1_FTH_t), (30 bytes).
    Removing lis2ds12_acc.o(i._Z23LIS2DS12_ACC_R_INT2_FTHPvP23LIS2DS12_ACC_INT2_FTH_t), (30 bytes).
    Removing lis2ds12_acc.o(i._Z23LIS2DS12_ACC_R_RST_PEDOPvP23LIS2DS12_ACC_RST_PEDO_t), (30 bytes).
    Removing lis2ds12_acc.o(i._Z23LIS2DS12_ACC_R_RST_TILTPvP23LIS2DS12_ACC_RST_TILT_t), (30 bytes).
    Removing lis2ds12_acc.o(i._Z23LIS2DS12_ACC_R_SLEEP_ONPvP23LIS2DS12_ACC_SLEEP_ON_t), (30 bytes).
    Removing lis2ds12_acc.o(i._Z23LIS2DS12_ACC_R_TAP_SIGNPvP23LIS2DS12_ACC_TAP_SIGN_t), (30 bytes).
    Removing lis2ds12_acc.o(i._Z23LIS2DS12_ACC_R_TAP_X_ENPvP23LIS2DS12_ACC_TAP_X_EN_t), (30 bytes).
    Removing lis2ds12_acc.o(i._Z23LIS2DS12_ACC_R_TAP_Y_ENPvP23LIS2DS12_ACC_TAP_Y_EN_t), (30 bytes).
    Removing lis2ds12_acc.o(i._Z23LIS2DS12_ACC_R_TAP_Z_ENPvP23LIS2DS12_ACC_TAP_Z_EN_t), (30 bytes).
    Removing lis2ds12_acc.o(i._Z23LIS2DS12_ACC_R_TILT_INTPvP23LIS2DS12_ACC_TILT_INT_t), (30 bytes).
    Removing lis2ds12_acc.o(i._Z23LIS2DS12_ACC_W_INT1_FTHPv23LIS2DS12_ACC_INT1_FTH_t), (54 bytes).
    Removing lis2ds12_acc.o(i._Z23LIS2DS12_ACC_W_INT2_FTHPv23LIS2DS12_ACC_INT2_FTH_t), (54 bytes).
    Removing lis2ds12_acc.o(i._Z23LIS2DS12_ACC_W_SLEEP_ONPv23LIS2DS12_ACC_SLEEP_ON_t), (54 bytes).
    Removing lis2ds12_acc.o(i._Z23LIS2DS12_ACC_W_TAP_X_ENPv23LIS2DS12_ACC_TAP_X_EN_t), (54 bytes).
    Removing lis2ds12_acc.o(i._Z23LIS2DS12_ACC_W_TAP_Y_ENPv23LIS2DS12_ACC_TAP_Y_EN_t), (54 bytes).
    Removing lis2ds12_acc.o(i._Z23LIS2DS12_ACC_W_TAP_Z_ENPv23LIS2DS12_ACC_TAP_Z_EN_t), (54 bytes).
    Removing lis2ds12_acc.o(i._Z24LIS2DS12_ACC_R_6D_IA_DUPPvP24LIS2DS12_ACC_6D_IA_DUP_t), (30 bytes).
    Removing lis2ds12_acc.o(i._Z24LIS2DS12_ACC_R_FDS_SLOPEPvP24LIS2DS12_ACC_FDS_SLOPE_t), (30 bytes).
    Removing lis2ds12_acc.o(i._Z24LIS2DS12_ACC_R_FF_IA_DUPPvP24LIS2DS12_ACC_FF_IA_DUP_t), (30 bytes).
    Removing lis2ds12_acc.o(i._Z24LIS2DS12_ACC_R_FifoThsldPvPh), (26 bytes).
    Removing lis2ds12_acc.o(i._Z24LIS2DS12_ACC_R_FullScalePvP17LIS2DS12_ACC_FS_t), (30 bytes).
    Removing lis2ds12_acc.o(i._Z24LIS2DS12_ACC_R_H_LACTIVEPvP24LIS2DS12_ACC_H_LACTIVE_t), (30 bytes).
    Removing lis2ds12_acc.o(i._Z24LIS2DS12_ACC_R_INT1_DRDYPvP24LIS2DS12_ACC_INT1_DRDY_t), (30 bytes).
    Removing lis2ds12_acc.o(i._Z24LIS2DS12_ACC_R_INT2_BOOTPvP24LIS2DS12_ACC_INT2_BOOT_t), (30 bytes).
    Removing lis2ds12_acc.o(i._Z24LIS2DS12_ACC_R_INT2_DRDYPvP24LIS2DS12_ACC_INT2_DRDY_t), (30 bytes).
    Removing lis2ds12_acc.o(i._Z24LIS2DS12_ACC_R_INT2_TILTPvP24LIS2DS12_ACC_INT2_TILT_t), (30 bytes).
    Removing lis2ds12_acc.o(i._Z24LIS2DS12_ACC_R_MASTER_ONPvP24LIS2DS12_ACC_MASTER_ON_t), (30 bytes).
    Removing lis2ds12_acc.o(i._Z24LIS2DS12_ACC_R_MODULE_ONPvP24LIS2DS12_ACC_MODULE_ON_t), (30 bytes).
    Removing lis2ds12_acc.o(i._Z24LIS2DS12_ACC_R_RST_NSTEPPvP24LIS2DS12_ACC_RST_NSTEP_t), (30 bytes).
    Removing lis2ds12_acc.o(i._Z24LIS2DS12_ACC_R_WU_IA_DUPPvP24LIS2DS12_ACC_WU_IA_DUP_t), (30 bytes).
    Removing lis2ds12_acc.o(i._Z24LIS2DS12_ACC_W_FDS_SLOPEPv24LIS2DS12_ACC_FDS_SLOPE_t), (54 bytes).
    Removing lis2ds12_acc.o(i._Z24LIS2DS12_ACC_W_FifoThsldPvh), (44 bytes).
    Removing lis2ds12_acc.o(i._Z24LIS2DS12_ACC_W_H_LACTIVEPv24LIS2DS12_ACC_H_LACTIVE_t), (54 bytes).
    Removing lis2ds12_acc.o(i._Z24LIS2DS12_ACC_W_INT1_DRDYPv24LIS2DS12_ACC_INT1_DRDY_t), (54 bytes).
    Removing lis2ds12_acc.o(i._Z24LIS2DS12_ACC_W_INT2_BOOTPv24LIS2DS12_ACC_INT2_BOOT_t), (54 bytes).
    Removing lis2ds12_acc.o(i._Z24LIS2DS12_ACC_W_INT2_DRDYPv24LIS2DS12_ACC_INT2_DRDY_t), (54 bytes).
    Removing lis2ds12_acc.o(i._Z24LIS2DS12_ACC_W_INT2_TILTPv24LIS2DS12_ACC_INT2_TILT_t), (54 bytes).
    Removing lis2ds12_acc.o(i._Z24LIS2DS12_ACC_W_MASTER_ONPv24LIS2DS12_ACC_MASTER_ON_t), (54 bytes).
    Removing lis2ds12_acc.o(i._Z24LIS2DS12_ACC_W_MODULE_ONPv24LIS2DS12_ACC_MODULE_ON_t), (54 bytes).
    Removing lis2ds12_acc.o(i._Z25LIS2DS12_ACC_R_6D_IA_DUP2PvP25LIS2DS12_ACC_6D_IA_DUP2_t), (30 bytes).
    Removing lis2ds12_acc.o(i._Z25LIS2DS12_ACC_R_DOUBLE_TAPPvP25LIS2DS12_ACC_DOUBLE_TAP_t), (30 bytes).
    Removing lis2ds12_acc.o(i._Z25LIS2DS12_ACC_R_FF_IA_DUP2PvP25LIS2DS12_ACC_FF_IA_DUP2_t), (30 bytes).
    Removing lis2ds12_acc.o(i._Z25LIS2DS12_ACC_R_IF_ADD_INCPvP25LIS2DS12_ACC_IF_ADD_INC_t), (30 bytes).
    Removing lis2ds12_acc.o(i._Z25LIS2DS12_ACC_R_INT1_D_TAPPvP25LIS2DS12_ACC_INT1_D_TAP_t), (30 bytes).
    Removing lis2ds12_acc.o(i._Z25LIS2DS12_ACC_R_INT1_S_TAPPvP25LIS2DS12_ACC_INT1_S_TAP_t), (30 bytes).
    Removing lis2ds12_acc.o(i._Z25LIS2DS12_ACC_R_SINGLE_TAPPvP25LIS2DS12_ACC_SINGLE_TAP_t), (30 bytes).
    Removing lis2ds12_acc.o(i._Z25LIS2DS12_ACC_R_SamplesNumPvPt), (74 bytes).
    Removing lis2ds12_acc.o(i._Z25LIS2DS12_ACC_R_WU_IA_DUP2PvP25LIS2DS12_ACC_WU_IA_DUP2_t), (30 bytes).
    Removing lis2ds12_acc.o(i._Z25LIS2DS12_ACC_W_IF_ADD_INCPv25LIS2DS12_ACC_IF_ADD_INC_t), (54 bytes).
    Removing lis2ds12_acc.o(i._Z25LIS2DS12_ACC_W_INT1_D_TAPPv25LIS2DS12_ACC_INT1_D_TAP_t), (54 bytes).
    Removing lis2ds12_acc.o(i._Z25LIS2DS12_ACC_W_INT1_S_TAPPv25LIS2DS12_ACC_INT1_S_TAP_t), (54 bytes).
    Removing lis2ds12_acc.o(i._Z26LIS2DS12_ACC_R_DRDY_PULSEDPvP26LIS2DS12_ACC_DRDY_PULSED_t), (30 bytes).
    Removing lis2ds12_acc.o(i._Z26LIS2DS12_ACC_R_I2C_DISABLEPvP26LIS2DS12_ACC_I2C_DISABLE_t), (30 bytes).
    Removing lis2ds12_acc.o(i._Z26LIS2DS12_ACC_R_MODULE8_BITPvPh), (26 bytes).
    Removing lis2ds12_acc.o(i._Z26LIS2DS12_ACC_R_PullUP_DiscPvP27LIS2DS12_ACC_IF_CS_PU_DIS_t), (30 bytes).
    Removing lis2ds12_acc.o(i._Z26LIS2DS12_ACC_R_SIGN_MOT_ONPvP26LIS2DS12_ACC_SIGN_MOT_ON_t), (30 bytes).
    Removing lis2ds12_acc.o(i._Z26LIS2DS12_ACC_R_SLEEP_STATEPvP26LIS2DS12_ACC_SLEEP_STATE_t), (30 bytes).
    Removing lis2ds12_acc.o(i._Z26LIS2DS12_ACC_R_STEP_CNT_ONPvP26LIS2DS12_ACC_STEP_CNT_ON_t), (30 bytes).
    Removing lis2ds12_acc.o(i._Z26LIS2DS12_ACC_R_TemperaturePvPh), (26 bytes).
    Removing lis2ds12_acc.o(i._Z26LIS2DS12_ACC_W_DRDY_PULSEDPv26LIS2DS12_ACC_DRDY_PULSED_t), (54 bytes).
    Removing lis2ds12_acc.o(i._Z26LIS2DS12_ACC_W_I2C_DISABLEPv26LIS2DS12_ACC_I2C_DISABLE_t), (54 bytes).
    Removing lis2ds12_acc.o(i._Z26LIS2DS12_ACC_W_PullUP_DiscPv27LIS2DS12_ACC_IF_CS_PU_DIS_t), (54 bytes).
    Removing lis2ds12_acc.o(i._Z26LIS2DS12_ACC_W_SIGN_MOT_ONPv26LIS2DS12_ACC_SIGN_MOT_ON_t), (54 bytes).
    Removing lis2ds12_acc.o(i._Z27LIS2DS12_ACC_R_CK_GATE_FUNCPvP27LIS2DS12_ACC_CK_GATE_FUNC_t), (30 bytes).
    Removing lis2ds12_acc.o(i._Z27LIS2DS12_ACC_R_INT2_ON_INT1PvP27LIS2DS12_ACC_INT2_ON_INT1_t), (30 bytes).
    Removing lis2ds12_acc.o(i._Z27LIS2DS12_ACC_R_INT2_SIG_MOTPvP27LIS2DS12_ACC_INT2_SIG_MOT_t), (30 bytes).
    Removing lis2ds12_acc.o(i._Z27LIS2DS12_ACC_R_MODULE_READYPvP27LIS2DS12_ACC_MODULE_READY_t), (30 bytes).
    Removing lis2ds12_acc.o(i._Z27LIS2DS12_ACC_R_RST_SIGN_MOTPvP27LIS2DS12_ACC_RST_SIGN_MOT_t), (30 bytes).
    Removing lis2ds12_acc.o(i._Z27LIS2DS12_ACC_R_WHO_AM_I_BITPvPh), (26 bytes).
    Removing lis2ds12_acc.o(i._Z27LIS2DS12_ACC_W_INT2_ON_INT1Pv27LIS2DS12_ACC_INT2_ON_INT1_t), (54 bytes).
    Removing lis2ds12_acc.o(i._Z27LIS2DS12_ACC_W_INT2_SIG_MOTPv27LIS2DS12_ACC_INT2_SIG_MOT_t), (54 bytes).
    Removing lis2ds12_acc.o(i._Z28LIS2DS12_ACC_R_INT2_STEP_DETPvP28LIS2DS12_ACC_INT2_STEP_DET_t), (30 bytes).
    Removing lis2ds12_acc.o(i._Z28LIS2DS12_ACC_R_SleepDurationPvPh), (30 bytes).
    Removing lis2ds12_acc.o(i._Z28LIS2DS12_ACC_W_SleepDurationPvh), (56 bytes).
    Removing lis2ds12_acc.o(i._Z29LIS2DS12_ACC_Get_AccelerationPvPs), (224 bytes).
    Removing lis2ds12_acc.o(i._Z29LIS2DS12_ACC_R_DOUBLE_TAP_DUPPvP29LIS2DS12_ACC_DOUBLE_TAP_DUP_t), (30 bytes).
    Removing lis2ds12_acc.o(i._Z29LIS2DS12_ACC_R_INT1_FIFO_FULLPvP29LIS2DS12_ACC_INT1_FIFO_FULL_t), (30 bytes).
    Removing lis2ds12_acc.o(i._Z29LIS2DS12_ACC_R_MODULE_TO_FIFOPvP29LIS2DS12_ACC_MODULE_TO_FIFO_t), (30 bytes).
    Removing lis2ds12_acc.o(i._Z29LIS2DS12_ACC_R_SIG_MOT_DETECTPvP29LIS2DS12_ACC_SIG_MOT_DETECT_t), (30 bytes).
    Removing lis2ds12_acc.o(i._Z29LIS2DS12_ACC_R_SINGLE_TAP_DUPPvP29LIS2DS12_ACC_SINGLE_TAP_DUP_t), (30 bytes).
    Removing lis2ds12_acc.o(i._Z29LIS2DS12_ACC_R_SLEEP_STATE_IAPvP29LIS2DS12_ACC_SLEEP_STATE_IA_t), (30 bytes).
    Removing lis2ds12_acc.o(i._Z29LIS2DS12_ACC_R_WakeUpDurationPvPh), (32 bytes).
    Removing lis2ds12_acc.o(i._Z29LIS2DS12_ACC_W_INT1_FIFO_FULLPv29LIS2DS12_ACC_INT1_FIFO_FULL_t), (54 bytes).
    Removing lis2ds12_acc.o(i._Z29LIS2DS12_ACC_W_MODULE_TO_FIFOPv29LIS2DS12_ACC_MODULE_TO_FIFO_t), (54 bytes).
    Removing lis2ds12_acc.o(i._Z29LIS2DS12_ACC_W_WakeUpDurationPvh), (58 bytes).
    Removing lis2ds12_acc.o(i._Z30LIS2DS12_ACC_R_DOUBLE_TAP_DUP2PvP30LIS2DS12_ACC_DOUBLE_TAP_DUP2_t), (30 bytes).
    Removing lis2ds12_acc.o(i._Z30LIS2DS12_ACC_R_SENS_HUB_END_OPPvP30LIS2DS12_ACC_SENS_HUB_END_OP_t), (30 bytes).
    Removing lis2ds12_acc.o(i._Z30LIS2DS12_ACC_R_SINGLE_TAP_DUP2PvP30LIS2DS12_ACC_SINGLE_TAP_DUP2_t), (30 bytes).
    Removing lis2ds12_acc.o(i._Z30LIS2DS12_ACC_R_SLEEP_STATE_DUPPvP30LIS2DS12_ACC_SLEEP_STATE_DUP_t), (30 bytes).
    Removing lis2ds12_acc.o(i._Z31LIS2DS12_ACC_Get_ExternalSensorPvPh), (62 bytes).
    Removing lis2ds12_acc.o(i._Z31LIS2DS12_ACC_R_FreeFallDurationPvPh), (76 bytes).
    Removing lis2ds12_acc.o(i._Z31LIS2DS12_ACC_R_INT1_MASTER_DRDYPvP31LIS2DS12_ACC_INT1_MASTER_DRDY_t), (30 bytes).
    Removing lis2ds12_acc.o(i._Z31LIS2DS12_ACC_W_FreeFallDurationPvh), (116 bytes).
    Removing lis2ds12_acc.o(i._Z31LIS2DS12_ACC_W_INT1_MASTER_DRDYPv31LIS2DS12_ACC_INT1_MASTER_DRDY_t), (54 bytes).
    Removing lis2ds12_acc.o(i._Z32LIS2DS12_ACC_R_FreeFallThresholdPvPh), (30 bytes).
    Removing lis2ds12_acc.o(i._Z32LIS2DS12_ACC_R_SINGLE_DOUBLE_TAPPvP32LIS2DS12_ACC_SINGLE_DOUBLE_TAP_t), (30 bytes).
    Removing lis2ds12_acc.o(i._Z32LIS2DS12_ACC_W_FreeFallThresholdPvh), (56 bytes).
    Removing lis2ds12_acc.o(i._Z32LIS2DS12_ACC_W_SINGLE_DOUBLE_TAPPv32LIS2DS12_ACC_SINGLE_DOUBLE_TAP_t), (54 bytes).
    Removing lis2ds12_acc.o(i._Z33LIS2DS12_ACC_Get_Raw_AccelerationPvPh), (20 bytes).
    Removing lis2ds12_acc.o(.ARM.exidx), (8 bytes).
    Removing lis2ds12_acc.o(.ARM.exidx), (8 bytes).
    Removing lis2ds12_acc.o(.ARM.exidx), (8 bytes).
    Removing lis2ds12_acc.o(.ARM.exidx), (8 bytes).
    Removing lis2ds12_acc.o(.ARM.exidx), (8 bytes).
    Removing lis2ds12_acc.o(.ARM.exidx), (8 bytes).
    Removing lis2ds12_acc.o(.ARM.exidx), (8 bytes).
    Removing lis2ds12_acc.o(.ARM.exidx), (8 bytes).
    Removing lis2ds12_acc.o(.ARM.exidx), (8 bytes).
    Removing lis2ds12_acc.o(.ARM.exidx), (8 bytes).
    Removing lis2ds12_acc.o(.ARM.exidx), (8 bytes).
    Removing lis2ds12_acc.o(.ARM.exidx), (8 bytes).
    Removing lis2ds12_acc.o(.ARM.exidx), (8 bytes).
    Removing lis2ds12_acc.o(.ARM.exidx), (8 bytes).
    Removing lis2ds12_acc.o(.ARM.exidx), (8 bytes).
    Removing lis2ds12_acc.o(.ARM.exidx), (8 bytes).
    Removing lis2ds12_acc.o(.ARM.exidx), (8 bytes).
    Removing lis2ds12_acc.o(.ARM.exidx), (8 bytes).
    Removing lis2ds12_acc.o(.ARM.exidx), (8 bytes).
    Removing lis2ds12_acc.o(.ARM.exidx), (8 bytes).
    Removing lis2ds12_acc.o(.ARM.exidx), (8 bytes).
    Removing lis2ds12_acc.o(.ARM.exidx), (8 bytes).
    Removing lis2ds12_acc.o(.ARM.exidx), (8 bytes).
    Removing lis2ds12_acc.o(.ARM.exidx), (8 bytes).
    Removing lis2ds12_acc.o(.ARM.exidx), (8 bytes).
    Removing lis2ds12_acc.o(.ARM.exidx), (8 bytes).
    Removing lis2ds12_acc.o(.ARM.exidx), (8 bytes).
    Removing lis2ds12_acc.o(.ARM.exidx), (8 bytes).
    Removing lis2ds12_acc.o(.ARM.exidx), (8 bytes).
    Removing lis2ds12_acc.o(.ARM.exidx), (8 bytes).
    Removing lis2ds12_acc.o(.ARM.exidx), (8 bytes).
    Removing lis2ds12_acc.o(.ARM.exidx), (8 bytes).
    Removing lis2ds12_acc.o(.ARM.exidx), (8 bytes).
    Removing lis2ds12_acc.o(.ARM.exidx), (8 bytes).
    Removing lis2ds12_acc.o(.ARM.exidx), (8 bytes).
    Removing lis2ds12_acc.o(.ARM.exidx), (8 bytes).
    Removing lis2ds12_acc.o(.ARM.exidx), (8 bytes).
    Removing lis2ds12_acc.o(.ARM.exidx), (8 bytes).
    Removing lis2ds12_acc.o(.ARM.exidx), (8 bytes).
    Removing lis2ds12_acc.o(.ARM.exidx), (8 bytes).
    Removing lis2ds12_acc.o(.ARM.exidx), (8 bytes).
    Removing lis2ds12_acc.o(.ARM.exidx), (8 bytes).
    Removing lis2ds12_acc.o(.ARM.exidx), (8 bytes).
    Removing lis2ds12_acc.o(.ARM.exidx), (8 bytes).
    Removing lis2ds12_acc.o(.ARM.exidx), (8 bytes).
    Removing lis2ds12_acc.o(.ARM.exidx), (8 bytes).
    Removing lis2ds12_acc.o(.ARM.exidx), (8 bytes).
    Removing lis2ds12_acc.o(.ARM.exidx), (8 bytes).
    Removing lis2ds12_acc.o(.ARM.exidx), (8 bytes).
    Removing lis2ds12_acc.o(.ARM.exidx), (8 bytes).
    Removing lis2ds12_acc.o(.ARM.exidx), (8 bytes).
    Removing lis2ds12_acc.o(.ARM.exidx), (8 bytes).
    Removing lis2ds12_acc.o(.ARM.exidx), (8 bytes).
    Removing lis2ds12_acc.o(.ARM.exidx), (8 bytes).
    Removing lis2ds12_acc.o(.ARM.exidx), (8 bytes).
    Removing lis2ds12_acc.o(.ARM.exidx), (8 bytes).
    Removing lis2ds12_acc.o(.ARM.exidx), (8 bytes).
    Removing lis2ds12_acc.o(.ARM.exidx), (8 bytes).
    Removing lis2ds12_acc.o(.ARM.exidx), (8 bytes).
    Removing lis2ds12_acc.o(.ARM.exidx), (8 bytes).
    Removing lis2ds12_acc.o(.ARM.exidx), (8 bytes).
    Removing lis2ds12_acc.o(.ARM.exidx), (8 bytes).
    Removing lis2ds12_acc.o(.ARM.exidx), (8 bytes).
    Removing lis2ds12_acc.o(.ARM.exidx), (8 bytes).
    Removing lis2ds12_acc.o(.ARM.exidx), (8 bytes).
    Removing lis2ds12_acc.o(.ARM.exidx), (8 bytes).
    Removing lis2ds12_acc.o(.ARM.exidx), (8 bytes).
    Removing lis2ds12_acc.o(.ARM.exidx), (8 bytes).
    Removing lis2ds12_acc.o(.ARM.exidx), (8 bytes).
    Removing lis2ds12_acc.o(.ARM.exidx), (8 bytes).
    Removing lis2ds12_acc.o(.ARM.exidx), (8 bytes).
    Removing lis2ds12_acc.o(.ARM.exidx), (8 bytes).
    Removing lis2ds12_acc.o(.ARM.exidx), (8 bytes).
    Removing lis2ds12_acc.o(.ARM.exidx), (8 bytes).
    Removing lis2ds12_acc.o(.ARM.exidx), (8 bytes).
    Removing lis2ds12_acc.o(.ARM.exidx), (8 bytes).
    Removing lis2ds12_acc.o(.ARM.exidx), (8 bytes).
    Removing lis2ds12_acc.o(.ARM.exidx), (8 bytes).
    Removing lis2ds12_acc.o(.ARM.exidx), (8 bytes).
    Removing lis2ds12_acc.o(.ARM.exidx), (8 bytes).
    Removing lis2ds12_acc.o(.ARM.exidx), (8 bytes).
    Removing lis2ds12_acc.o(.ARM.exidx), (8 bytes).
    Removing lis2ds12_acc.o(.ARM.exidx), (8 bytes).
    Removing lis2ds12_acc.o(.ARM.exidx), (8 bytes).
    Removing lis2ds12_acc.o(.ARM.exidx), (8 bytes).
    Removing lis2ds12_acc.o(.ARM.exidx), (8 bytes).
    Removing lis2ds12_acc.o(.ARM.exidx), (8 bytes).
    Removing lis2ds12_acc.o(.ARM.exidx), (8 bytes).
    Removing lis2ds12_acc.o(.ARM.exidx), (8 bytes).
    Removing lis2ds12_acc.o(.ARM.exidx), (8 bytes).
    Removing lis2ds12_acc.o(.ARM.exidx), (8 bytes).
    Removing lis2ds12_acc.o(.ARM.exidx), (8 bytes).
    Removing lis2ds12_acc.o(.ARM.exidx), (8 bytes).
    Removing lis2ds12_acc.o(.ARM.exidx), (8 bytes).
    Removing lis2ds12_acc.o(.ARM.exidx), (8 bytes).
    Removing lis2ds12_acc.o(.ARM.exidx), (8 bytes).
    Removing lis2ds12_acc.o(.ARM.exidx), (8 bytes).
    Removing lis2ds12_acc.o(.ARM.exidx), (8 bytes).
    Removing lis2ds12_acc.o(.ARM.exidx), (8 bytes).
    Removing lis2ds12_acc.o(.ARM.exidx), (8 bytes).
    Removing lis2ds12_acc.o(.ARM.exidx), (8 bytes).
    Removing lis2ds12_acc.o(.ARM.exidx), (8 bytes).
    Removing lis2ds12_acc.o(.ARM.exidx), (8 bytes).
    Removing lis2ds12_acc.o(.ARM.exidx), (8 bytes).
    Removing lis2ds12_acc.o(.ARM.exidx), (8 bytes).
    Removing lis2ds12_acc.o(.ARM.exidx), (8 bytes).
    Removing lis2ds12_acc.o(.ARM.exidx), (8 bytes).
    Removing lis2ds12_acc.o(.ARM.exidx), (8 bytes).
    Removing lis2ds12_acc.o(.ARM.exidx), (8 bytes).
    Removing lis2ds12_acc.o(.ARM.exidx), (8 bytes).
    Removing lis2ds12_acc.o(.ARM.exidx), (8 bytes).
    Removing lis2ds12_acc.o(.ARM.exidx), (8 bytes).
    Removing lis2ds12_acc.o(.ARM.exidx), (8 bytes).
    Removing lis2ds12_acc.o(.ARM.exidx), (8 bytes).
    Removing lis2ds12_acc.o(.ARM.exidx), (8 bytes).
    Removing lis2ds12_acc.o(.ARM.exidx), (8 bytes).
    Removing lis2ds12_acc.o(.ARM.exidx), (8 bytes).
    Removing lis2ds12_acc.o(.ARM.exidx), (8 bytes).
    Removing lis2ds12_acc.o(.ARM.exidx), (8 bytes).
    Removing lis2ds12_acc.o(.ARM.exidx), (8 bytes).
    Removing lis2ds12_acc.o(.ARM.exidx), (8 bytes).
    Removing lis2ds12_acc.o(.ARM.exidx), (8 bytes).
    Removing lis2ds12_acc.o(.ARM.exidx), (8 bytes).
    Removing lis2ds12_acc.o(.ARM.exidx), (8 bytes).
    Removing lis2ds12_acc.o(.ARM.exidx), (8 bytes).
    Removing lis2ds12_acc.o(.ARM.exidx), (8 bytes).
    Removing lis2ds12_acc.o(.ARM.exidx), (8 bytes).
    Removing lis2ds12_acc.o(.ARM.exidx), (8 bytes).
    Removing lis2ds12_acc.o(.ARM.exidx), (8 bytes).
    Removing lis2ds12_acc.o(.ARM.exidx), (8 bytes).
    Removing lis2ds12_acc.o(.ARM.exidx), (8 bytes).
    Removing lis2ds12_acc.o(.ARM.exidx), (8 bytes).
    Removing lis2ds12_acc.o(.ARM.exidx), (8 bytes).
    Removing lis2ds12_acc.o(.ARM.exidx), (8 bytes).
    Removing lis2ds12_acc.o(.ARM.exidx), (8 bytes).
    Removing lis2ds12_acc.o(.ARM.exidx), (8 bytes).
    Removing lis2ds12_acc.o(.ARM.exidx), (8 bytes).
    Removing lis2ds12_acc.o(.ARM.exidx), (8 bytes).
    Removing lis2ds12_acc.o(.ARM.exidx), (8 bytes).
    Removing lis2ds12_acc.o(.ARM.exidx), (8 bytes).
    Removing lis2ds12_acc.o(.ARM.exidx), (8 bytes).
    Removing lis2ds12_acc.o(.ARM.exidx), (8 bytes).
    Removing lis2ds12_acc.o(.ARM.exidx), (8 bytes).
    Removing lis2ds12_acc.o(.ARM.exidx), (8 bytes).
    Removing lis2ds12_acc.o(.ARM.exidx), (8 bytes).
    Removing lis2ds12_acc.o(.ARM.exidx), (8 bytes).
    Removing lis2ds12_acc.o(.ARM.exidx), (8 bytes).
    Removing lis2ds12_acc.o(.ARM.exidx), (8 bytes).
    Removing lis2ds12_acc.o(.ARM.exidx), (8 bytes).
    Removing lis2ds12_acc.o(.ARM.exidx), (8 bytes).
    Removing lis2ds12_acc.o(.ARM.exidx), (8 bytes).
    Removing lis2ds12_acc.o(.ARM.exidx), (8 bytes).
    Removing lis2ds12_acc.o(.ARM.exidx), (8 bytes).
    Removing lis2ds12_acc.o(.ARM.exidx), (8 bytes).
    Removing lis2ds12_acc.o(.ARM.exidx), (8 bytes).
    Removing lis2ds12_acc.o(.ARM.exidx), (8 bytes).
    Removing lis2ds12_acc.o(.ARM.exidx), (8 bytes).
    Removing lis2ds12_acc.o(.ARM.exidx), (8 bytes).
    Removing lis2ds12_acc.o(.ARM.exidx), (8 bytes).
    Removing lis2ds12_acc.o(.ARM.exidx), (8 bytes).
    Removing lis2ds12_acc.o(.ARM.exidx), (8 bytes).
    Removing lis2ds12_acc.o(.ARM.exidx), (8 bytes).
    Removing lis2ds12_acc.o(.ARM.exidx), (8 bytes).
    Removing lis2ds12_acc.o(.ARM.exidx), (8 bytes).
    Removing lis2ds12_acc.o(.ARM.exidx), (8 bytes).
    Removing lis2ds12_acc.o(.ARM.exidx), (8 bytes).
    Removing lis2ds12_acc.o(.ARM.exidx), (8 bytes).
    Removing lis2ds12_acc.o(.ARM.exidx), (8 bytes).
    Removing lis2ds12_acc.o(.ARM.exidx), (8 bytes).
    Removing lis2ds12_acc.o(.ARM.exidx), (8 bytes).
    Removing lis2ds12_acc.o(.ARM.exidx), (8 bytes).
    Removing lis2ds12_acc.o(.ARM.exidx), (8 bytes).
    Removing lis2ds12_acc.o(.ARM.exidx), (8 bytes).
    Removing lis2ds12_acc.o(.ARM.exidx), (8 bytes).
    Removing lis2ds12_acc.o(.ARM.exidx), (8 bytes).
    Removing lis2ds12_acc.o(.ARM.exidx), (8 bytes).
    Removing lis2ds12_acc.o(.ARM.exidx), (8 bytes).
    Removing lis2ds12_acc.o(.ARM.exidx), (8 bytes).
    Removing lis2ds12_acc.o(.ARM.exidx), (8 bytes).
    Removing lis2ds12_acc.o(.ARM.exidx), (8 bytes).
    Removing lis2ds12_acc.o(.constdata), (96 bytes).
    Removing max30105.o(.rev16_text), (4 bytes).
    Removing max30105.o(.revsh_text), (4 bytes).
    Removing max30105.o(.rrx_text), (6 bytes).
    Removing max30105.o(i._ZN8MAX3010510getFIFORedEv), (12 bytes).
    Removing max30105.o(i._ZN8MAX3010510nextSampleEv), (26 bytes).
    Removing max30105.o(i._ZN8MAX3010511enableAFULLEv), (10 bytes).
    Removing max30105.o(i._ZN8MAX3010512disableAFULLEv), (10 bytes).
    Removing max30105.o(i._ZN8MAX3010512disableSlotsEv), (30 bytes).
    Removing max30105.o(i._ZN8MAX3010512enableALCOVFEv), (10 bytes).
    Removing max30105.o(i._ZN8MAX3010512getFIFOGreenEv), (12 bytes).
    Removing max30105.o(i._ZN8MAX3010513disableALCOVFEv), (10 bytes).
    Removing max30105.o(i._ZN8MAX3010513enableDATARDYEv), (10 bytes).
    Removing max30105.o(i._ZN8MAX3010513enablePROXINTEv), (10 bytes).
    Removing max30105.o(i._ZN8MAX3010513getRevisionIDEv), (4 bytes).
    Removing max30105.o(i._ZN8MAX3010514disableDATARDYEv), (10 bytes).
    Removing max30105.o(i._ZN8MAX3010514disablePROXINTEv), (10 bytes).
    Removing max30105.o(i._ZN8MAX3010515readTemperatureEv), (112 bytes).
    Removing max30105.o(i._ZN8MAX3010516enableDIETEMPRDYEv), (10 bytes).
    Removing max30105.o(i._ZN8MAX3010516readTemperatureFEv), (60 bytes).
    Removing max30105.o(i._ZN8MAX3010516setPROXINTTHRESHEh), (10 bytes).
    Removing max30105.o(i._ZN8MAX3010517disableDIETEMPRDYEv), (10 bytes).
    Removing max30105.o(i._ZN8MAX3010517setFIFOAlmostFullEh), (10 bytes).
    Removing max30105.o(i._ZN8MAX3010519disableFIFORolloverEv), (10 bytes).
    Removing max30105.o(i._ZN8MAX3010521setProximityThresholdEh), (10 bytes).
    Removing max30105.o(i._ZN8MAX301056getRedEv), (26 bytes).
    Removing max30105.o(i._ZN8MAX301056wakeUpEv), (10 bytes).
    Removing max30105.o(i._ZN8MAX301057getINT1Ev), (8 bytes).
    Removing max30105.o(i._ZN8MAX301057getINT2Ev), (8 bytes).
    Removing max30105.o(i._ZN8MAX301058getGreenEv), (26 bytes).
    Removing max30105.o(i._ZN8MAX301058shutDownEv), (10 bytes).
    Removing max30105.o(i._ZN8MAX301059availableEv), (22 bytes).
    Removing max30105.o(i._ZN8MAX301059getFIFOIREv), (12 bytes).
    Removing max30105.o(.ARM.exidx), (8 bytes).
    Removing max30105.o(.ARM.exidx), (8 bytes).
    Removing max30105.o(.ARM.exidx), (8 bytes).
    Removing max30105.o(.ARM.exidx), (8 bytes).
    Removing max30105.o(.ARM.exidx), (8 bytes).
    Removing max30105.o(.ARM.exidx), (8 bytes).
    Removing max30105.o(.ARM.exidx), (8 bytes).
    Removing max30105.o(.ARM.exidx), (8 bytes).
    Removing max30105.o(.ARM.exidx), (8 bytes).
    Removing max30105.o(.ARM.exidx), (8 bytes).
    Removing max30105.o(.ARM.exidx), (8 bytes).
    Removing max30105.o(.ARM.exidx), (8 bytes).
    Removing max30105.o(.ARM.exidx), (8 bytes).
    Removing max30105.o(.ARM.exidx), (8 bytes).
    Removing max30105.o(.ARM.exidx), (8 bytes).
    Removing max30105.o(.ARM.exidx), (8 bytes).
    Removing max30105.o(.ARM.exidx), (8 bytes).
    Removing max30105.o(.ARM.exidx), (8 bytes).
    Removing max30105.o(.ARM.exidx), (8 bytes).
    Removing max30105.o(.ARM.exidx), (8 bytes).
    Removing max30105.o(.ARM.exidx), (8 bytes).
    Removing max30105.o(.ARM.exidx), (8 bytes).
    Removing max30105.o(.ARM.exidx), (8 bytes).
    Removing max30105.o(.ARM.exidx), (8 bytes).
    Removing max30105.o(.ARM.exidx), (8 bytes).
    Removing max30105.o(.ARM.exidx), (8 bytes).
    Removing max30105.o(.ARM.exidx), (8 bytes).
    Removing max30105.o(.ARM.exidx), (8 bytes).
    Removing max30105.o(.ARM.exidx), (8 bytes).
    Removing max30105.o(.ARM.exidx), (8 bytes).
    Removing max30105.o(.ARM.exidx), (8 bytes).
    Removing max30105.o(.ARM.exidx), (8 bytes).
    Removing max30105.o(.ARM.exidx), (8 bytes).
    Removing max30105.o(.ARM.exidx), (8 bytes).
    Removing max30105.o(.ARM.exidx), (8 bytes).
    Removing max30105.o(.ARM.exidx), (8 bytes).
    Removing max30105.o(.ARM.exidx), (8 bytes).
    Removing max30105.o(.ARM.exidx), (8 bytes).
    Removing max30105.o(.ARM.exidx), (8 bytes).
    Removing max30105.o(.ARM.exidx), (8 bytes).
    Removing max30105.o(.ARM.exidx), (8 bytes).
    Removing max30105.o(.ARM.exidx), (8 bytes).
    Removing max30105.o(.ARM.exidx), (8 bytes).
    Removing max30105.o(.ARM.exidx), (8 bytes).
    Removing max30105.o(.ARM.exidx), (8 bytes).
    Removing max30105.o(.ARM.exidx), (8 bytes).
    Removing max30105.o(.ARM.exidx), (8 bytes).
    Removing max30105.o(.ARM.exidx), (8 bytes).
    Removing max30105.o(.ARM.exidx), (8 bytes).
    Removing max30105.o(.ARM.exidx), (8 bytes).
    Removing max30105.o(.ARM.exidx), (8 bytes).
    Removing max30105.o(.ARM.exidx), (8 bytes).
    Removing max30105.o(.ARM.exidx), (8 bytes).
    Removing max30105.o(.ARM.exidx), (8 bytes).
    Removing max30105.o(.ARM.exidx), (8 bytes).
    Removing heartrate.o(.rev16_text), (4 bytes).
    Removing heartrate.o(.revsh_text), (4 bytes).
    Removing heartrate.o(.rrx_text), (6 bytes).
    Removing heartrate.o(i._Z5mul16ss), (4 bytes).
    Removing heartrate.o(.ARM.exidx), (8 bytes).
    Removing heartrate.o(.ARM.exidx), (8 bytes).
    Removing heartrate.o(.ARM.exidx), (8 bytes).
    Removing heartrate.o(.ARM.exidx), (8 bytes).
    Removing spo2_algorithm.o(.rev16_text), (4 bytes).
    Removing spo2_algorithm.o(.revsh_text), (4 bytes).
    Removing spo2_algorithm.o(.rrx_text), (6 bytes).
    Removing spo2_algorithm.o(i._Z16maxim_find_peaksPiS_S_iiii), (50 bytes).
    Removing spo2_algorithm.o(i._Z17maxim_sort_ascendPii), (50 bytes).
    Removing spo2_algorithm.o(i._Z24maxim_remove_close_peaksPiS_S_i), (108 bytes).
    Removing spo2_algorithm.o(i._Z26maxim_sort_indices_descendPiS_i), (58 bytes).
    Removing spo2_algorithm.o(i._Z28maxim_peaks_above_min_heightPiS_S_ii), (106 bytes).
    Removing spo2_algorithm.o(i._Z38maxim_heart_rate_and_oxygen_saturationPjiS_PiPaS0_S1_), (640 bytes).
    Removing spo2_algorithm.o(.ARM.exidx), (8 bytes).
    Removing spo2_algorithm.o(.ARM.exidx), (8 bytes).
    Removing spo2_algorithm.o(.ARM.exidx), (8 bytes).
    Removing spo2_algorithm.o(.ARM.exidx), (8 bytes).
    Removing spo2_algorithm.o(.ARM.exidx), (8 bytes).
    Removing spo2_algorithm.o(.ARM.exidx), (8 bytes).
    Removing spo2_algorithm.o(.bss), (800 bytes).
    Removing spo2_algorithm.o(.constdata), (184 bytes).
    Removing arduino.o(.rev16_text), (4 bytes).
    Removing arduino.o(.revsh_text), (4 bytes).
    Removing arduino.o(.rrx_text), (6 bytes).
    Removing arduino.o(i.analogRead), (32 bytes).
    Removing arduino.o(i.analogRead_DMA), (28 bytes).
    Removing arduino.o(i.analogWrite), (28 bytes).
    Removing arduino.o(i.fmap), (84 bytes).
    Removing arduino.o(i.map), (20 bytes).
    Removing arduino.o(i.pulseIn), (148 bytes).
    Removing arduino.o(i.shiftIn), (80 bytes).
    Removing arduino.o(i.shiftOut), (88 bytes).
    Removing arduino.o(i.yield), (2 bytes).
    Removing dtostrf.o(i.dtostrf), (48 bytes).
    Removing hardwareserial.o(.rev16_text), (4 bytes).
    Removing hardwareserial.o(.revsh_text), (4 bytes).
    Removing hardwareserial.o(.rrx_text), (6 bytes).
    Removing hardwareserial.o(i._ZN14HardwareSerial15attachInterruptEPFvvE), (4 bytes).
    Removing hardwareserial.o(i._ZN14HardwareSerial3endEv), (8 bytes).
    Removing hardwareserial.o(i._ZN14HardwareSerial4peekEv), (22 bytes).
    Removing hardwareserial.o(i._ZN14HardwareSerial4readEv), (36 bytes).
    Removing hardwareserial.o(i._ZN14HardwareSerial5flushEv), (6 bytes).
    Removing hardwareserial.o(i._ZN14HardwareSerial9availableEv), (12 bytes).
    Removing hardwareserial.o(.ARM.exidx), (8 bytes).
    Removing hardwareserial.o(.ARM.exidx), (8 bytes).
    Removing hardwareserial.o(.ARM.exidx), (8 bytes).
    Removing hardwareserial.o(.ARM.exidx), (8 bytes).
    Removing hardwareserial.o(.ARM.exidx), (8 bytes).
    Removing hardwareserial.o(.ARM.exidx), (8 bytes).
    Removing hardwareserial.o(.ARM.exidx), (8 bytes).
    Removing hardwareserial.o(.ARM.exidx), (8 bytes).
    Removing hardwareserial.o(.ARM.exidx), (8 bytes).
    Removing hardwareserial.o(.ARM.exidx), (8 bytes).
    Removing hardwareserial.o(.ARM.exidx), (8 bytes).
    Removing hardwareserial.o(.ARM.exidx), (8 bytes).
    Removing hardwareserial.o(.ARM.exidx), (8 bytes).
    Removing hardwareserial.o(.ARM.exidx), (8 bytes).
    Removing hardwareserial.o(.ARM.exidx), (8 bytes).
    Removing hardwareserial.o(.ARM.exidx), (8 bytes).
    Removing itoa.o(i.itoa), (4 bytes).
    Removing itoa.o(i.ltoa), (112 bytes).
    Removing itoa.o(i.ultoa), (88 bytes).
    Removing itoa.o(i.utoa), (4 bytes).
    Removing print.o(i._ZN5Print10printFloatEdh), (304 bytes).
    Removing print.o(i._ZN5Print5printEPK19__FlashStringHelper), (6 bytes).
    Removing print.o(i._ZN5Print5printERK6String), (10 bytes).
    Removing print.o(i._ZN5Print5printERK9Printable), (12 bytes).
    Removing print.o(i._ZN5Print5printEdi), (14 bytes).
    Removing print.o(i._ZN5Print5printEii), (14 bytes).
    Removing print.o(i._ZN5Print5printEji), (14 bytes).
    Removing print.o(i._ZN5Print5printEli), (14 bytes).
    Removing print.o(i._ZN5Print5printEmi), (14 bytes).
    Removing print.o(i._ZN5Print5printExi), (64 bytes).
    Removing print.o(i._ZN5Print7printlnEPK19__FlashStringHelper), (20 bytes).
    Removing print.o(i._ZN5Print7printlnERK6String), (20 bytes).
    Removing print.o(i._ZN5Print7printlnERK9Printable), (20 bytes).
    Removing print.o(i._ZN5Print7printlnEc), (20 bytes).
    Removing print.o(i._ZN5Print7printlnEdi), (26 bytes).
    Removing print.o(i._ZN5Print7printlnEii), (20 bytes).
    Removing print.o(i._ZN5Print7printlnEji), (20 bytes).
    Removing print.o(i._ZN5Print7printlnEli), (26 bytes).
    Removing print.o(i._ZN5Print7printlnEmi), (26 bytes).
    Removing print.o(i._ZN5Print7printlnExi), (26 bytes).
    Removing print.o(i._ZN5Print7printlnEyi), (26 bytes).
    Removing print.o(.ARM.exidx), (8 bytes).
    Removing print.o(.ARM.exidx), (8 bytes).
    Removing print.o(.ARM.exidx), (8 bytes).
    Removing print.o(.ARM.exidx), (8 bytes).
    Removing print.o(.ARM.exidx), (8 bytes).
    Removing print.o(.ARM.exidx), (8 bytes).
    Removing print.o(.ARM.exidx), (8 bytes).
    Removing print.o(.ARM.exidx), (8 bytes).
    Removing print.o(.ARM.exidx), (8 bytes).
    Removing print.o(.ARM.exidx), (8 bytes).
    Removing print.o(.ARM.exidx), (8 bytes).
    Removing print.o(.ARM.exidx), (8 bytes).
    Removing print.o(.ARM.exidx), (8 bytes).
    Removing print.o(.ARM.exidx), (8 bytes).
    Removing print.o(.ARM.exidx), (8 bytes).
    Removing print.o(.ARM.exidx), (8 bytes).
    Removing print.o(.ARM.exidx), (8 bytes).
    Removing print.o(.ARM.exidx), (8 bytes).
    Removing print.o(.ARM.exidx), (8 bytes).
    Removing print.o(.ARM.exidx), (8 bytes).
    Removing print.o(.ARM.exidx), (8 bytes).
    Removing print.o(.ARM.exidx), (8 bytes).
    Removing print.o(.ARM.exidx), (8 bytes).
    Removing print.o(.ARM.exidx), (8 bytes).
    Removing print.o(.ARM.exidx), (8 bytes).
    Removing print.o(.ARM.exidx), (8 bytes).
    Removing print.o(.ARM.exidx), (8 bytes).
    Removing print.o(.ARM.exidx), (8 bytes).
    Removing print.o(.ARM.exidx), (8 bytes).
    Removing print.o(.ARM.exidx), (8 bytes).
    Removing print.o(.ARM.exidx), (8 bytes).
    Removing print.o(.ARM.exidx), (8 bytes).
    Removing wstring.o(i._ZN6String10invalidateEv), (22 bytes).
    Removing wstring.o(i._ZN6String11toLowerCaseEv), (28 bytes).
    Removing wstring.o(i._ZN6String11toUpperCaseEv), (28 bytes).
    Removing wstring.o(i._ZN6String12changeBufferEj), (26 bytes).
    Removing wstring.o(i._ZN6String4copyEPK19__FlashStringHelperj), (38 bytes).
    Removing wstring.o(i._ZN6String4copyEPKcj), (38 bytes).
    Removing wstring.o(i._ZN6String4trimEv), (84 bytes).
    Removing wstring.o(i._ZN6String6concatEPK19__FlashStringHelper), (54 bytes).
    Removing wstring.o(i._ZN6String6concatEPKc), (32 bytes).
    Removing wstring.o(i._ZN6String6concatEPKcj), (50 bytes).
    Removing wstring.o(i._ZN6String6concatERKS_), (8 bytes).
    Removing wstring.o(i._ZN6String6concatEc), (22 bytes).
    Removing wstring.o(i._ZN6String6concatEd), (44 bytes).
    Removing wstring.o(i._ZN6String6concatEf), (44 bytes).
    Removing wstring.o(i._ZN6String6concatEh), (34 bytes).
    Removing wstring.o(i._ZN6String6concatEi), (36 bytes).
    Removing wstring.o(i._ZN6String6concatEj), (36 bytes).
    Removing wstring.o(i._ZN6String6concatEl), (36 bytes).
    Removing wstring.o(i._ZN6String6concatEm), (36 bytes).
    Removing wstring.o(i._ZN6String6removeEj), (8 bytes).
    Removing wstring.o(i._ZN6String6removeEjj), (54 bytes).
    Removing wstring.o(i._ZN6String7replaceERKS_S1_), (270 bytes).
    Removing wstring.o(i._ZN6String7replaceEcc), (24 bytes).
    Removing wstring.o(i._ZN6String7reserveEj), (38 bytes).
    Removing wstring.o(i._ZN6String7sprintfEPKcz), (48 bytes).
    Removing wstring.o(i._ZN6String9setCharAtEjc), (12 bytes).
    Removing wstring.o(i._ZN6StringC1EPK19__FlashStringHelper), (22 bytes).
    Removing wstring.o(i._ZN6StringC1EPKc), (32 bytes).
    Removing wstring.o(i._ZN6StringC1ERKS_), (22 bytes).
    Removing wstring.o(i._ZN6StringC1Ec), (32 bytes).
    Removing wstring.o(i._ZN6StringC1Edh), (48 bytes).
    Removing wstring.o(i._ZN6StringC1Efh), (48 bytes).
    Removing wstring.o(i._ZN6StringC1Ehh), (34 bytes).
    Removing wstring.o(i._ZN6StringC1Eih), (38 bytes).
    Removing wstring.o(i._ZN6StringC1Ejh), (38 bytes).
    Removing wstring.o(i._ZN6StringC1Elh), (38 bytes).
    Removing wstring.o(i._ZN6StringC1Emh), (38 bytes).
    Removing wstring.o(i._ZN6StringD1Ev), (14 bytes).
    Removing wstring.o(i._ZN6StringaSEPK19__FlashStringHelper), (34 bytes).
    Removing wstring.o(i._ZN6StringaSEPKc), (34 bytes).
    Removing wstring.o(i._ZN6StringaSERKS_), (34 bytes).
    Removing wstring.o(i._ZN6StringixEj), (28 bytes).
    Removing wstring.o(i._ZNK6String10startsWithERKS_), (18 bytes).
    Removing wstring.o(i._ZNK6String10startsWithERKS_j), (38 bytes).
    Removing wstring.o(i._ZNK6String11lastIndexOfERKS_), (10 bytes).
    Removing wstring.o(i._ZNK6String11lastIndexOfERKS_j), (70 bytes).
    Removing wstring.o(i._ZNK6String11lastIndexOfEc), (8 bytes).
    Removing wstring.o(i._ZNK6String11lastIndexOfEcj), (50 bytes).
    Removing wstring.o(i._ZNK6String16equalsIgnoreCaseERKS_), (56 bytes).
    Removing wstring.o(i._ZNK6String5toIntEv), (12 bytes).
    Removing wstring.o(i._ZNK6String6charAtEj), (4 bytes).
    Removing wstring.o(i._ZNK6String6equalsEPKc), (34 bytes).
    Removing wstring.o(i._ZNK6String6equalsERKS_), (24 bytes).
    Removing wstring.o(i._ZNK6String7indexOfERKS_), (6 bytes).
    Removing wstring.o(i._ZNK6String7indexOfERKS_j), (36 bytes).
    Removing wstring.o(i._ZNK6String7indexOfEc), (6 bytes).
    Removing wstring.o(i._ZNK6String7indexOfEcj), (34 bytes).
    Removing wstring.o(i._ZNK6String7toFloatEv), (22 bytes).
    Removing wstring.o(i._ZNK6String8endsWithERKS_), (36 bytes).
    Removing wstring.o(i._ZNK6String8getBytesEPhjj), (52 bytes).
    Removing wstring.o(i._ZNK6String9compareToERKS_), (42 bytes).
    Removing wstring.o(i._ZNK6String9substringEjj), (64 bytes).
    Removing wstring.o(i._ZNK6StringgeERKS_), (12 bytes).
    Removing wstring.o(i._ZNK6StringgtERKS_), (18 bytes).
    Removing wstring.o(i._ZNK6StringixEj), (18 bytes).
    Removing wstring.o(i._ZNK6StringleERKS_), (18 bytes).
    Removing wstring.o(i._ZNK6StringltERKS_), (10 bytes).
    Removing wstring.o(i._ZplRK15StringSumHelperPK19__FlashStringHelper), (20 bytes).
    Removing wstring.o(i._ZplRK15StringSumHelperPKc), (36 bytes).
    Removing wstring.o(i._ZplRK15StringSumHelperRK6String), (24 bytes).
    Removing wstring.o(i._ZplRK15StringSumHelperc), (20 bytes).
    Removing wstring.o(i._ZplRK15StringSumHelperd), (20 bytes).
    Removing wstring.o(i._ZplRK15StringSumHelperf), (20 bytes).
    Removing wstring.o(i._ZplRK15StringSumHelperh), (20 bytes).
    Removing wstring.o(i._ZplRK15StringSumHelperi), (20 bytes).
    Removing wstring.o(i._ZplRK15StringSumHelperj), (20 bytes).
    Removing wstring.o(i._ZplRK15StringSumHelperl), (20 bytes).
    Removing wstring.o(i._ZplRK15StringSumHelperm), (20 bytes).
    Removing wstring.o(.ARM.exidx), (8 bytes).
    Removing wstring.o(.ARM.exidx), (8 bytes).
    Removing wstring.o(.ARM.exidx), (8 bytes).
    Removing wstring.o(.ARM.exidx), (8 bytes).
    Removing wstring.o(.ARM.exidx), (8 bytes).
    Removing wstring.o(.ARM.exidx), (8 bytes).
    Removing wstring.o(.ARM.exidx), (8 bytes).
    Removing wstring.o(.ARM.exidx), (8 bytes).
    Removing wstring.o(.ARM.exidx), (8 bytes).
    Removing wstring.o(.ARM.exidx), (8 bytes).
    Removing wstring.o(.ARM.exidx), (8 bytes).
    Removing wstring.o(.ARM.exidx), (8 bytes).
    Removing wstring.o(.ARM.exidx), (8 bytes).
    Removing wstring.o(.ARM.exidx), (8 bytes).
    Removing wstring.o(.ARM.exidx), (8 bytes).
    Removing wstring.o(.ARM.exidx), (8 bytes).
    Removing wstring.o(.ARM.exidx), (8 bytes).
    Removing wstring.o(.ARM.exidx), (8 bytes).
    Removing wstring.o(.ARM.exidx), (8 bytes).
    Removing wstring.o(.ARM.exidx), (8 bytes).
    Removing wstring.o(.ARM.exidx), (8 bytes).
    Removing wstring.o(.ARM.exidx), (8 bytes).
    Removing wstring.o(.ARM.exidx), (8 bytes).
    Removing wstring.o(.ARM.exidx), (8 bytes).
    Removing wstring.o(.ARM.exidx), (8 bytes).
    Removing wstring.o(.ARM.exidx), (8 bytes).
    Removing wstring.o(.ARM.exidx), (8 bytes).
    Removing wstring.o(.ARM.exidx), (8 bytes).
    Removing wstring.o(.ARM.exidx), (8 bytes).
    Removing wstring.o(.ARM.exidx), (8 bytes).
    Removing wstring.o(.ARM.exidx), (8 bytes).
    Removing wstring.o(.ARM.exidx), (8 bytes).
    Removing wstring.o(.ARM.exidx), (8 bytes).
    Removing wstring.o(.ARM.exidx), (8 bytes).
    Removing wstring.o(.ARM.exidx), (8 bytes).
    Removing wstring.o(.ARM.exidx), (8 bytes).
    Removing wstring.o(.ARM.exidx), (8 bytes).
    Removing wstring.o(.ARM.exidx), (8 bytes).
    Removing wstring.o(.ARM.exidx), (8 bytes).
    Removing wstring.o(.ARM.exidx), (8 bytes).
    Removing wstring.o(.ARM.exidx), (8 bytes).
    Removing wstring.o(.ARM.exidx), (8 bytes).
    Removing wstring.o(.ARM.exidx), (8 bytes).
    Removing wstring.o(.ARM.exidx), (8 bytes).
    Removing wstring.o(.ARM.exidx), (8 bytes).
    Removing wstring.o(.ARM.exidx), (8 bytes).
    Removing wstring.o(.ARM.exidx), (8 bytes).
    Removing wstring.o(.ARM.exidx), (8 bytes).
    Removing wstring.o(.ARM.exidx), (8 bytes).
    Removing wstring.o(.ARM.exidx), (8 bytes).
    Removing wstring.o(.ARM.exidx), (8 bytes).
    Removing wstring.o(.ARM.exidx), (8 bytes).
    Removing wstring.o(.ARM.exidx), (8 bytes).
    Removing wstring.o(.ARM.exidx), (8 bytes).
    Removing wstring.o(.ARM.exidx), (8 bytes).
    Removing wstring.o(.ARM.exidx), (8 bytes).
    Removing wstring.o(.ARM.exidx), (8 bytes).
    Removing wstring.o(.ARM.exidx), (8 bytes).
    Removing wstring.o(.ARM.exidx), (8 bytes).
    Removing wstring.o(.ARM.exidx), (8 bytes).
    Removing wstring.o(.ARM.exidx), (8 bytes).
    Removing wstring.o(.ARM.exidx), (8 bytes).
    Removing wstring.o(.ARM.exidx), (8 bytes).
    Removing wstring.o(.ARM.exidx), (8 bytes).
    Removing wstring.o(.ARM.exidx), (8 bytes).
    Removing wstring.o(.ARM.exidx), (8 bytes).
    Removing wstring.o(.ARM.exidx), (8 bytes).
    Removing wstring.o(.ARM.exidx), (8 bytes).
    Removing wstring.o(.ARM.exidx), (8 bytes).
    Removing wstring.o(.ARM.exidx), (8 bytes).
    Removing wstring.o(.ARM.exidx), (8 bytes).
    Removing wstring.o(.ARM.exidx), (8 bytes).
    Removing wstring.o(.ARM.exidx), (8 bytes).
    Removing wstring.o(.ARM.exidx), (8 bytes).
    Removing wstring.o(.ARM.exidx), (8 bytes).
    Removing wstring.o(.ARM.exidx), (8 bytes).
    Removing wstring.o(.ARM.exidx), (8 bytes).
    Removing wstring.o(.ARM.exidx), (8 bytes).
    Removing wstring.o(.data), (1 bytes).
    Removing wire.o(.rev16_text), (4 bytes).
    Removing wire.o(.revsh_text), (4 bytes).
    Removing wire.o(.rrx_text), (6 bytes).
    Removing wire.o(.ARM.exidx), (8 bytes).
    Removing wire.o(.ARM.exidx), (8 bytes).
    Removing wire.o(.ARM.exidx), (8 bytes).
    Removing wire.o(.ARM.exidx), (8 bytes).
    Removing wire.o(.ARM.exidx), (8 bytes).
    Removing wire.o(.ARM.exidx), (8 bytes).
    Removing wire.o(.ARM.exidx), (8 bytes).
    Removing wire.o(.ARM.exidx), (8 bytes).
    Removing wire.o(.ARM.exidx), (8 bytes).
    Removing wire.o(.ARM.exidx), (8 bytes).
    Removing wire.o(.ARM.exidx), (8 bytes).
    Removing wire.o(.ARM.exidx), (8 bytes).
    Removing wire.o(.ARM.exidx), (8 bytes).
    Removing wire.o(.ARM.exidx), (8 bytes).
    Removing wirebase.o(.rev16_text), (4 bytes).
    Removing wirebase.o(.revsh_text), (4 bytes).
    Removing wirebase.o(.rrx_text), (6 bytes).
    Removing wirebase.o(i._ZN8WireBase5beginEh), (18 bytes).
    Removing wirebase.o(i._ZN8WireBase5writeEPc), (24 bytes).
    Removing wirebase.o(i._ZN8WireBase5writeEPhi), (30 bytes).
    Removing wirebase.o(i._ZN8WireBase5writeEPii), (6 bytes).
    Removing wirebase.o(i._ZN8WireBase5writeEi), (6 bytes).
    Removing wirebase.o(.ARM.exidx), (8 bytes).
    Removing wirebase.o(.ARM.exidx), (8 bytes).
    Removing wirebase.o(.ARM.exidx), (8 bytes).
    Removing wirebase.o(.ARM.exidx), (8 bytes).
    Removing wirebase.o(.ARM.exidx), (8 bytes).
    Removing wirebase.o(.ARM.exidx), (8 bytes).
    Removing wirebase.o(.ARM.exidx), (8 bytes).
    Removing wirebase.o(.ARM.exidx), (8 bytes).
    Removing wirebase.o(.ARM.exidx), (8 bytes).
    Removing wirebase.o(.ARM.exidx), (8 bytes).
    Removing wirebase.o(.ARM.exidx), (8 bytes).
    Removing wirebase.o(.ARM.exidx), (8 bytes).
    Removing wirebase.o(.ARM.exidx), (8 bytes).
    Removing wirebase.o(.ARM.exidx), (8 bytes).
    Removing wmath.o(.rev16_text), (4 bytes).
    Removing wmath.o(.revsh_text), (4 bytes).
    Removing wmath.o(.rrx_text), (6 bytes).
    Removing wmath.o(i._Z10randomSeedm), (10 bytes).
    Removing wmath.o(i._Z6randoml), (24 bytes).
    Removing wmath.o(i._Z6randomll), (18 bytes).
    Removing wmath.o(i._Z8makeWordhh), (6 bytes).
    Removing wmath.o(i._Z8makeWordj), (2 bytes).
    Removing wmath.o(.ARM.exidx), (8 bytes).
    Removing wmath.o(.ARM.exidx), (8 bytes).
    Removing wmath.o(.ARM.exidx), (8 bytes).
    Removing wmath.o(.ARM.exidx), (8 bytes).
    Removing wmath.o(.ARM.exidx), (8 bytes).
    Removing spi.o(.rev16_text), (4 bytes).
    Removing spi.o(.revsh_text), (4 bytes).
    Removing spi.o(.rrx_text), (6 bytes).
    Removing spi.o(i._ZN8SPIClass10beginSlaveEv), (46 bytes).
    Removing spi.o(i._ZN8SPIClass11setBitOrderEt), (36 bytes).
    Removing spi.o(i._ZN8SPIClass11setDataModeEh), (74 bytes).
    Removing spi.o(i._ZN8SPIClass11setDataSizeEt), (26 bytes).
    Removing spi.o(i._ZN8SPIClass12SPI_SettingsEP11SPI_TypeDeftttttt), (122 bytes).
    Removing spi.o(i._ZN8SPIClass14endTransactionEv), (2 bytes).
    Removing spi.o(i._ZN8SPIClass15setClockDividerEj), (20 bytes).
    Removing spi.o(i._ZN8SPIClass16beginTransactionE11SPISettings), (8 bytes).
    Removing spi.o(i._ZN8SPIClass21beginTransactionSlaveEv), (4 bytes).
    Removing spi.o(i._ZN8SPIClass3endEv), (8 bytes).
    Removing spi.o(i._ZN8SPIClass4readEPhj), (74 bytes).
    Removing spi.o(i._ZN8SPIClass4readEv), (12 bytes).
    Removing spi.o(i._ZN8SPIClass4recvEv), (10 bytes).
    Removing spi.o(i._ZN8SPIClass4sendEPhj), (12 bytes).
    Removing spi.o(i._ZN8SPIClass4sendEh), (10 bytes).
    Removing spi.o(i._ZN8SPIClass5beginE11SPISettings), (52 bytes).
    Removing spi.o(i._ZN8SPIClass5beginEjtt), (52 bytes).
    Removing spi.o(i._ZN8SPIClass5beginEv), (196 bytes).
    Removing spi.o(i._ZN8SPIClass5writeEPKhj), (38 bytes).
    Removing spi.o(i._ZN8SPIClass5writeEPKtj), (38 bytes).
    Removing spi.o(i._ZN8SPIClass5writeEt), (20 bytes).
    Removing spi.o(i._ZN8SPIClass5writeEtj), (30 bytes).
    Removing spi.o(i._ZN8SPIClass8setClockEj), (92 bytes).
    Removing spi.o(i._ZN8SPIClassC1EP11SPI_TypeDef), (4 bytes).
    Removing spi.o(i._ZNK8SPIClass10transfer16Et), (30 bytes).
    Removing spi.o(i._ZNK8SPIClass8transferEh), (32 bytes).
    Removing spi.o(.ARM.exidx), (8 bytes).
    Removing spi.o(.ARM.exidx), (8 bytes).
    Removing spi.o(.ARM.exidx), (8 bytes).
    Removing spi.o(.ARM.exidx), (8 bytes).
    Removing spi.o(.ARM.exidx), (8 bytes).
    Removing spi.o(.ARM.exidx), (8 bytes).
    Removing spi.o(.ARM.exidx), (8 bytes).
    Removing spi.o(.ARM.exidx), (8 bytes).
    Removing spi.o(.ARM.exidx), (8 bytes).
    Removing spi.o(.ARM.exidx), (8 bytes).
    Removing spi.o(.ARM.exidx), (8 bytes).
    Removing spi.o(.ARM.exidx), (8 bytes).
    Removing spi.o(.ARM.exidx), (8 bytes).
    Removing spi.o(.ARM.exidx), (8 bytes).
    Removing spi.o(.ARM.exidx), (8 bytes).
    Removing spi.o(.ARM.exidx), (8 bytes).
    Removing spi.o(.ARM.exidx), (8 bytes).
    Removing spi.o(.ARM.exidx), (8 bytes).
    Removing spi.o(.ARM.exidx), (8 bytes).
    Removing spi.o(.ARM.exidx), (8 bytes).
    Removing spi.o(.ARM.exidx), (8 bytes).
    Removing spi.o(.ARM.exidx), (8 bytes).
    Removing spi.o(.ARM.exidx), (8 bytes).
    Removing spi.o(.ARM.exidx), (8 bytes).
    Removing spi.o(.ARM.exidx), (8 bytes).
    Removing spi.o(.ARM.exidx), (8 bytes).
    Removing spi.o(.ARM.exidx), (8 bytes).
    Removing stream.o(.rev16_text), (4 bytes).
    Removing stream.o(.revsh_text), (4 bytes).
    Removing stream.o(.rrx_text), (6 bytes).
    Removing stream.o(i._ZN6Stream10parseFloatEc), (164 bytes).
    Removing stream.o(i._ZN6Stream10parseFloatEv), (6 bytes).
    Removing stream.o(i._ZN6Stream10readStringEv), (40 bytes).
    Removing stream.o(i._ZN6Stream10setTimeoutEm), (4 bytes).
    Removing stream.o(i._ZN6Stream13peekNextDigitEv), (38 bytes).
    Removing stream.o(i._ZN6Stream14readBytesUntilEcPcj), (52 bytes).
    Removing stream.o(i._ZN6Stream15readStringUntilEc), (44 bytes).
    Removing stream.o(i._ZN6Stream4findEPc), (36 bytes).
    Removing stream.o(i._ZN6Stream4findEPcj), (12 bytes).
    Removing stream.o(i._ZN6Stream8parseIntEc), (90 bytes).
    Removing stream.o(i._ZN6Stream8parseIntEv), (6 bytes).
    Removing stream.o(i._ZN6Stream9findMultiEPNS_11MultiTargetEi), (160 bytes).
    Removing stream.o(i._ZN6Stream9findUntilEPcS0_), (38 bytes).
    Removing stream.o(i._ZN6Stream9findUntilEPcjS0_j), (84 bytes).
    Removing stream.o(i._ZN6Stream9readBytesEPcj), (40 bytes).
    Removing stream.o(i._ZN6Stream9timedPeekEv), (42 bytes).
    Removing stream.o(i._ZN6Stream9timedReadEv), (42 bytes).
    Removing stream.o(.ARM.exidx), (8 bytes).
    Removing stream.o(.ARM.exidx), (8 bytes).
    Removing stream.o(.ARM.exidx), (8 bytes).
    Removing stream.o(.ARM.exidx), (8 bytes).
    Removing stream.o(.ARM.exidx), (8 bytes).
    Removing stream.o(.ARM.exidx), (8 bytes).
    Removing stream.o(.ARM.exidx), (8 bytes).
    Removing stream.o(.ARM.exidx), (8 bytes).
    Removing stream.o(.ARM.exidx), (8 bytes).
    Removing stream.o(.ARM.exidx), (8 bytes).
    Removing stream.o(.ARM.exidx), (8 bytes).
    Removing stream.o(.ARM.exidx), (8 bytes).
    Removing stream.o(.ARM.exidx), (8 bytes).
    Removing stream.o(.ARM.exidx), (8 bytes).
    Removing stream.o(.ARM.exidx), (8 bytes).
    Removing stream.o(.ARM.exidx), (8 bytes).
    Removing stream.o(.ARM.exidx), (8 bytes).
    Removing tone.o(.rev16_text), (4 bytes).
    Removing tone.o(.revsh_text), (4 bytes).
    Removing tone.o(.rrx_text), (6 bytes).
    Removing tone.o(i._Z12toneSetTimerP11TIM_TypeDef), (12 bytes).
    Removing tone.o(i._Z16toneBlock_Volumnhjjf), (120 bytes).
    Removing tone.o(i._Z17toneTimer_Handlerv), (60 bytes).
    Removing tone.o(i._Z19toneBlock_Volumn_ushjjf), (120 bytes).
    Removing tone.o(i._Z4tonehj), (160 bytes).
    Removing tone.o(i._Z4tonehjj), (52 bytes).
    Removing tone.o(i._Z6noToneh), (36 bytes).
    Removing tone.o(i._Z9toneBlockhjj), (92 bytes).
    Removing tone.o(.ARM.exidx), (8 bytes).
    Removing tone.o(.ARM.exidx), (8 bytes).
    Removing tone.o(.ARM.exidx), (8 bytes).
    Removing tone.o(.ARM.exidx), (8 bytes).
    Removing tone.o(.ARM.exidx), (8 bytes).
    Removing tone.o(.ARM.exidx), (8 bytes).
    Removing tone.o(.ARM.exidx), (8 bytes).
    Removing tone.o(.ARM.exidx), (8 bytes).
    Removing tone.o(.data), (16 bytes).
    Removing adc.o(.rev16_text), (4 bytes).
    Removing adc.o(.revsh_text), (4 bytes).
    Removing adc.o(.rrx_text), (6 bytes).
    Removing adc.o(i.ADC_DMA_GetValue), (96 bytes).
    Removing adc.o(i.ADC_DMA_Init), (256 bytes).
    Removing adc.o(i.ADCx_GetValue), (44 bytes).
    Removing delay.o(.rev16_text), (4 bytes).
    Removing delay.o(.revsh_text), (4 bytes).
    Removing delay.o(.rrx_text), (6 bytes).
    Removing delay.o(i.SysClock_Init), (128 bytes).
    Removing delay.o(i.micros), (60 bytes).
    Removing exti.o(.rev16_text), (4 bytes).
    Removing exti.o(.revsh_text), (4 bytes).
    Removing exti.o(.rrx_text), (6 bytes).
    Removing exti.o(i.EXTI_GetIRQn), (66 bytes).
    Removing exti.o(i.EXTIx_Init), (120 bytes).
    Removing exti.o(i.attachInterrupt), (14 bytes).
    Removing exti.o(i.detachInterrupt), (44 bytes).
    Removing gpio.o(.rev16_text), (4 bytes).
    Removing gpio.o(.revsh_text), (4 bytes).
    Removing gpio.o(.rrx_text), (6 bytes).
    Removing gpio.o(i.GPIO_GetPinNum), (16 bytes).
    Removing gpio.o(i.GPIO_GetPinSource), (18 bytes).
    Removing gpio.o(i.GPIO_GetPortNum), (116 bytes).
    Removing pwm.o(.rev16_text), (4 bytes).
    Removing pwm.o(.revsh_text), (4 bytes).
    Removing pwm.o(.rrx_text), (6 bytes).
    Removing pwm.o(i.TIM_GetChannel), (52 bytes).
    Removing pwm.o(i.pwmWrite), (60 bytes).
    Removing pwm.o(i.timer_generate_update), (6 bytes).
    Removing pwm.o(i.timer_get_compare), (38 bytes).
    Removing pwm.o(i.timer_set_prescaler), (4 bytes).
    Removing pwm.o(i.timer_set_reload), (4 bytes).
    Removing timer.o(.rev16_text), (4 bytes).
    Removing timer.o(.revsh_text), (4 bytes).
    Removing timer.o(.rrx_text), (6 bytes).
    Removing timer.o(i.Qsqrt), (96 bytes).
    Removing timer.o(i.TIM5_IRQHandler), (48 bytes).
    Removing timer.o(i.TIM6_IRQHandler), (48 bytes).
    Removing timer.o(i.TIM7_IRQHandler), (48 bytes).
    Removing timer.o(i.TIM8_UP_IRQHandler), (48 bytes).
    Removing timer.o(i.Timer_FreqToArrPsc), (130 bytes).
    Removing timer.o(i.Timer_GetClockOut), (196 bytes).
    Removing timer.o(i.Timer_SetInterrupt), (224 bytes).
    Removing timer.o(i.Timer_SetInterruptBase), (356 bytes).
    Removing timer.o(i.Timer_SetInterruptFreqUpdate), (228 bytes).
    Removing timer.o(i.Timer_SetInterruptTimeUpdate), (224 bytes).
    Removing timer.o(i.Timer_TimeToArrPsc), (64 bytes).
    Removing misc.o(.rev16_text), (4 bytes).
    Removing misc.o(.revsh_text), (4 bytes).
    Removing misc.o(.rrx_text), (6 bytes).
    Removing misc.o(i.NVIC_SetVectorTable), (20 bytes).
    Removing misc.o(i.NVIC_SystemLPConfig), (24 bytes).
    Removing misc.o(i.SysTick_CLKSourceConfig), (24 bytes).
    Removing stm32f10x_adc.o(.rev16_text), (4 bytes).
    Removing stm32f10x_adc.o(.revsh_text), (4 bytes).
    Removing stm32f10x_adc.o(.rrx_text), (6 bytes).
    Removing stm32f10x_adc.o(i.ADC_AnalogWatchdogCmd), (16 bytes).
    Removing stm32f10x_adc.o(i.ADC_AnalogWatchdogSingleChannelConfig), (12 bytes).
    Removing stm32f10x_adc.o(i.ADC_AnalogWatchdogThresholdsConfig), (6 bytes).
    Removing stm32f10x_adc.o(i.ADC_AutoInjectedConvCmd), (20 bytes).
    Removing stm32f10x_adc.o(i.ADC_ClearFlag), (6 bytes).
    Removing stm32f10x_adc.o(i.ADC_ClearITPendingBit), (8 bytes).
    Removing stm32f10x_adc.o(i.ADC_DMACmd), (20 bytes).
    Removing stm32f10x_adc.o(i.ADC_DiscModeChannelCountConfig), (16 bytes).
    Removing stm32f10x_adc.o(i.ADC_DiscModeCmd), (20 bytes).
    Removing stm32f10x_adc.o(i.ADC_ExternalTrigConvCmd), (20 bytes).
    Removing stm32f10x_adc.o(i.ADC_ExternalTrigInjectedConvCmd), (20 bytes).
    Removing stm32f10x_adc.o(i.ADC_ExternalTrigInjectedConvConfig), (12 bytes).
    Removing stm32f10x_adc.o(i.ADC_GetConversionValue), (6 bytes).
    Removing stm32f10x_adc.o(i.ADC_GetDualModeConversionValue), (12 bytes).
    Removing stm32f10x_adc.o(i.ADC_GetFlagStatus), (14 bytes).
    Removing stm32f10x_adc.o(i.ADC_GetITStatus), (28 bytes).
    Removing stm32f10x_adc.o(i.ADC_GetInjectedConversionValue), (14 bytes).
    Removing stm32f10x_adc.o(i.ADC_GetSoftwareStartConvStatus), (14 bytes).
    Removing stm32f10x_adc.o(i.ADC_GetSoftwareStartInjectedConvCmdStatus), (14 bytes).
    Removing stm32f10x_adc.o(i.ADC_ITConfig), (18 bytes).
    Removing stm32f10x_adc.o(i.ADC_InjectedChannelConfig), (74 bytes).
    Removing stm32f10x_adc.o(i.ADC_InjectedDiscModeCmd), (20 bytes).
    Removing stm32f10x_adc.o(i.ADC_InjectedSequencerLengthConfig), (16 bytes).
    Removing stm32f10x_adc.o(i.ADC_RegularChannelConfig), (116 bytes).
    Removing stm32f10x_adc.o(i.ADC_SetInjectedOffset), (10 bytes).
    Removing stm32f10x_adc.o(i.ADC_SoftwareStartConvCmd), (20 bytes).
    Removing stm32f10x_adc.o(i.ADC_SoftwareStartInjectedConvCmd), (20 bytes).
    Removing stm32f10x_adc.o(i.ADC_StructInit), (18 bytes).
    Removing stm32f10x_adc.o(i.ADC_TempSensorVrefintCmd), (28 bytes).
    Removing stm32f10x_dma.o(.rev16_text), (4 bytes).
    Removing stm32f10x_dma.o(.revsh_text), (4 bytes).
    Removing stm32f10x_dma.o(.rrx_text), (6 bytes).
    Removing stm32f10x_dma.o(i.DMA_ClearFlag), (24 bytes).
    Removing stm32f10x_dma.o(i.DMA_ClearITPendingBit), (24 bytes).
    Removing stm32f10x_dma.o(i.DMA_Cmd), (22 bytes).
    Removing stm32f10x_dma.o(i.DMA_DeInit), (228 bytes).
    Removing stm32f10x_dma.o(i.DMA_GetCurrDataCounter), (6 bytes).
    Removing stm32f10x_dma.o(i.DMA_GetFlagStatus), (32 bytes).
    Removing stm32f10x_dma.o(i.DMA_GetITStatus), (32 bytes).
    Removing stm32f10x_dma.o(i.DMA_ITConfig), (16 bytes).
    Removing stm32f10x_dma.o(i.DMA_Init), (58 bytes).
    Removing stm32f10x_dma.o(i.DMA_SetCurrDataCounter), (4 bytes).
    Removing stm32f10x_dma.o(i.DMA_StructInit), (26 bytes).
    Removing stm32f10x_exti.o(.rev16_text), (4 bytes).
    Removing stm32f10x_exti.o(.revsh_text), (4 bytes).
    Removing stm32f10x_exti.o(.rrx_text), (6 bytes).
    Removing stm32f10x_exti.o(i.EXTI_ClearFlag), (12 bytes).
    Removing stm32f10x_exti.o(i.EXTI_DeInit), (36 bytes).
    Removing stm32f10x_exti.o(i.EXTI_GenerateSWInterrupt), (16 bytes).
    Removing stm32f10x_exti.o(i.EXTI_GetFlagStatus), (20 bytes).
    Removing stm32f10x_exti.o(i.EXTI_Init), (112 bytes).
    Removing stm32f10x_exti.o(i.EXTI_StructInit), (14 bytes).
    Removing stm32f10x_flash.o(.rev16_text), (4 bytes).
    Removing stm32f10x_flash.o(.revsh_text), (4 bytes).
    Removing stm32f10x_flash.o(.rrx_text), (6 bytes).
    Removing stm32f10x_flash.o(i.FLASH_ClearFlag), (12 bytes).
    Removing stm32f10x_flash.o(i.FLASH_EnableWriteProtection), (172 bytes).
    Removing stm32f10x_flash.o(i.FLASH_EraseAllBank1Pages), (56 bytes).
    Removing stm32f10x_flash.o(i.FLASH_EraseAllPages), (56 bytes).
    Removing stm32f10x_flash.o(i.FLASH_EraseOptionBytes), (124 bytes).
    Removing stm32f10x_flash.o(i.FLASH_ErasePage), (60 bytes).
    Removing stm32f10x_flash.o(i.FLASH_GetBank1Status), (40 bytes).
    Removing stm32f10x_flash.o(i.FLASH_GetFlagStatus), (32 bytes).
    Removing stm32f10x_flash.o(i.FLASH_GetPrefetchBufferStatus), (20 bytes).
    Removing stm32f10x_flash.o(i.FLASH_GetReadOutProtectionStatus), (20 bytes).
    Removing stm32f10x_flash.o(i.FLASH_GetStatus), (40 bytes).
    Removing stm32f10x_flash.o(i.FLASH_GetUserOptionByte), (12 bytes).
    Removing stm32f10x_flash.o(i.FLASH_GetWriteProtectionOptionByte), (12 bytes).
    Removing stm32f10x_flash.o(i.FLASH_HalfCycleAccessCmd), (24 bytes).
    Removing stm32f10x_flash.o(i.FLASH_ITConfig), (24 bytes).
    Removing stm32f10x_flash.o(i.FLASH_Lock), (16 bytes).
    Removing stm32f10x_flash.o(i.FLASH_LockBank1), (16 bytes).
    Removing stm32f10x_flash.o(i.FLASH_PrefetchBufferCmd), (24 bytes).
    Removing stm32f10x_flash.o(i.FLASH_ProgramHalfWord), (52 bytes).
    Removing stm32f10x_flash.o(i.FLASH_ProgramOptionByteData), (76 bytes).
    Removing stm32f10x_flash.o(i.FLASH_ProgramWord), (80 bytes).
    Removing stm32f10x_flash.o(i.FLASH_ReadOutProtection), (136 bytes).
    Removing stm32f10x_flash.o(i.FLASH_SetLatency), (20 bytes).
    Removing stm32f10x_flash.o(i.FLASH_Unlock), (24 bytes).
    Removing stm32f10x_flash.o(i.FLASH_UnlockBank1), (24 bytes).
    Removing stm32f10x_flash.o(i.FLASH_UserOptionByteConfig), (96 bytes).
    Removing stm32f10x_flash.o(i.FLASH_WaitForLastBank1Operation), (36 bytes).
    Removing stm32f10x_flash.o(i.FLASH_WaitForLastOperation), (36 bytes).
    Removing stm32f10x_gpio.o(.rev16_text), (4 bytes).
    Removing stm32f10x_gpio.o(.revsh_text), (4 bytes).
    Removing stm32f10x_gpio.o(.rrx_text), (6 bytes).
    Removing stm32f10x_gpio.o(i.GPIO_AFIODeInit), (22 bytes).
    Removing stm32f10x_gpio.o(i.GPIO_DeInit), (180 bytes).
    Removing stm32f10x_gpio.o(i.GPIO_ETH_MediaInterfaceConfig), (12 bytes).
    Removing stm32f10x_gpio.o(i.GPIO_EXTILineConfig), (40 bytes).
    Removing stm32f10x_gpio.o(i.GPIO_EventOutputCmd), (12 bytes).
    Removing stm32f10x_gpio.o(i.GPIO_EventOutputConfig), (28 bytes).
    Removing stm32f10x_gpio.o(i.GPIO_PinLockConfig), (16 bytes).
    Removing stm32f10x_gpio.o(i.GPIO_ReadInputData), (6 bytes).
    Removing stm32f10x_gpio.o(i.GPIO_ReadInputDataBit), (14 bytes).
    Removing stm32f10x_gpio.o(i.GPIO_ReadOutputData), (6 bytes).
    Removing stm32f10x_gpio.o(i.GPIO_ReadOutputDataBit), (14 bytes).
    Removing stm32f10x_gpio.o(i.GPIO_ResetBits), (4 bytes).
    Removing stm32f10x_gpio.o(i.GPIO_SetBits), (4 bytes).
    Removing stm32f10x_gpio.o(i.GPIO_StructInit), (16 bytes).
    Removing stm32f10x_gpio.o(i.GPIO_Write), (4 bytes).
    Removing stm32f10x_gpio.o(i.GPIO_WriteBit), (10 bytes).
    Removing stm32f10x_rcc.o(.rev16_text), (4 bytes).
    Removing stm32f10x_rcc.o(.revsh_text), (4 bytes).
    Removing stm32f10x_rcc.o(.rrx_text), (6 bytes).
    Removing stm32f10x_rcc.o(i.RCC_AHBPeriphClockCmd), (24 bytes).
    Removing stm32f10x_rcc.o(i.RCC_APB1PeriphResetCmd), (24 bytes).
    Removing stm32f10x_rcc.o(i.RCC_AdjustHSICalibrationValue), (20 bytes).
    Removing stm32f10x_rcc.o(i.RCC_BackupResetCmd), (12 bytes).
    Removing stm32f10x_rcc.o(i.RCC_ClearFlag), (16 bytes).
    Removing stm32f10x_rcc.o(i.RCC_ClearITPendingBit), (12 bytes).
    Removing stm32f10x_rcc.o(i.RCC_ClockSecuritySystemCmd), (12 bytes).
    Removing stm32f10x_rcc.o(i.RCC_DeInit), (64 bytes).
    Removing stm32f10x_rcc.o(i.RCC_GetFlagStatus), (48 bytes).
    Removing stm32f10x_rcc.o(i.RCC_GetITStatus), (20 bytes).
    Removing stm32f10x_rcc.o(i.RCC_GetSYSCLKSource), (16 bytes).
    Removing stm32f10x_rcc.o(i.RCC_HCLKConfig), (20 bytes).
    Removing stm32f10x_rcc.o(i.RCC_HSEConfig), (52 bytes).
    Removing stm32f10x_rcc.o(i.RCC_HSICmd), (12 bytes).
    Removing stm32f10x_rcc.o(i.RCC_ITConfig), (24 bytes).
    Removing stm32f10x_rcc.o(i.RCC_LSEConfig), (32 bytes).
    Removing stm32f10x_rcc.o(i.RCC_LSICmd), (12 bytes).
    Removing stm32f10x_rcc.o(i.RCC_MCOConfig), (12 bytes).
    Removing stm32f10x_rcc.o(i.RCC_PCLK1Config), (20 bytes).
    Removing stm32f10x_rcc.o(i.RCC_PCLK2Config), (20 bytes).
    Removing stm32f10x_rcc.o(i.RCC_PLLCmd), (12 bytes).
    Removing stm32f10x_rcc.o(i.RCC_PLLConfig), (20 bytes).
    Removing stm32f10x_rcc.o(i.RCC_RTCCLKCmd), (12 bytes).
    Removing stm32f10x_rcc.o(i.RCC_RTCCLKConfig), (16 bytes).
    Removing stm32f10x_rcc.o(i.RCC_SYSCLKConfig), (20 bytes).
    Removing stm32f10x_rcc.o(i.RCC_USBCLKConfig), (12 bytes).
    Removing stm32f10x_rcc.o(i.RCC_WaitForHSEStartUp), (44 bytes).
    Removing stm32f10x_spi.o(.rev16_text), (4 bytes).
    Removing stm32f10x_spi.o(.revsh_text), (4 bytes).
    Removing stm32f10x_spi.o(.rrx_text), (6 bytes).
    Removing stm32f10x_spi.o(i.I2S_Cmd), (20 bytes).
    Removing stm32f10x_spi.o(i.I2S_Init), (152 bytes).
    Removing stm32f10x_spi.o(i.I2S_StructInit), (18 bytes).
    Removing stm32f10x_spi.o(i.SPI_BiDirectionalLineConfig), (22 bytes).
    Removing stm32f10x_spi.o(i.SPI_CalculateCRC), (20 bytes).
    Removing stm32f10x_spi.o(i.SPI_Cmd), (20 bytes).
    Removing stm32f10x_spi.o(i.SPI_DataSizeConfig), (16 bytes).
    Removing stm32f10x_spi.o(i.SPI_GetCRC), (12 bytes).
    Removing stm32f10x_spi.o(i.SPI_GetCRCPolynomial), (4 bytes).
    Removing stm32f10x_spi.o(i.SPI_I2S_ClearFlag), (6 bytes).
    Removing stm32f10x_spi.o(i.SPI_I2S_ClearITPendingBit), (14 bytes).
    Removing stm32f10x_spi.o(i.SPI_I2S_DMACmd), (16 bytes).
    Removing stm32f10x_spi.o(i.SPI_I2S_DeInit), (84 bytes).
    Removing stm32f10x_spi.o(i.SPI_I2S_GetFlagStatus), (14 bytes).
    Removing stm32f10x_spi.o(i.SPI_I2S_GetITStatus), (42 bytes).
    Removing stm32f10x_spi.o(i.SPI_I2S_ITConfig), (24 bytes).
    Removing stm32f10x_spi.o(i.SPI_I2S_ReceiveData), (4 bytes).
    Removing stm32f10x_spi.o(i.SPI_I2S_SendData), (4 bytes).
    Removing stm32f10x_spi.o(i.SPI_Init), (56 bytes).
    Removing stm32f10x_spi.o(i.SPI_NSSInternalSoftwareConfig), (24 bytes).
    Removing stm32f10x_spi.o(i.SPI_SSOutputCmd), (20 bytes).
    Removing stm32f10x_spi.o(i.SPI_StructInit), (24 bytes).
    Removing stm32f10x_spi.o(i.SPI_TransmitCRC), (10 bytes).
    Removing stm32f10x_tim.o(.rev16_text), (4 bytes).
    Removing stm32f10x_tim.o(.revsh_text), (4 bytes).
    Removing stm32f10x_tim.o(.rrx_text), (6 bytes).
    Removing stm32f10x_tim.o(i.TI1_Config), (108 bytes).
    Removing stm32f10x_tim.o(i.TI2_Config), (124 bytes).
    Removing stm32f10x_tim.o(i.TIM_ARRPreloadConfig), (20 bytes).
    Removing stm32f10x_tim.o(i.TIM_BDTRConfig), (34 bytes).
    Removing stm32f10x_tim.o(i.TIM_BDTRStructInit), (18 bytes).
    Removing stm32f10x_tim.o(i.TIM_CCPreloadControl), (20 bytes).
    Removing stm32f10x_tim.o(i.TIM_CCxCmd), (22 bytes).
    Removing stm32f10x_tim.o(i.TIM_CCxNCmd), (22 bytes).
    Removing stm32f10x_tim.o(i.TIM_ClearFlag), (6 bytes).
    Removing stm32f10x_tim.o(i.TIM_ClearOC1Ref), (12 bytes).
    Removing stm32f10x_tim.o(i.TIM_ClearOC2Ref), (20 bytes).
    Removing stm32f10x_tim.o(i.TIM_ClearOC3Ref), (12 bytes).
    Removing stm32f10x_tim.o(i.TIM_ClearOC4Ref), (20 bytes).
    Removing stm32f10x_tim.o(i.TIM_CounterModeConfig), (12 bytes).
    Removing stm32f10x_tim.o(i.TIM_DMACmd), (16 bytes).
    Removing stm32f10x_tim.o(i.TIM_DMAConfig), (8 bytes).
    Removing stm32f10x_tim.o(i.TIM_DeInit), (368 bytes).
    Removing stm32f10x_tim.o(i.TIM_ETRClockMode1Config), (18 bytes).
    Removing stm32f10x_tim.o(i.TIM_ETRClockMode2Config), (18 bytes).
    Removing stm32f10x_tim.o(i.TIM_ETRConfig), (24 bytes).
    Removing stm32f10x_tim.o(i.TIM_EncoderInterfaceConfig), (50 bytes).
    Removing stm32f10x_tim.o(i.TIM_ForcedOC1Config), (12 bytes).
    Removing stm32f10x_tim.o(i.TIM_ForcedOC2Config), (20 bytes).
    Removing stm32f10x_tim.o(i.TIM_ForcedOC3Config), (12 bytes).
    Removing stm32f10x_tim.o(i.TIM_ForcedOC4Config), (20 bytes).
    Removing stm32f10x_tim.o(i.TIM_GenerateEvent), (4 bytes).
    Removing stm32f10x_tim.o(i.TIM_GetCapture1), (4 bytes).
    Removing stm32f10x_tim.o(i.TIM_GetCapture2), (4 bytes).
    Removing stm32f10x_tim.o(i.TIM_GetCapture3), (4 bytes).
    Removing stm32f10x_tim.o(i.TIM_GetCapture4), (6 bytes).
    Removing stm32f10x_tim.o(i.TIM_GetCounter), (4 bytes).
    Removing stm32f10x_tim.o(i.TIM_GetFlagStatus), (14 bytes).
    Removing stm32f10x_tim.o(i.TIM_GetPrescaler), (4 bytes).
    Removing stm32f10x_tim.o(i.TIM_ICInit), (300 bytes).
    Removing stm32f10x_tim.o(i.TIM_ICStructInit), (16 bytes).
    Removing stm32f10x_tim.o(i.TIM_ITConfig), (16 bytes).
    Removing stm32f10x_tim.o(i.TIM_ITRxExternalClockConfig), (18 bytes).
    Removing stm32f10x_tim.o(i.TIM_InternalClockConfig), (10 bytes).
    Removing stm32f10x_tim.o(i.TIM_OC1FastConfig), (12 bytes).
    Removing stm32f10x_tim.o(i.TIM_OC1NPolarityConfig), (12 bytes).
    Removing stm32f10x_tim.o(i.TIM_OC1PolarityConfig), (12 bytes).
    Removing stm32f10x_tim.o(i.TIM_OC2FastConfig), (20 bytes).
    Removing stm32f10x_tim.o(i.TIM_OC2NPolarityConfig), (20 bytes).
    Removing stm32f10x_tim.o(i.TIM_OC2PolarityConfig), (20 bytes).
    Removing stm32f10x_tim.o(i.TIM_OC3FastConfig), (12 bytes).
    Removing stm32f10x_tim.o(i.TIM_OC3NPolarityConfig), (20 bytes).
    Removing stm32f10x_tim.o(i.TIM_OC3PolarityConfig), (20 bytes).
    Removing stm32f10x_tim.o(i.TIM_OC4FastConfig), (20 bytes).
    Removing stm32f10x_tim.o(i.TIM_OC4PolarityConfig), (20 bytes).
    Removing stm32f10x_tim.o(i.TIM_OCStructInit), (20 bytes).
    Removing stm32f10x_tim.o(i.TIM_PWMIConfig), (108 bytes).
    Removing stm32f10x_tim.o(i.TIM_PrescalerConfig), (6 bytes).
    Removing stm32f10x_tim.o(i.TIM_SelectCCDMA), (20 bytes).
    Removing stm32f10x_tim.o(i.TIM_SelectCOM), (20 bytes).
    Removing stm32f10x_tim.o(i.TIM_SelectHallSensor), (20 bytes).
    Removing stm32f10x_tim.o(i.TIM_SelectInputTrigger), (12 bytes).
    Removing stm32f10x_tim.o(i.TIM_SelectMasterSlaveMode), (16 bytes).
    Removing stm32f10x_tim.o(i.TIM_SelectOCxM), (70 bytes).
    Removing stm32f10x_tim.o(i.TIM_SelectOnePulseMode), (16 bytes).
    Removing stm32f10x_tim.o(i.TIM_SelectOutputTrigger), (16 bytes).
    Removing stm32f10x_tim.o(i.TIM_SelectSlaveMode), (16 bytes).
    Removing stm32f10x_tim.o(i.TIM_SetAutoreload), (4 bytes).
    Removing stm32f10x_tim.o(i.TIM_SetClockDivision), (16 bytes).
    Removing stm32f10x_tim.o(i.TIM_SetCompare1), (4 bytes).
    Removing stm32f10x_tim.o(i.TIM_SetCompare2), (4 bytes).
    Removing stm32f10x_tim.o(i.TIM_SetCompare3), (4 bytes).
    Removing stm32f10x_tim.o(i.TIM_SetCompare4), (6 bytes).
    Removing stm32f10x_tim.o(i.TIM_SetCounter), (4 bytes).
    Removing stm32f10x_tim.o(i.TIM_SetIC1Prescaler), (16 bytes).
    Removing stm32f10x_tim.o(i.TIM_SetIC2Prescaler), (24 bytes).
    Removing stm32f10x_tim.o(i.TIM_SetIC3Prescaler), (16 bytes).
    Removing stm32f10x_tim.o(i.TIM_SetIC4Prescaler), (24 bytes).
    Removing stm32f10x_tim.o(i.TIM_TIxExternalClockConfig), (46 bytes).
    Removing stm32f10x_tim.o(i.TIM_TimeBaseStructInit), (18 bytes).
    Removing stm32f10x_tim.o(i.TIM_UpdateDisableConfig), (20 bytes).
    Removing stm32f10x_tim.o(i.TIM_UpdateRequestConfig), (20 bytes).
    Removing stm32f10x_usart.o(.rev16_text), (4 bytes).
    Removing stm32f10x_usart.o(.revsh_text), (4 bytes).
    Removing stm32f10x_usart.o(.rrx_text), (6 bytes).
    Removing stm32f10x_usart.o(i.USART_ClearFlag), (6 bytes).
    Removing stm32f10x_usart.o(i.USART_ClockInit), (30 bytes).
    Removing stm32f10x_usart.o(i.USART_ClockStructInit), (12 bytes).
    Removing stm32f10x_usart.o(i.USART_DMACmd), (16 bytes).
    Removing stm32f10x_usart.o(i.USART_DeInit), (116 bytes).
    Removing stm32f10x_usart.o(i.USART_HalfDuplexCmd), (20 bytes).
    Removing stm32f10x_usart.o(i.USART_IrDACmd), (20 bytes).
    Removing stm32f10x_usart.o(i.USART_IrDAConfig), (16 bytes).
    Removing stm32f10x_usart.o(i.USART_LINBreakDetectLengthConfig), (16 bytes).
    Removing stm32f10x_usart.o(i.USART_LINCmd), (20 bytes).
    Removing stm32f10x_usart.o(i.USART_OneBitMethodCmd), (20 bytes).
    Removing stm32f10x_usart.o(i.USART_OverSampling8Cmd), (20 bytes).
    Removing stm32f10x_usart.o(i.USART_ReceiverWakeUpCmd), (20 bytes).
    Removing stm32f10x_usart.o(i.USART_SendBreak), (10 bytes).
    Removing stm32f10x_usart.o(i.USART_SetAddress), (16 bytes).
    Removing stm32f10x_usart.o(i.USART_SetGuardTime), (16 bytes).
    Removing stm32f10x_usart.o(i.USART_SetPrescaler), (16 bytes).
    Removing stm32f10x_usart.o(i.USART_SmartCardCmd), (20 bytes).
    Removing stm32f10x_usart.o(i.USART_SmartCardNACKCmd), (20 bytes).
    Removing stm32f10x_usart.o(i.USART_StructInit), (22 bytes).
    Removing stm32f10x_usart.o(i.USART_WakeUpConfig), (16 bytes).
    Removing system_stm32f10x.o(.rev16_text), (4 bytes).
    Removing system_stm32f10x.o(.revsh_text), (4 bytes).
    Removing system_stm32f10x.o(.rrx_text), (6 bytes).
    Removing ft6336u.o(.constdata__ZTI7FT6336U), (8 bytes).
    Removing ft6336u.o(.constdata__ZTS7FT6336U), (9 bytes).
    Removing hardwareserial.o(.constdata__ZTI14HardwareSerial), (12 bytes).
    Removing hardwareserial.o(.constdata__ZTI6Stream), (12 bytes).
    Removing hardwareserial.o(.constdata__ZTS14HardwareSerial), (17 bytes).
    Removing hardwareserial.o(.constdata__ZTS6Stream), (8 bytes).
    Removing print.o(.constdata__ZTV5Print), (20 bytes).
    Removing print.o(.constdata__ZTI5Print), (8 bytes).
    Removing print.o(.constdata__ZTS5Print), (7 bytes).
    Removing wstring.o(i._ZN6String4initEv), (10 bytes).
    Removing wstring.o(.ARM.exidx), (8 bytes).
    Removing wstring.o(i._ZSt6strstrPcPKc), (4 bytes).
    Removing wstring.o(.ARM.exidx), (8 bytes).
    Removing wire.o(.constdata__ZTI7TwoWire), (12 bytes).
    Removing wire.o(.constdata__ZTS7TwoWire), (9 bytes).
    Removing wirebase.o(.constdata__ZTV8WireBase), (16 bytes).
    Removing wirebase.o(.constdata__ZTI8WireBase), (8 bytes).
    Removing wirebase.o(.constdata__ZTS8WireBase), (10 bytes).

1361 unused section(s) (total 31547 bytes) removed from the image.

==============================================================================

Image Symbol Table

    Local Symbols

    Symbol Name                              Value     Ov Type        Size  Object(Section)

    ../../../edgfe/lib_src/arm_exceptions.c  0x00000000   Number         0  arm_exceptions_support.o ABSOLUTE
    ../../../edgfe/lib_src/arm_exceptions.c  0x00000000   Number         0  arm_exceptions_globs.o ABSOLUTE
    ../../../edgfe/lib_src/arm_exceptions.c  0x00000000   Number         0  arm_exceptions_terminate.o ABSOLUTE
    ../../../edgfe/lib_src/arm_exceptions.c  0x00000000   Number         0  arm_exceptions_callterm.o ABSOLUTE
    ../../../edgfe/lib_src/arm_exceptions.c  0x00000000   Number         0  arm_exceptions_mem.o ABSOLUTE
    ../../../edgfe/lib_src/arm_noexceptions.c 0x00000000   Number         0  arm_begincatch_noexceptions.o ABSOLUTE
    ../../../edgfe/lib_src/delete.c          0x00000000   Number         0  delete.o ABSOLUTE
    ../../../edgfe/lib_src/pure_virt.c       0x00000000   Number         0  pure_virt.o ABSOLUTE
    ../../../edgfe/lib_src/typeinfo.c        0x00000000   Number         0  type_info_dtor.o ABSOLUTE
    ../../../edgfe/lib_src/typeinfo.c        0x00000000   Number         0  lib_rtti_impl.o ABSOLUTE
    ../clib/angel/boardlib.s                 0x00000000   Number         0  boardinit3.o ABSOLUTE
    ../clib/angel/boardlib.s                 0x00000000   Number         0  boardinit2.o ABSOLUTE
    ../clib/angel/boardlib.s                 0x00000000   Number         0  boardinit1.o ABSOLUTE
    ../clib/angel/boardlib.s                 0x00000000   Number         0  boardshut.o ABSOLUTE
    ../clib/angel/handlers.s                 0x00000000   Number         0  __scatter_zi.o ABSOLUTE
    ../clib/angel/handlers.s                 0x00000000   Number         0  __scatter_copy.o ABSOLUTE
    ../clib/angel/kernel.s                   0x00000000   Number         0  __rtentry4.o ABSOLUTE
    ../clib/angel/kernel.s                   0x00000000   Number         0  rtexit2.o ABSOLUTE
    ../clib/angel/kernel.s                   0x00000000   Number         0  rtexit.o ABSOLUTE
    ../clib/angel/kernel.s                   0x00000000   Number         0  __rtentry.o ABSOLUTE
    ../clib/angel/kernel.s                   0x00000000   Number         0  __rtentry2.o ABSOLUTE
    ../clib/angel/rt.s                       0x00000000   Number         0  rt_heap_descriptor_intlibspace.o ABSOLUTE
    ../clib/angel/rt.s                       0x00000000   Number         0  rt_heap_descriptor.o ABSOLUTE
    ../clib/angel/rt.s                       0x00000000   Number         0  aeabi_ldiv0_sigfpe.o ABSOLUTE
    ../clib/angel/rt.s                       0x00000000   Number         0  aeabi_ldiv0.o ABSOLUTE
    ../clib/angel/rt.s                       0x00000000   Number         0  rt_ctype_table.o ABSOLUTE
    ../clib/angel/rt.s                       0x00000000   Number         0  rt_eh_globals_addr_intlibspace.o ABSOLUTE
    ../clib/angel/rt.s                       0x00000000   Number         0  rt_eh_globals_addr.o ABSOLUTE
    ../clib/angel/rt.s                       0x00000000   Number         0  rt_errno_addr.o ABSOLUTE
    ../clib/angel/rt.s                       0x00000000   Number         0  rt_errno_addr_intlibspace.o ABSOLUTE
    ../clib/angel/rt.s                       0x00000000   Number         0  rt_div0.o ABSOLUTE
    ../clib/angel/rt.s                       0x00000000   Number         0  rt_raise.o ABSOLUTE
    ../clib/angel/rt.s                       0x00000000   Number         0  rt_ddtor_pointer_addr_intlibspace.o ABSOLUTE
    ../clib/angel/rt.s                       0x00000000   Number         0  rt_ddtor_pointer_addr.o ABSOLUTE
    ../clib/angel/rt.s                       0x00000000   Number         0  rt_locale_intlibspace.o ABSOLUTE
    ../clib/angel/rt.s                       0x00000000   Number         0  rt_locale.o ABSOLUTE
    ../clib/angel/scatter.s                  0x00000000   Number         0  __scatter.o ABSOLUTE
    ../clib/angel/startup.s                  0x00000000   Number         0  __main.o ABSOLUTE
    ../clib/angel/sys.s                      0x00000000   Number         0  use_no_semi.o ABSOLUTE
    ../clib/angel/sys.s                      0x00000000   Number         0  libspace.o ABSOLUTE
    ../clib/angel/sys.s                      0x00000000   Number         0  sys_stackheap_outer.o ABSOLUTE
    ../clib/angel/sys.s                      0x00000000   Number         0  indicate_semi.o ABSOLUTE
    ../clib/angel/sys.s                      0x00000000   Number         0  mutex_dummy.o ABSOLUTE
    ../clib/angel/sysapp.c                   0x00000000   Number         0  sys_exit.o ABSOLUTE
    ../clib/angel/sysapp.c                   0x00000000   Number         0  sys_command.o ABSOLUTE
    ../clib/angel/sysapp.c                   0x00000000   Number         0  sys_wrch.o ABSOLUTE
    ../clib/arm_runtime.c                    0x00000000   Number         0  init_aeabi.o ABSOLUTE
    ../clib/arm_runtime.c                    0x00000000   Number         0  init_aeabi.o ABSOLUTE
    ../clib/armsys.c                         0x00000000   Number         0  no_argv.o ABSOLUTE
    ../clib/armsys.c                         0x00000000   Number         0  _get_argv_nomalloc.o ABSOLUTE
    ../clib/armsys.c                         0x00000000   Number         0  argv_veneer.o ABSOLUTE
    ../clib/armsys.c                         0x00000000   Number         0  _get_argv.o ABSOLUTE
    ../clib/armsys.c                         0x00000000   Number         0  argv_veneer.o ABSOLUTE
    ../clib/bigflt.c                         0x00000000   Number         0  bigflt0.o ABSOLUTE
    ../clib/btod.s                           0x00000000   Number         0  btod.o ABSOLUTE
    ../clib/ctype.c                          0x00000000   Number         0  isspace.o ABSOLUTE
    ../clib/ctype.c                          0x00000000   Number         0  tolower.o ABSOLUTE
    ../clib/ctype.c                          0x00000000   Number         0  toupper.o ABSOLUTE
    ../clib/fenv.c                           0x00000000   Number         0  _rserrno.o ABSOLUTE
    ../clib/heap1.c                          0x00000000   Number         0  h1_final_mt.o ABSOLUTE
    ../clib/heap1.c                          0x00000000   Number         0  h1_final.o ABSOLUTE
    ../clib/heap1.c                          0x00000000   Number         0  h1_extend_mt.o ABSOLUTE
    ../clib/heap1.c                          0x00000000   Number         0  h1_alloc_mt.o ABSOLUTE
    ../clib/heap1.c                          0x00000000   Number         0  h1_init_mt.o ABSOLUTE
    ../clib/heap1.c                          0x00000000   Number         0  h1_alloc.o ABSOLUTE
    ../clib/heap1.c                          0x00000000   Number         0  h1_extend.o ABSOLUTE
    ../clib/heap1.c                          0x00000000   Number         0  h1_init.o ABSOLUTE
    ../clib/heap1.c                          0x00000000   Number         0  h1_realloc_mt.o ABSOLUTE
    ../clib/heap1.c                          0x00000000   Number         0  h1_free_mt.o ABSOLUTE
    ../clib/heap1.c                          0x00000000   Number         0  h1_realloc.o ABSOLUTE
    ../clib/heap1.c                          0x00000000   Number         0  h1_free.o ABSOLUTE
    ../clib/heap2.c                          0x00000000   Number         0  fdtree.o ABSOLUTE
    ../clib/heap2.c                          0x00000000   Number         0  heap2mt.o ABSOLUTE
    ../clib/heap2.c                          0x00000000   Number         0  heap2.o ABSOLUTE
    ../clib/heapalloc.c                      0x00000000   Number         0  term_alloc.o ABSOLUTE
    ../clib/heapalloc.c                      0x00000000   Number         0  maybetermalloc2.o ABSOLUTE
    ../clib/heapalloc.c                      0x00000000   Number         0  init_alloc.o ABSOLUTE
    ../clib/heapalloc.c                      0x00000000   Number         0  heapstubs.o ABSOLUTE
    ../clib/heapalloc.c                      0x00000000   Number         0  malloc.o ABSOLUTE
    ../clib/heapalloc.c                      0x00000000   Number         0  realloc.o ABSOLUTE
    ../clib/heapalloc.c                      0x00000000   Number         0  maybetermalloc1.o ABSOLUTE
    ../clib/heapalloc.c                      0x00000000   Number         0  maybetermalloc1.o ABSOLUTE
    ../clib/heapalloc.c                      0x00000000   Number         0  free.o ABSOLUTE
    ../clib/heapalloc.c                      0x00000000   Number         0  maybetermalloc2.o ABSOLUTE
    ../clib/heapalloc.c                      0x00000000   Number         0  hrguard.o ABSOLUTE
    ../clib/heapalloc.c                      0x00000000   Number         0  hguard.o ABSOLUTE
    ../clib/heapaux.c                        0x00000000   Number         0  heapauxi.o ABSOLUTE
    ../clib/heapaux.c                        0x00000000   Number         0  heapauxa.o ABSOLUTE
    ../clib/libinit.s                        0x00000000   Number         0  libinit.o ABSOLUTE
    ../clib/libinit.s                        0x00000000   Number         0  libshutdown.o ABSOLUTE
    ../clib/libinit.s                        0x00000000   Number         0  libshutdown2.o ABSOLUTE
    ../clib/libinit.s                        0x00000000   Number         0  libinit2.o ABSOLUTE
    ../clib/locale.c                         0x00000000   Number         0  _wcrtomb.o ABSOLUTE
    ../clib/locale.s                         0x00000000   Number         0  lc_ctype_c.o ABSOLUTE
    ../clib/locale.s                         0x00000000   Number         0  lc_numeric_c.o ABSOLUTE
    ../clib/longlong.s                       0x00000000   Number         0  lludiv10.o ABSOLUTE
    ../clib/longlong.s                       0x00000000   Number         0  lludivv7m.o ABSOLUTE
    ../clib/longlong.s                       0x00000000   Number         0  llsdiv.o ABSOLUTE
    ../clib/longlong.s                       0x00000000   Number         0  llshl.o ABSOLUTE
    ../clib/memcpset.s                       0x00000000   Number         0  rt_memcpy_w.o ABSOLUTE
    ../clib/memcpset.s                       0x00000000   Number         0  rt_memmove_w.o ABSOLUTE
    ../clib/memcpset.s                       0x00000000   Number         0  rt_memcpy_v6.o ABSOLUTE
    ../clib/memcpset.s                       0x00000000   Number         0  rt_memmove_v6.o ABSOLUTE
    ../clib/memcpset.s                       0x00000000   Number         0  rt_memclr.o ABSOLUTE
    ../clib/memcpset.s                       0x00000000   Number         0  strncpy.o ABSOLUTE
    ../clib/memcpset.s                       0x00000000   Number         0  strcmpv7m.o ABSOLUTE
    ../clib/memcpset.s                       0x00000000   Number         0  rt_memclr_w.o ABSOLUTE
    ../clib/misc.s                           0x00000000   Number         0  printf_stubs.o ABSOLUTE
    ../clib/printf.c                         0x00000000   Number         0  _printf_pad.o ABSOLUTE
    ../clib/printf.c                         0x00000000   Number         0  _printf_dec.o ABSOLUTE
    ../clib/printf.c                         0x00000000   Number         0  _sputc.o ABSOLUTE
    ../clib/printf.c                         0x00000000   Number         0  _snputc.o ABSOLUTE
    ../clib/printf.c                         0x00000000   Number         0  _printf_wctomb.o ABSOLUTE
    ../clib/printf.c                         0x00000000   Number         0  _printf_longlong_dec.o ABSOLUTE
    ../clib/printf.c                         0x00000000   Number         0  _printf_char_common.o ABSOLUTE
    ../clib/printf.c                         0x00000000   Number         0  __printf.o ABSOLUTE
    ../clib/printf.c                         0x00000000   Number         0  __printf_flags.o ABSOLUTE
    ../clib/printf.c                         0x00000000   Number         0  __printf_ss.o ABSOLUTE
    ../clib/printf.c                         0x00000000   Number         0  __printf_flags_ss.o ABSOLUTE
    ../clib/printf.c                         0x00000000   Number         0  __printf_wp.o ABSOLUTE
    ../clib/printf.c                         0x00000000   Number         0  _printf_oct_ll.o ABSOLUTE
    ../clib/printf.c                         0x00000000   Number         0  _printf_oct_int.o ABSOLUTE
    ../clib/printf.c                         0x00000000   Number         0  __printf_flags_wp.o ABSOLUTE
    ../clib/printf.c                         0x00000000   Number         0  __printf_ss_wp.o ABSOLUTE
    ../clib/printf.c                         0x00000000   Number         0  _printf_oct_int_ll.o ABSOLUTE
    ../clib/printf.c                         0x00000000   Number         0  _printf_hex_ll.o ABSOLUTE
    ../clib/printf.c                         0x00000000   Number         0  _printf_hex_int.o ABSOLUTE
    ../clib/printf.c                         0x00000000   Number         0  _printf_fp_infnan.o ABSOLUTE
    ../clib/printf.c                         0x00000000   Number         0  __printf_flags_ss_wp.o ABSOLUTE
    ../clib/printf.c                         0x00000000   Number         0  _printf_hex_ll_ptr.o ABSOLUTE
    ../clib/printf.c                         0x00000000   Number         0  _printf_hex_ptr.o ABSOLUTE
    ../clib/printf.c                         0x00000000   Number         0  _printf_hex_int_ptr.o ABSOLUTE
    ../clib/printf.c                         0x00000000   Number         0  __printf_nopercent.o ABSOLUTE
    ../clib/printf.c                         0x00000000   Number         0  _printf_hex_int_ll_ptr.o ABSOLUTE
    ../clib/printf.c                         0x00000000   Number         0  _printf_fp_hex.o ABSOLUTE
    ../clib/printf.c                         0x00000000   Number         0  _printf_fp_dec.o ABSOLUTE
    ../clib/printf.c                         0x00000000   Number         0  _printf_charcount.o ABSOLUTE
    ../clib/printf.c                         0x00000000   Number         0  _printf_char.o ABSOLUTE
    ../clib/printf.c                         0x00000000   Number         0  _printf_wchar.o ABSOLUTE
    ../clib/printf.c                         0x00000000   Number         0  c89vsnprintf.o ABSOLUTE
    ../clib/printf.c                         0x00000000   Number         0  _printf_intcommon.o ABSOLUTE
    ../clib/printf.c                         0x00000000   Number         0  _printf_str.o ABSOLUTE
    ../clib/printf.c                         0x00000000   Number         0  _printf_truncate.o ABSOLUTE
    ../clib/printf.c                         0x00000000   Number         0  __2sprintf.o ABSOLUTE
    ../clib/printf.c                         0x00000000   Number         0  noretval__2sprintf.o ABSOLUTE
    ../clib/printf.c                         0x00000000   Number         0  _printf_hex_int_ll.o ABSOLUTE
    ../clib/printf_percent.s                 0x00000000   Number         0  _printf_p.o ABSOLUTE
    ../clib/printf_percent.s                 0x00000000   Number         0  _printf_x.o ABSOLUTE
    ../clib/printf_percent.s                 0x00000000   Number         0  _printf_n.o ABSOLUTE
    ../clib/printf_percent.s                 0x00000000   Number         0  _printf_s.o ABSOLUTE
    ../clib/printf_percent.s                 0x00000000   Number         0  _printf_c.o ABSOLUTE
    ../clib/printf_percent.s                 0x00000000   Number         0  _printf_d.o ABSOLUTE
    ../clib/printf_percent.s                 0x00000000   Number         0  _printf_f.o ABSOLUTE
    ../clib/printf_percent.s                 0x00000000   Number         0  _printf_e.o ABSOLUTE
    ../clib/printf_percent.s                 0x00000000   Number         0  _printf_g.o ABSOLUTE
    ../clib/printf_percent.s                 0x00000000   Number         0  _printf_percent.o ABSOLUTE
    ../clib/printf_percent.s                 0x00000000   Number         0  _printf_llx.o ABSOLUTE
    ../clib/printf_percent.s                 0x00000000   Number         0  _printf_llo.o ABSOLUTE
    ../clib/printf_percent.s                 0x00000000   Number         0  _printf_a.o ABSOLUTE
    ../clib/printf_percent.s                 0x00000000   Number         0  _printf_ls.o ABSOLUTE
    ../clib/printf_percent.s                 0x00000000   Number         0  _printf_lc.o ABSOLUTE
    ../clib/printf_percent.s                 0x00000000   Number         0  _printf_l.o ABSOLUTE
    ../clib/printf_percent.s                 0x00000000   Number         0  _printf_ll.o ABSOLUTE
    ../clib/printf_percent.s                 0x00000000   Number         0  _printf_llu.o ABSOLUTE
    ../clib/printf_percent.s                 0x00000000   Number         0  _printf_lld.o ABSOLUTE
    ../clib/printf_percent.s                 0x00000000   Number         0  _printf_lli.o ABSOLUTE
    ../clib/printf_percent.s                 0x00000000   Number         0  _printf_percent_end.o ABSOLUTE
    ../clib/printf_percent.s                 0x00000000   Number         0  _printf_u.o ABSOLUTE
    ../clib/printf_percent.s                 0x00000000   Number         0  _printf_i.o ABSOLUTE
    ../clib/printf_percent.s                 0x00000000   Number         0  _printf_o.o ABSOLUTE
    ../clib/scanf.c                          0x00000000   Number         0  _strtoul.o ABSOLUTE
    ../clib/scanf.c                          0x00000000   Number         0  atol.o ABSOLUTE
    ../clib/scanf.c                          0x00000000   Number         0  scanf_hexfp.o ABSOLUTE
    ../clib/scanf.c                          0x00000000   Number         0  _sgetc.o ABSOLUTE
    ../clib/scanf.c                          0x00000000   Number         0  scanf_fp.o ABSOLUTE
    ../clib/scanf.c                          0x00000000   Number         0  _chval.o ABSOLUTE
    ../clib/scanf.c                          0x00000000   Number         0  scanf_infnan.o ABSOLUTE
    ../clib/scanf.c                          0x00000000   Number         0  strtol.o ABSOLUTE
    ../clib/scanf.c                          0x00000000   Number         0  strtod.o ABSOLUTE
    ../clib/signal.c                         0x00000000   Number         0  defsig_abrt_inner.o ABSOLUTE
    ../clib/signal.c                         0x00000000   Number         0  defsig_rtmem_inner.o ABSOLUTE
    ../clib/signal.c                         0x00000000   Number         0  defsig_cppl_inner.o ABSOLUTE
    ../clib/signal.c                         0x00000000   Number         0  defsig_fpe_formal.o ABSOLUTE
    ../clib/signal.c                         0x00000000   Number         0  defsig_fpe_inner.o ABSOLUTE
    ../clib/signal.c                         0x00000000   Number         0  defsig_abrt_formal.o ABSOLUTE
    ../clib/signal.c                         0x00000000   Number         0  defsig_fpe_outer.o ABSOLUTE
    ../clib/signal.c                         0x00000000   Number         0  defsig_general.o ABSOLUTE
    ../clib/signal.c                         0x00000000   Number         0  __raise.o ABSOLUTE
    ../clib/signal.c                         0x00000000   Number         0  defsig_abrt_outer.o ABSOLUTE
    ../clib/signal.c                         0x00000000   Number         0  defsig_stak_inner.o ABSOLUTE
    ../clib/signal.c                         0x00000000   Number         0  defsig_pvfn_inner.o ABSOLUTE
    ../clib/signal.c                         0x00000000   Number         0  defsig_pvfn_formal.o ABSOLUTE
    ../clib/signal.c                         0x00000000   Number         0  defsig_rtmem_outer.o ABSOLUTE
    ../clib/signal.c                         0x00000000   Number         0  defsig_rtmem_formal.o ABSOLUTE
    ../clib/signal.c                         0x00000000   Number         0  defsig_pvfn_outer.o ABSOLUTE
    ../clib/signal.c                         0x00000000   Number         0  defsig_exit.o ABSOLUTE
    ../clib/signal.c                         0x00000000   Number         0  defsig_rtred_inner.o ABSOLUTE
    ../clib/signal.c                         0x00000000   Number         0  defsig_other.o ABSOLUTE
    ../clib/signal.c                         0x00000000   Number         0  defsig_segv_inner.o ABSOLUTE
    ../clib/signal.s                         0x00000000   Number         0  defsig.o ABSOLUTE
    ../clib/stdlib.c                         0x00000000   Number         0  cxa_finalize.o ABSOLUTE
    ../clib/stdlib.c                         0x00000000   Number         0  aeabi_atexit.o ABSOLUTE
    ../clib/stdlib.c                         0x00000000   Number         0  abort.o ABSOLUTE
    ../clib/stdlib.c                         0x00000000   Number         0  exit.o ABSOLUTE
    ../clib/stdlib.c                         0x00000000   Number         0  atexit_aeabi.o ABSOLUTE
    ../clib/stdlib.c                         0x00000000   Number         0  rand.o ABSOLUTE
    ../clib/stdlib.c                         0x00000000   Number         0  rand.o ABSOLUTE
    ../clib/string.c                         0x00000000   Number         0  strrchr.o ABSOLUTE
    ../clib/string.c                         0x00000000   Number         0  strcpy.o ABSOLUTE
    ../clib/string.c                         0x00000000   Number         0  strstr.o ABSOLUTE
    ../clib/string.c                         0x00000000   Number         0  strncmp.o ABSOLUTE
    ../clib/string.c                         0x00000000   Number         0  strlen.o ABSOLUTE
    ../clib/string.c                         0x00000000   Number         0  strchr.o ABSOLUTE
    ../fplib/d2f.s                           0x00000000   Number         0  d2f.o ABSOLUTE
    ../fplib/daddsub.s                       0x00000000   Number         0  daddsub_clz.o ABSOLUTE
    ../fplib/dcheck1.s                       0x00000000   Number         0  dcheck1.o ABSOLUTE
    ../fplib/dcmpi.s                         0x00000000   Number         0  dcmpi.o ABSOLUTE
    ../fplib/ddiv.s                          0x00000000   Number         0  ddiv.o ABSOLUTE
    ../fplib/deqf.s                          0x00000000   Number         0  deqf.o ABSOLUTE
    ../fplib/dfix.s                          0x00000000   Number         0  dfix.o ABSOLUTE
    ../fplib/dfixll.s                        0x00000000   Number         0  dfixll.o ABSOLUTE
    ../fplib/dfixu.s                         0x00000000   Number         0  dfixu.o ABSOLUTE
    ../fplib/dflt.s                          0x00000000   Number         0  dflt_clz.o ABSOLUTE
    ../fplib/dfltll.s                        0x00000000   Number         0  dfltll_clz.o ABSOLUTE
    ../fplib/dleqf.s                         0x00000000   Number         0  dleqf.o ABSOLUTE
    ../fplib/dmul.s                          0x00000000   Number         0  dmul.o ABSOLUTE
    ../fplib/dnaninf.s                       0x00000000   Number         0  dnaninf.o ABSOLUTE
    ../fplib/dretinf.s                       0x00000000   Number         0  dretinf.o ABSOLUTE
    ../fplib/drleqf.s                        0x00000000   Number         0  drleqf.o ABSOLUTE
    ../fplib/f2d.s                           0x00000000   Number         0  f2d.o ABSOLUTE
    ../fplib/faddsub.s                       0x00000000   Number         0  faddsub_clz.o ABSOLUTE
    ../fplib/fcheck1.s                       0x00000000   Number         0  fcheck1.o ABSOLUTE
    ../fplib/fdiv.s                          0x00000000   Number         0  fdiv.o ABSOLUTE
    ../fplib/ffix.s                          0x00000000   Number         0  ffix.o ABSOLUTE
    ../fplib/ffixu.s                         0x00000000   Number         0  ffixu.o ABSOLUTE
    ../fplib/fflt.s                          0x00000000   Number         0  fflt_clz.o ABSOLUTE
    ../fplib/fmul.s                          0x00000000   Number         0  fmul.o ABSOLUTE
    ../fplib/fnaninf.s                       0x00000000   Number         0  fnaninf.o ABSOLUTE
    ../fplib/fpconst.s                       0x00000000   Number         0  fpconst.o ABSOLUTE
    ../fplib/fpinit.s                        0x00000000   Number         0  fpinit.o ABSOLUTE
    ../fplib/fretinf.s                       0x00000000   Number         0  fretinf.o ABSOLUTE
    ../fplib/istatus.s                       0x00000000   Number         0  istatus.o ABSOLUTE
    ../fplib/printf1.s                       0x00000000   Number         0  printf1.o ABSOLUTE
    ../fplib/printf2.s                       0x00000000   Number         0  printf2.o ABSOLUTE
    ../fplib/printf2a.s                      0x00000000   Number         0  printf2a.o ABSOLUTE
    ../fplib/printf2b.s                      0x00000000   Number         0  printf2b.o ABSOLUTE
    ../fplib/retnan.s                        0x00000000   Number         0  retnan.o ABSOLUTE
    ../fplib/scalbn.s                        0x00000000   Number         0  scalbn.o ABSOLUTE
    ../fplib/scalbnf.s                       0x00000000   Number         0  scalbnf.o ABSOLUTE
    ../fplib/scanf1.s                        0x00000000   Number         0  scanf1.o ABSOLUTE
    ../fplib/scanf2.s                        0x00000000   Number         0  scanf2.o ABSOLUTE
    ../fplib/scanf2a.s                       0x00000000   Number         0  scanf2a.o ABSOLUTE
    ../fplib/scanf2b.s                       0x00000000   Number         0  scanf2b.o ABSOLUTE
    ../fplib/trapv.s                         0x00000000   Number         0  trapv.o ABSOLUTE
    ../fplib/usenofp.s                       0x00000000   Number         0  usenofp.o ABSOLUTE
    ../mathlib/atof.c                        0x00000000   Number         0  atof.o ABSOLUTE
    ../mathlib/dunder.c                      0x00000000   Number         0  dunder.o ABSOLUTE
    ../mathlib/fpclassify.c                  0x00000000   Number         0  fpclassify.o ABSOLUTE
    ../mathlib/frexp.c                       0x00000000   Number         0  frexp.o ABSOLUTE
    ../mathlib/ldexp.c                       0x00000000   Number         0  ldexp_x.o ABSOLUTE
    ../mathlib/ldexp.c                       0x00000000   Number         0  ldexp.o ABSOLUTE
    ../mathlib/narrow.c                      0x00000000   Number         0  narrow.o ABSOLUTE
    ../mathlib/qnan.c                        0x00000000   Number         0  qnan.o ABSOLUTE
    ..\ArduinoAPI\Arduino.c                  0x00000000   Number         0  arduino.o ABSOLUTE
    ..\ArduinoAPI\HardwareSerial.cpp         0x00000000   Number         0  hardwareserial.o ABSOLUTE
    ..\ArduinoAPI\Print.cpp                  0x00000000   Number         0  print.o ABSOLUTE
    ..\ArduinoAPI\SPI.cpp                    0x00000000   Number         0  spi.o ABSOLUTE
    ..\ArduinoAPI\Stream.cpp                 0x00000000   Number         0  stream.o ABSOLUTE
    ..\ArduinoAPI\Tone.cpp                   0x00000000   Number         0  tone.o ABSOLUTE
    ..\ArduinoAPI\WMath.cpp                  0x00000000   Number         0  wmath.o ABSOLUTE
    ..\ArduinoAPI\WString.cpp                0x00000000   Number         0  wstring.o ABSOLUTE
    ..\ArduinoAPI\Wire.cpp                   0x00000000   Number         0  wire.o ABSOLUTE
    ..\ArduinoAPI\WireBase.cpp               0x00000000   Number         0  wirebase.o ABSOLUTE
    ..\ArduinoAPI\dtostrf.c                  0x00000000   Number         0  dtostrf.o ABSOLUTE
    ..\ArduinoAPI\itoa.c                     0x00000000   Number         0  itoa.o ABSOLUTE
    ..\CORE\delay.c                          0x00000000   Number         0  delay.o ABSOLUTE
    ..\Core\adc.c                            0x00000000   Number         0  adc.o ABSOLUTE
    ..\Core\exti.c                           0x00000000   Number         0  exti.o ABSOLUTE
    ..\Core\gpio.c                           0x00000000   Number         0  gpio.o ABSOLUTE
    ..\Core\pwm.c                            0x00000000   Number         0  pwm.o ABSOLUTE
    ..\Core\timer.c                          0x00000000   Number         0  timer.o ABSOLUTE
    ..\Libraries\FT6336U\FT6336U.cpp         0x00000000   Number         0  ft6336u.o ABSOLUTE
    ..\Libraries\LIS2DS12\LIS2DS12_ACC.cpp   0x00000000   Number         0  lis2ds12_acc.o ABSOLUTE
    ..\Libraries\MAX3010x\src\MAX30105.cpp   0x00000000   Number         0  max30105.o ABSOLUTE
    ..\Libraries\MAX3010x\src\heartRate.cpp  0x00000000   Number         0  heartrate.o ABSOLUTE
    ..\Libraries\MAX3010x\src\spo2_algorithm.cpp 0x00000000   Number         0  spo2_algorithm.o ABSOLUTE
    ..\USER\BSP\BSP_ComSlave.cpp             0x00000000   Number         0  bsp_comslave.o ABSOLUTE
    ..\USER\BSP\BSP_I2C_Scan.cpp             0x00000000   Number         0  bsp_i2c_scan.o ABSOLUTE
    ..\USER\BSP\BSP_IMU.cpp                  0x00000000   Number         0  bsp_imu.o ABSOLUTE
    ..\USER\BSP\BSP_ParticleSensor.cpp       0x00000000   Number         0  bsp_particlesensor.o ABSOLUTE
    ..\USER\BSP\BSP_TouchPad.cpp             0x00000000   Number         0  bsp_touchpad.o ABSOLUTE
    ..\USER\Basic\main.cpp                   0x00000000   Number         0  main.o ABSOLUTE
    ..\\ArduinoAPI\\Arduino.c                0x00000000   Number         0  arduino.o ABSOLUTE
    ..\\ArduinoAPI\\HardwareSerial.cpp       0x00000000   Number         0  hardwareserial.o ABSOLUTE
    ..\\ArduinoAPI\\SPI.cpp                  0x00000000   Number         0  spi.o ABSOLUTE
    ..\\ArduinoAPI\\Stream.cpp               0x00000000   Number         0  stream.o ABSOLUTE
    ..\\ArduinoAPI\\Tone.cpp                 0x00000000   Number         0  tone.o ABSOLUTE
    ..\\ArduinoAPI\\WMath.cpp                0x00000000   Number         0  wmath.o ABSOLUTE
    ..\\ArduinoAPI\\Wire.cpp                 0x00000000   Number         0  wire.o ABSOLUTE
    ..\\ArduinoAPI\\WireBase.cpp             0x00000000   Number         0  wirebase.o ABSOLUTE
    ..\\CORE\\delay.c                        0x00000000   Number         0  delay.o ABSOLUTE
    ..\\Core\\adc.c                          0x00000000   Number         0  adc.o ABSOLUTE
    ..\\Core\\exti.c                         0x00000000   Number         0  exti.o ABSOLUTE
    ..\\Core\\gpio.c                         0x00000000   Number         0  gpio.o ABSOLUTE
    ..\\Core\\pwm.c                          0x00000000   Number         0  pwm.o ABSOLUTE
    ..\\Core\\timer.c                        0x00000000   Number         0  timer.o ABSOLUTE
    ..\\Libraries\\FT6336U\\FT6336U.cpp      0x00000000   Number         0  ft6336u.o ABSOLUTE
    ..\\Libraries\\LIS2DS12\\LIS2DS12_ACC.cpp 0x00000000   Number         0  lis2ds12_acc.o ABSOLUTE
    ..\\Libraries\\MAX3010x\\src\\MAX30105.cpp 0x00000000   Number         0  max30105.o ABSOLUTE
    ..\\Libraries\\MAX3010x\\src\\heartRate.cpp 0x00000000   Number         0  heartrate.o ABSOLUTE
    ..\\Libraries\\MAX3010x\\src\\spo2_algorithm.cpp 0x00000000   Number         0  spo2_algorithm.o ABSOLUTE
    ..\\USER\\BSP\\BSP_ComSlave.cpp          0x00000000   Number         0  bsp_comslave.o ABSOLUTE
    ..\\USER\\BSP\\BSP_I2C_Scan.cpp          0x00000000   Number         0  bsp_i2c_scan.o ABSOLUTE
    ..\\USER\\BSP\\BSP_IMU.cpp               0x00000000   Number         0  bsp_imu.o ABSOLUTE
    ..\\USER\\BSP\\BSP_ParticleSensor.cpp    0x00000000   Number         0  bsp_particlesensor.o ABSOLUTE
    ..\\USER\\BSP\\BSP_TouchPad.cpp          0x00000000   Number         0  bsp_touchpad.o ABSOLUTE
    ..\\USER\\Basic\\main.cpp                0x00000000   Number         0  main.o ABSOLUTE
    E:\Keil_v5\ARM\PACK\Keil\STM32F1xx_DFP\2.3.0\Device\StdPeriph_Driver\src\misc.c 0x00000000   Number         0  misc.o ABSOLUTE
    E:\Keil_v5\ARM\PACK\Keil\STM32F1xx_DFP\2.3.0\Device\StdPeriph_Driver\src\stm32f10x_adc.c 0x00000000   Number         0  stm32f10x_adc.o ABSOLUTE
    E:\Keil_v5\ARM\PACK\Keil\STM32F1xx_DFP\2.3.0\Device\StdPeriph_Driver\src\stm32f10x_dma.c 0x00000000   Number         0  stm32f10x_dma.o ABSOLUTE
    E:\Keil_v5\ARM\PACK\Keil\STM32F1xx_DFP\2.3.0\Device\StdPeriph_Driver\src\stm32f10x_exti.c 0x00000000   Number         0  stm32f10x_exti.o ABSOLUTE
    E:\Keil_v5\ARM\PACK\Keil\STM32F1xx_DFP\2.3.0\Device\StdPeriph_Driver\src\stm32f10x_flash.c 0x00000000   Number         0  stm32f10x_flash.o ABSOLUTE
    E:\Keil_v5\ARM\PACK\Keil\STM32F1xx_DFP\2.3.0\Device\StdPeriph_Driver\src\stm32f10x_gpio.c 0x00000000   Number         0  stm32f10x_gpio.o ABSOLUTE
    E:\Keil_v5\ARM\PACK\Keil\STM32F1xx_DFP\2.3.0\Device\StdPeriph_Driver\src\stm32f10x_rcc.c 0x00000000   Number         0  stm32f10x_rcc.o ABSOLUTE
    E:\Keil_v5\ARM\PACK\Keil\STM32F1xx_DFP\2.3.0\Device\StdPeriph_Driver\src\stm32f10x_spi.c 0x00000000   Number         0  stm32f10x_spi.o ABSOLUTE
    E:\Keil_v5\ARM\PACK\Keil\STM32F1xx_DFP\2.3.0\Device\StdPeriph_Driver\src\stm32f10x_tim.c 0x00000000   Number         0  stm32f10x_tim.o ABSOLUTE
    E:\Keil_v5\ARM\PACK\Keil\STM32F1xx_DFP\2.3.0\Device\StdPeriph_Driver\src\stm32f10x_usart.c 0x00000000   Number         0  stm32f10x_usart.o ABSOLUTE
    E:\\Keil_v5\\ARM\\PACK\\Keil\\STM32F1xx_DFP\\2.3.0\\Device\\StdPeriph_Driver\\src\\misc.c 0x00000000   Number         0  misc.o ABSOLUTE
    E:\\Keil_v5\\ARM\\PACK\\Keil\\STM32F1xx_DFP\\2.3.0\\Device\\StdPeriph_Driver\\src\\stm32f10x_adc.c 0x00000000   Number         0  stm32f10x_adc.o ABSOLUTE
    E:\\Keil_v5\\ARM\\PACK\\Keil\\STM32F1xx_DFP\\2.3.0\\Device\\StdPeriph_Driver\\src\\stm32f10x_dma.c 0x00000000   Number         0  stm32f10x_dma.o ABSOLUTE
    E:\\Keil_v5\\ARM\\PACK\\Keil\\STM32F1xx_DFP\\2.3.0\\Device\\StdPeriph_Driver\\src\\stm32f10x_exti.c 0x00000000   Number         0  stm32f10x_exti.o ABSOLUTE
    E:\\Keil_v5\\ARM\\PACK\\Keil\\STM32F1xx_DFP\\2.3.0\\Device\\StdPeriph_Driver\\src\\stm32f10x_flash.c 0x00000000   Number         0  stm32f10x_flash.o ABSOLUTE
    E:\\Keil_v5\\ARM\\PACK\\Keil\\STM32F1xx_DFP\\2.3.0\\Device\\StdPeriph_Driver\\src\\stm32f10x_gpio.c 0x00000000   Number         0  stm32f10x_gpio.o ABSOLUTE
    E:\\Keil_v5\\ARM\\PACK\\Keil\\STM32F1xx_DFP\\2.3.0\\Device\\StdPeriph_Driver\\src\\stm32f10x_rcc.c 0x00000000   Number         0  stm32f10x_rcc.o ABSOLUTE
    E:\\Keil_v5\\ARM\\PACK\\Keil\\STM32F1xx_DFP\\2.3.0\\Device\\StdPeriph_Driver\\src\\stm32f10x_spi.c 0x00000000   Number         0  stm32f10x_spi.o ABSOLUTE
    E:\\Keil_v5\\ARM\\PACK\\Keil\\STM32F1xx_DFP\\2.3.0\\Device\\StdPeriph_Driver\\src\\stm32f10x_tim.c 0x00000000   Number         0  stm32f10x_tim.o ABSOLUTE
    E:\\Keil_v5\\ARM\\PACK\\Keil\\STM32F1xx_DFP\\2.3.0\\Device\\StdPeriph_Driver\\src\\stm32f10x_usart.c 0x00000000   Number         0  stm32f10x_usart.o ABSOLUTE
    RTE\Device\STM32F103TB\startup_stm32f10x_md.s 0x00000000   Number         0  startup_stm32f10x_md.o ABSOLUTE
    RTE\Device\STM32F103TB\system_stm32f10x.c 0x00000000   Number         0  system_stm32f10x.o ABSOLUTE
    RTE\\Device\\STM32F103TB\\system_stm32f10x.c 0x00000000   Number         0  system_stm32f10x.o ABSOLUTE
    dc.s                                     0x00000000   Number         0  dc.o ABSOLUTE
    RESET                                    0x08000000   Section      236  startup_stm32f10x_md.o(RESET)
    !!!main                                  0x080000ec   Section        8  __main.o(!!!main)
    !!!scatter                               0x080000f4   Section       52  __scatter.o(!!!scatter)
    !!handler_copy                           0x08000128   Section       26  __scatter_copy.o(!!handler_copy)
    !!handler_zi                             0x08000144   Section       28  __scatter_zi.o(!!handler_zi)
    .ARM.Collect$$_printf_percent$$00000000  0x08000160   Section        0  _printf_percent.o(.ARM.Collect$$_printf_percent$$00000000)
    .ARM.Collect$$_printf_percent$$00000001  0x08000160   Section        6  _printf_n.o(.ARM.Collect$$_printf_percent$$00000001)
    .ARM.Collect$$_printf_percent$$00000002  0x08000166   Section        6  _printf_p.o(.ARM.Collect$$_printf_percent$$00000002)
    .ARM.Collect$$_printf_percent$$00000003  0x0800016c   Section        6  _printf_f.o(.ARM.Collect$$_printf_percent$$00000003)
    .ARM.Collect$$_printf_percent$$00000004  0x08000172   Section        6  _printf_e.o(.ARM.Collect$$_printf_percent$$00000004)
    .ARM.Collect$$_printf_percent$$00000005  0x08000178   Section        6  _printf_g.o(.ARM.Collect$$_printf_percent$$00000005)
    .ARM.Collect$$_printf_percent$$00000006  0x0800017e   Section        6  _printf_a.o(.ARM.Collect$$_printf_percent$$00000006)
    .ARM.Collect$$_printf_percent$$00000007  0x08000184   Section       10  _printf_ll.o(.ARM.Collect$$_printf_percent$$00000007)
    .ARM.Collect$$_printf_percent$$00000008  0x0800018e   Section        6  _printf_i.o(.ARM.Collect$$_printf_percent$$00000008)
    .ARM.Collect$$_printf_percent$$00000009  0x08000194   Section        6  _printf_d.o(.ARM.Collect$$_printf_percent$$00000009)
    .ARM.Collect$$_printf_percent$$0000000A  0x0800019a   Section        6  _printf_u.o(.ARM.Collect$$_printf_percent$$0000000A)
    .ARM.Collect$$_printf_percent$$0000000B  0x080001a0   Section        6  _printf_o.o(.ARM.Collect$$_printf_percent$$0000000B)
    .ARM.Collect$$_printf_percent$$0000000C  0x080001a6   Section        6  _printf_x.o(.ARM.Collect$$_printf_percent$$0000000C)
    .ARM.Collect$$_printf_percent$$0000000D  0x080001ac   Section        6  _printf_lli.o(.ARM.Collect$$_printf_percent$$0000000D)
    .ARM.Collect$$_printf_percent$$0000000E  0x080001b2   Section        6  _printf_lld.o(.ARM.Collect$$_printf_percent$$0000000E)
    .ARM.Collect$$_printf_percent$$0000000F  0x080001b8   Section        6  _printf_llu.o(.ARM.Collect$$_printf_percent$$0000000F)
    .ARM.Collect$$_printf_percent$$00000010  0x080001be   Section        6  _printf_llo.o(.ARM.Collect$$_printf_percent$$00000010)
    .ARM.Collect$$_printf_percent$$00000011  0x080001c4   Section        6  _printf_llx.o(.ARM.Collect$$_printf_percent$$00000011)
    .ARM.Collect$$_printf_percent$$00000012  0x080001ca   Section       10  _printf_l.o(.ARM.Collect$$_printf_percent$$00000012)
    .ARM.Collect$$_printf_percent$$00000013  0x080001d4   Section        6  _printf_c.o(.ARM.Collect$$_printf_percent$$00000013)
    .ARM.Collect$$_printf_percent$$00000014  0x080001da   Section        6  _printf_s.o(.ARM.Collect$$_printf_percent$$00000014)
    .ARM.Collect$$_printf_percent$$00000015  0x080001e0   Section        6  _printf_lc.o(.ARM.Collect$$_printf_percent$$00000015)
    .ARM.Collect$$_printf_percent$$00000016  0x080001e6   Section        6  _printf_ls.o(.ARM.Collect$$_printf_percent$$00000016)
    .ARM.Collect$$_printf_percent$$00000017  0x080001ec   Section        4  _printf_percent_end.o(.ARM.Collect$$_printf_percent$$00000017)
    .ARM.Collect$$libinit$$00000000          0x080001f0   Section        2  libinit.o(.ARM.Collect$$libinit$$00000000)
    .ARM.Collect$$libinit$$00000002          0x080001f2   Section        0  libinit2.o(.ARM.Collect$$libinit$$00000002)
    .ARM.Collect$$libinit$$00000004          0x080001f2   Section        0  libinit2.o(.ARM.Collect$$libinit$$00000004)
    .ARM.Collect$$libinit$$00000005          0x080001f2   Section        8  libinit2.o(.ARM.Collect$$libinit$$00000005)
    .ARM.Collect$$libinit$$0000000A          0x080001fa   Section        0  libinit2.o(.ARM.Collect$$libinit$$0000000A)
    .ARM.Collect$$libinit$$0000000C          0x080001fa   Section        0  libinit2.o(.ARM.Collect$$libinit$$0000000C)
    .ARM.Collect$$libinit$$0000000E          0x080001fa   Section        0  libinit2.o(.ARM.Collect$$libinit$$0000000E)
    .ARM.Collect$$libinit$$0000000F          0x080001fa   Section        6  libinit2.o(.ARM.Collect$$libinit$$0000000F)
    .ARM.Collect$$libinit$$00000011          0x08000200   Section        0  libinit2.o(.ARM.Collect$$libinit$$00000011)
    .ARM.Collect$$libinit$$00000012          0x08000200   Section       12  libinit2.o(.ARM.Collect$$libinit$$00000012)
    .ARM.Collect$$libinit$$00000013          0x0800020c   Section        0  libinit2.o(.ARM.Collect$$libinit$$00000013)
    .ARM.Collect$$libinit$$00000015          0x0800020c   Section        0  libinit2.o(.ARM.Collect$$libinit$$00000015)
    .ARM.Collect$$libinit$$00000016          0x0800020c   Section       10  libinit2.o(.ARM.Collect$$libinit$$00000016)
    .ARM.Collect$$libinit$$00000017          0x08000216   Section        0  libinit2.o(.ARM.Collect$$libinit$$00000017)
    .ARM.Collect$$libinit$$00000019          0x08000216   Section        0  libinit2.o(.ARM.Collect$$libinit$$00000019)
    .ARM.Collect$$libinit$$0000001B          0x08000216   Section        0  libinit2.o(.ARM.Collect$$libinit$$0000001B)
    .ARM.Collect$$libinit$$0000001D          0x08000216   Section        0  libinit2.o(.ARM.Collect$$libinit$$0000001D)
    .ARM.Collect$$libinit$$0000001F          0x08000216   Section        0  libinit2.o(.ARM.Collect$$libinit$$0000001F)
    .ARM.Collect$$libinit$$00000021          0x08000216   Section        0  libinit2.o(.ARM.Collect$$libinit$$00000021)
    .ARM.Collect$$libinit$$00000023          0x08000216   Section        0  libinit2.o(.ARM.Collect$$libinit$$00000023)
    .ARM.Collect$$libinit$$00000025          0x08000216   Section        0  libinit2.o(.ARM.Collect$$libinit$$00000025)
    .ARM.Collect$$libinit$$0000002C          0x08000216   Section        0  libinit2.o(.ARM.Collect$$libinit$$0000002C)
    .ARM.Collect$$libinit$$0000002E          0x08000216   Section        0  libinit2.o(.ARM.Collect$$libinit$$0000002E)
    .ARM.Collect$$libinit$$00000030          0x08000216   Section        0  libinit2.o(.ARM.Collect$$libinit$$00000030)
    .ARM.Collect$$libinit$$00000031          0x08000216   Section        4  libinit2.o(.ARM.Collect$$libinit$$00000031)
    .ARM.Collect$$libinit$$00000032          0x0800021a   Section        0  libinit2.o(.ARM.Collect$$libinit$$00000032)
    .ARM.Collect$$libinit$$00000033          0x0800021a   Section        2  libinit2.o(.ARM.Collect$$libinit$$00000033)
    .ARM.Collect$$libshutdown$$00000000      0x0800021c   Section        2  libshutdown.o(.ARM.Collect$$libshutdown$$00000000)
    .ARM.Collect$$libshutdown$$00000001      0x0800021e   Section        6  libshutdown2.o(.ARM.Collect$$libshutdown$$00000001)
    .ARM.Collect$$libshutdown$$00000002      0x08000224   Section        0  libshutdown2.o(.ARM.Collect$$libshutdown$$00000002)
    .ARM.Collect$$libshutdown$$00000004      0x08000224   Section        0  libshutdown2.o(.ARM.Collect$$libshutdown$$00000004)
    .ARM.Collect$$libshutdown$$00000007      0x08000224   Section        0  libshutdown2.o(.ARM.Collect$$libshutdown$$00000007)
    .ARM.Collect$$libshutdown$$0000000A      0x08000224   Section        0  libshutdown2.o(.ARM.Collect$$libshutdown$$0000000A)
    .ARM.Collect$$libshutdown$$0000000C      0x08000224   Section        0  libshutdown2.o(.ARM.Collect$$libshutdown$$0000000C)
    .ARM.Collect$$libshutdown$$0000000F      0x08000224   Section        0  libshutdown2.o(.ARM.Collect$$libshutdown$$0000000F)
    .ARM.Collect$$libshutdown$$00000010      0x08000224   Section        2  libshutdown2.o(.ARM.Collect$$libshutdown$$00000010)
    .ARM.Collect$$rtentry$$00000000          0x08000226   Section        0  __rtentry.o(.ARM.Collect$$rtentry$$00000000)
    .ARM.Collect$$rtentry$$00000002          0x08000226   Section        0  __rtentry2.o(.ARM.Collect$$rtentry$$00000002)
    .ARM.Collect$$rtentry$$00000004          0x08000226   Section        6  __rtentry4.o(.ARM.Collect$$rtentry$$00000004)
    .ARM.Collect$$rtentry$$00000009          0x0800022c   Section        0  __rtentry2.o(.ARM.Collect$$rtentry$$00000009)
    .ARM.Collect$$rtentry$$0000000A          0x0800022c   Section        4  __rtentry2.o(.ARM.Collect$$rtentry$$0000000A)
    .ARM.Collect$$rtentry$$0000000C          0x08000230   Section        0  __rtentry2.o(.ARM.Collect$$rtentry$$0000000C)
    .ARM.Collect$$rtentry$$0000000D          0x08000230   Section        8  __rtentry2.o(.ARM.Collect$$rtentry$$0000000D)
    .ARM.Collect$$rtexit$$00000000           0x08000238   Section        2  rtexit.o(.ARM.Collect$$rtexit$$00000000)
    .ARM.Collect$$rtexit$$00000002           0x0800023a   Section        0  rtexit2.o(.ARM.Collect$$rtexit$$00000002)
    .ARM.Collect$$rtexit$$00000003           0x0800023a   Section        4  rtexit2.o(.ARM.Collect$$rtexit$$00000003)
    .ARM.Collect$$rtexit$$00000004           0x0800023e   Section        6  rtexit2.o(.ARM.Collect$$rtexit$$00000004)
    .emb_text                                0x08000244   Section        0  maybetermalloc1.o(.emb_text)
    .text                                    0x08000244   Section       64  startup_stm32f10x_md.o(.text)
    .text                                    0x08000284   Section       16  rt_ctype_table.o(.text)
    .text                                    0x08000294   Section        0  h1_free.o(.text)
    .text                                    0x080002e2   Section      238  lludivv7m.o(.text)
    .text                                    0x080003d0   Section        0  c89vsnprintf.o(.text)
    .text                                    0x08000404   Section        0  _printf_pad.o(.text)
    .text                                    0x08000454   Section        0  _printf_dec.o(.text)
    .text                                    0x080004cc   Section        0  __printf_flags_ss_wp.o(.text)
    .text                                    0x08000654   Section        0  aeabi_atexit.o(.text)
    .text                                    0x08000682   Section       68  rt_memclr.o(.text)
    .text                                    0x080006c8   Section      128  strcmpv7m.o(.text)
    .text                                    0x08000748   Section        0  heapauxi.o(.text)
    .text                                    0x08000750   Section        0  init_aeabi.o(.text)
    .text                                    0x08000774   Section        8  rt_heap_descriptor_intlibspace.o(.text)
    .text                                    0x0800077c   Section        8  rt_locale_intlibspace.o(.text)
    .text                                    0x08000784   Section        8  rt_ddtor_pointer_addr_intlibspace.o(.text)
    .text                                    0x0800078c   Section        0  hguard.o(.text)
    .text                                    0x08000790   Section        0  init_alloc.o(.text)
    .text                                    0x0800081a   Section        0  h1_alloc.o(.text)
    .text                                    0x08000878   Section        0  _printf_truncate.o(.text)
    .text                                    0x0800089c   Section        0  _printf_str.o(.text)
    .text                                    0x080008ee   Section        0  _printf_intcommon.o(.text)
    .text                                    0x080009a0   Section        0  _printf_charcount.o(.text)
    .text                                    0x080009c8   Section        0  _printf_fp_dec.o(.text)
    _fp_digits                               0x080009cb   Thumb Code   432  _printf_fp_dec.o(.text)
    .text                                    0x08000de8   Section        0  _printf_char_common.o(.text)
    _printf_input_char                       0x08000de9   Thumb Code    10  _printf_char_common.o(.text)
    .text                                    0x08000e18   Section        0  _sputc.o(.text)
    .text                                    0x08000e22   Section        0  _snputc.o(.text)
    .text                                    0x08000e34   Section        0  _printf_wctomb.o(.text)
    .text                                    0x08000ef0   Section        0  _printf_longlong_dec.o(.text)
    .text                                    0x08000f6c   Section        0  _printf_oct_int_ll.o(.text)
    _printf_longlong_oct_internal            0x08000f6d   Thumb Code     0  _printf_oct_int_ll.o(.text)
    .text                                    0x08000fdc   Section        0  _printf_hex_int_ll_ptr.o(.text)
    _printf_hex_common                       0x08000fdd   Thumb Code     0  _printf_hex_int_ll_ptr.o(.text)
    .text                                    0x08001070   Section        0  cxa_finalize.o(.text)
    .text                                    0x080010b2   Section       78  rt_memclr_w.o(.text)
    .text                                    0x08001100   Section        8  libspace.o(.text)
    .text                                    0x08001108   Section        0  h1_init.o(.text)
    .text                                    0x08001116   Section        0  h1_extend.o(.text)
    .text                                    0x0800114a   Section      138  lludiv10.o(.text)
    .text                                    0x080011d4   Section        0  _printf_fp_infnan.o(.text)
    .text                                    0x08001254   Section        0  _printf_char.o(.text)
    .text                                    0x08001280   Section        0  _printf_wchar.o(.text)
    .text                                    0x080012ac   Section        0  bigflt0.o(.text)
    .text                                    0x08001390   Section        0  _wcrtomb.o(.text)
    .text                                    0x080013d0   Section        0  defsig_exit.o(.text)
    .text                                    0x080013da   Section        0  defsig_rtmem_outer.o(.text)
    .text                                    0x080013e8   Section        0  sys_exit.o(.text)
    .text                                    0x080013f4   Section       74  sys_stackheap_outer.o(.text)
    .text                                    0x0800143e   Section        0  exit.o(.text)
    .text                                    0x08001450   Section        0  defsig_general.o(.text)
    .text                                    0x08001484   Section        0  defsig_rtmem_inner.o(.text)
    .text                                    0x080014d4   Section        0  sys_wrch.o(.text)
    .text                                    0x080014e2   Section        2  use_no_semi.o(.text)
    .text                                    0x080014e4   Section        0  indicate_semi.o(.text)
    CL$$btod_d2e                             0x080014e4   Section       62  btod.o(CL$$btod_d2e)
    CL$$btod_d2e_denorm_low                  0x08001522   Section       70  btod.o(CL$$btod_d2e_denorm_low)
    CL$$btod_d2e_norm_op1                    0x08001568   Section       96  btod.o(CL$$btod_d2e_norm_op1)
    CL$$btod_div_common                      0x080015c8   Section      824  btod.o(CL$$btod_div_common)
    CL$$btod_e2e                             0x08001900   Section      220  btod.o(CL$$btod_e2e)
    CL$$btod_ediv                            0x080019dc   Section       42  btod.o(CL$$btod_ediv)
    CL$$btod_emul                            0x08001a06   Section       42  btod.o(CL$$btod_emul)
    CL$$btod_mult_common                     0x08001a30   Section      580  btod.o(CL$$btod_mult_common)
    i.ADC_Cmd                                0x08001c74   Section        0  stm32f10x_adc.o(i.ADC_Cmd)
    i.ADC_DMA_Register                       0x08001c88   Section        0  adc.o(i.ADC_DMA_Register)
    i.ADC_DMA_SearchChannel                  0x08001d24   Section        0  adc.o(i.ADC_DMA_SearchChannel)
    ADC_DMA_SearchChannel                    0x08001d25   Thumb Code    34  adc.o(i.ADC_DMA_SearchChannel)
    i.ADC_DeInit                             0x08001d50   Section        0  stm32f10x_adc.o(i.ADC_DeInit)
    i.ADC_GetCalibrationStatus               0x08001d94   Section        0  stm32f10x_adc.o(i.ADC_GetCalibrationStatus)
    i.ADC_GetResetCalibrationStatus          0x08001da2   Section        0  stm32f10x_adc.o(i.ADC_GetResetCalibrationStatus)
    i.ADC_Init                               0x08001db0   Section        0  stm32f10x_adc.o(i.ADC_Init)
    i.ADC_ResetCalibration                   0x08001df8   Section        0  stm32f10x_adc.o(i.ADC_ResetCalibration)
    i.ADC_StartCalibration                   0x08001e02   Section        0  stm32f10x_adc.o(i.ADC_StartCalibration)
    i.ADCx_Init                              0x08001e0c   Section        0  adc.o(i.ADCx_Init)
    i.Delay_Init                             0x08001ea4   Section        0  delay.o(i.Delay_Init)
    i.EXTI0_IRQHandler                       0x08001ee8   Section        0  exti.o(i.EXTI0_IRQHandler)
    i.EXTI15_10_IRQHandler                   0x08001f0c   Section        0  exti.o(i.EXTI15_10_IRQHandler)
    i.EXTI1_IRQHandler                       0x08001fac   Section        0  exti.o(i.EXTI1_IRQHandler)
    i.EXTI2_IRQHandler                       0x08001fd0   Section        0  exti.o(i.EXTI2_IRQHandler)
    i.EXTI3_IRQHandler                       0x08001ff4   Section        0  exti.o(i.EXTI3_IRQHandler)
    i.EXTI4_IRQHandler                       0x08002018   Section        0  exti.o(i.EXTI4_IRQHandler)
    i.EXTI9_5_IRQHandler                     0x0800203c   Section        0  exti.o(i.EXTI9_5_IRQHandler)
    i.EXTI_ClearITPendingBit                 0x080020b8   Section        0  stm32f10x_exti.o(i.EXTI_ClearITPendingBit)
    i.EXTI_GetITStatus                       0x080020c4   Section        0  stm32f10x_exti.o(i.EXTI_GetITStatus)
    i.GPIO_Init                              0x080020e4   Section        0  stm32f10x_gpio.o(i.GPIO_Init)
    i.GPIO_JTAG_Disable                      0x08002188   Section        0  gpio.o(i.GPIO_JTAG_Disable)
    i.GPIO_PinRemapConfig                    0x080021a4   Section        0  stm32f10x_gpio.o(i.GPIO_PinRemapConfig)
    i.GPIOx_Init                             0x080021fc   Section        0  gpio.o(i.GPIOx_Init)
    i.NVIC_Init                              0x08002290   Section        0  misc.o(i.NVIC_Init)
    i.NVIC_PriorityGroupConfig               0x080022f4   Section        0  misc.o(i.NVIC_PriorityGroupConfig)
    i.PWM_Init                               0x08002308   Section        0  pwm.o(i.PWM_Init)
    i.RCC_ADCCLKConfig                       0x08002360   Section        0  stm32f10x_rcc.o(i.RCC_ADCCLKConfig)
    i.RCC_APB1PeriphClockCmd                 0x08002374   Section        0  stm32f10x_rcc.o(i.RCC_APB1PeriphClockCmd)
    i.RCC_APB2PeriphClockCmd                 0x0800238c   Section        0  stm32f10x_rcc.o(i.RCC_APB2PeriphClockCmd)
    i.RCC_APB2PeriphResetCmd                 0x080023a4   Section        0  stm32f10x_rcc.o(i.RCC_APB2PeriphResetCmd)
    i.RCC_GetClocksFreq                      0x080023bc   Section        0  stm32f10x_rcc.o(i.RCC_GetClocksFreq)
    i.SetSysClockTo72                        0x0800244c   Section        0  system_stm32f10x.o(i.SetSysClockTo72)
    SetSysClockTo72                          0x0800244d   Thumb Code   160  system_stm32f10x.o(i.SetSysClockTo72)
    i.SysTick_Handler                        0x080024f4   Section        0  delay.o(i.SysTick_Handler)
    i.SystemCoreClockUpdate                  0x08002504   Section        0  system_stm32f10x.o(i.SystemCoreClockUpdate)
    i.SystemInit                             0x08002568   Section        0  system_stm32f10x.o(i.SystemInit)
    i.TIM1_UP_IRQHandler                     0x080025b8   Section        0  timer.o(i.TIM1_UP_IRQHandler)
    i.TIM2_IRQHandler                        0x080025e8   Section        0  timer.o(i.TIM2_IRQHandler)
    i.TIM3_IRQHandler                        0x08002614   Section        0  timer.o(i.TIM3_IRQHandler)
    i.TIM4_IRQHandler                        0x08002644   Section        0  timer.o(i.TIM4_IRQHandler)
    i.TIM_ClearITPendingBit                  0x08002674   Section        0  stm32f10x_tim.o(i.TIM_ClearITPendingBit)
    i.TIM_Cmd                                0x0800267a   Section        0  stm32f10x_tim.o(i.TIM_Cmd)
    i.TIM_CtrlPWMOutputs                     0x0800268e   Section        0  stm32f10x_tim.o(i.TIM_CtrlPWMOutputs)
    i.TIM_GetITStatus                        0x080026a4   Section        0  stm32f10x_tim.o(i.TIM_GetITStatus)
    i.TIM_OC1Init                            0x080026bc   Section        0  stm32f10x_tim.o(i.TIM_OC1Init)
    i.TIM_OC1PreloadConfig                   0x0800273c   Section        0  stm32f10x_tim.o(i.TIM_OC1PreloadConfig)
    i.TIM_OC2Init                            0x08002748   Section        0  stm32f10x_tim.o(i.TIM_OC2Init)
    i.TIM_OC2PreloadConfig                   0x080027c8   Section        0  stm32f10x_tim.o(i.TIM_OC2PreloadConfig)
    i.TIM_OC3Init                            0x080027dc   Section        0  stm32f10x_tim.o(i.TIM_OC3Init)
    i.TIM_OC3PreloadConfig                   0x08002858   Section        0  stm32f10x_tim.o(i.TIM_OC3PreloadConfig)
    i.TIM_OC4Init                            0x08002864   Section        0  stm32f10x_tim.o(i.TIM_OC4Init)
    i.TIM_OC4PreloadConfig                   0x080028c8   Section        0  stm32f10x_tim.o(i.TIM_OC4PreloadConfig)
    i.TIM_TimeBaseInit                       0x080028dc   Section        0  stm32f10x_tim.o(i.TIM_TimeBaseInit)
    i.TIMx_OCxInit                           0x08002978   Section        0  pwm.o(i.TIMx_OCxInit)
    i.Timer_ClockCmd                         0x08002af0   Section        0  timer.o(i.Timer_ClockCmd)
    i.USART1_IRQHandler                      0x08002bec   Section        0  hardwareserial.o(i.USART1_IRQHandler)
    i.USART2_IRQHandler                      0x08002bf8   Section        0  hardwareserial.o(i.USART2_IRQHandler)
    i.USART3_IRQHandler                      0x08002c04   Section        0  hardwareserial.o(i.USART3_IRQHandler)
    i.USART_ClearITPendingBit                0x08002c10   Section        0  stm32f10x_usart.o(i.USART_ClearITPendingBit)
    i.USART_Cmd                              0x08002c1c   Section        0  stm32f10x_usart.o(i.USART_Cmd)
    i.USART_GetFlagStatus                    0x08002c30   Section        0  stm32f10x_usart.o(i.USART_GetFlagStatus)
    i.USART_GetITStatus                      0x08002c3e   Section        0  stm32f10x_usart.o(i.USART_GetITStatus)
    i.USART_ITConfig                         0x08002c7c   Section        0  stm32f10x_usart.o(i.USART_ITConfig)
    i.USART_Init                             0x08002cac   Section        0  stm32f10x_usart.o(i.USART_Init)
    i.USART_ReceiveData                      0x08002d58   Section        0  stm32f10x_usart.o(i.USART_ReceiveData)
    i.USART_SendData                         0x08002d60   Section        0  stm32f10x_usart.o(i.USART_SendData)
    i._Z10IMU_Updatev                        0x08002d68   Section        0  bsp_imu.o(i._Z10IMU_Updatev)
    i._Z12checkForBeati                      0x08002dc4   Section        0  heartrate.o(i._Z12checkForBeati)
    i._Z13ComSlave_Initv                     0x08002e54   Section        0  bsp_comslave.o(i._Z13ComSlave_Initv)
    i._Z13TouchPad_Initv                     0x08002e64   Section        0  bsp_touchpad.o(i._Z13TouchPad_Initv)
    i._Z14CS_StateUpdatev                    0x08002e88   Section        0  bsp_comslave.o(i._Z14CS_StateUpdatev)
    CS_StateUpdate()                         0x08002e89   Thumb Code   142  bsp_comslave.o(i._Z14CS_StateUpdatev)
    i._Z15ComSlave_Updatev                   0x08002f24   Section        0  bsp_comslave.o(i._Z15ComSlave_Updatev)
    i._Z15TouchPad_Updatev                   0x08002f28   Section        0  bsp_touchpad.o(i._Z15TouchPad_Updatev)
    i._Z16IMU_NodeCallbackPvh                0x08002f6c   Section        0  bsp_imu.o(i._Z16IMU_NodeCallbackPvh)
    IMU_NodeCallback(void*, unsigned char)   0x08002f6d   Thumb Code    18  bsp_imu.o(i._Z16IMU_NodeCallbackPvh)
    i._Z16lowPassFIRFilters                  0x08002f84   Section        0  heartrate.o(i._Z16lowPassFIRFilters)
    i._Z18LIS2DS12_ACC_W_LIRPv18LIS2DS12_ACC_LIR_t 0x08002fe8   Section        0  lis2ds12_acc.o(i._Z18LIS2DS12_ACC_W_LIRPv18LIS2DS12_ACC_LIR_t)
    i._Z18LIS2DS12_ACC_W_ODRPv18LIS2DS12_ACC_ODR_t 0x0800301e   Section        0  lis2ds12_acc.o(i._Z18LIS2DS12_ACC_W_ODRPv18LIS2DS12_ACC_ODR_t)
    i._Z18averageDCEstimatorPit              0x08003054   Section        0  heartrate.o(i._Z18averageDCEstimatorPit)
    i._Z19ParticleSensor_Initv               0x08003068   Section        0  bsp_particlesensor.o(i._Z19ParticleSensor_Initv)
    i._Z20LIS2DS12_ACC_ReadRegPvhPht         0x08003180   Section        0  lis2ds12_acc.o(i._Z20LIS2DS12_ACC_ReadRegPvhPht)
    i._Z21LIS2DS12_ACC_W_PEDO4GPv21LIS2DS12_ACC_PEDO4G_t 0x080031d0   Section        0  lis2ds12_acc.o(i._Z21LIS2DS12_ACC_W_PEDO4GPv21LIS2DS12_ACC_PEDO4G_t)
    i._Z21LIS2DS12_ACC_WriteRegPvhPht        0x08003208   Section        0  lis2ds12_acc.o(i._Z21LIS2DS12_ACC_WriteRegPvhPht)
    i._Z21ParticleSensor_Updatev             0x08003248   Section        0  bsp_particlesensor.o(i._Z21ParticleSensor_Updatev)
    i._Z21TouchPad_NodeCallbackPvh           0x08003304   Section        0  bsp_touchpad.o(i._Z21TouchPad_NodeCallbackPvh)
    TouchPad_NodeCallback(void*, unsigned char) 0x08003305   Thumb Code    22  bsp_touchpad.o(i._Z21TouchPad_NodeCallbackPvh)
    i._Z22LIS2DS12_ACC_W_SC_MTHSPvh          0x08003320   Section        0  lis2ds12_acc.o(i._Z22LIS2DS12_ACC_W_SC_MTHSPvh)
    i._Z23LIS2DS12_ACC_W_FUNC_CFGPv23LIS2DS12_ACC_FUNC_CFG_t 0x08003358   Section        0  lis2ds12_acc.o(i._Z23LIS2DS12_ACC_W_FUNC_CFGPv23LIS2DS12_ACC_FUNC_CFG_t)
    i._Z24LIS2DS12_ACC_W_FullScalePv17LIS2DS12_ACC_FS_t 0x0800338e   Section        0  lis2ds12_acc.o(i._Z24LIS2DS12_ACC_W_FullScalePv17LIS2DS12_ACC_FS_t)
    i._Z24LIS2DS12_ACC_W_RST_NSTEPPv24LIS2DS12_ACC_RST_NSTEP_t 0x080033c4   Section        0  lis2ds12_acc.o(i._Z24LIS2DS12_ACC_W_RST_NSTEPPv24LIS2DS12_ACC_RST_NSTEP_t)
    i._Z25LIS2DS12_ACC_R_SOFT_RESETPvP25LIS2DS12_ACC_SOFT_RESET_t 0x080033fa   Section        0  lis2ds12_acc.o(i._Z25LIS2DS12_ACC_R_SOFT_RESETPvP25LIS2DS12_ACC_SOFT_RESET_t)
    i._Z25LIS2DS12_ACC_W_SOFT_RESETPv25LIS2DS12_ACC_SOFT_RESET_t 0x08003418   Section        0  lis2ds12_acc.o(i._Z25LIS2DS12_ACC_W_SOFT_RESETPv25LIS2DS12_ACC_SOFT_RESET_t)
    i._Z26LIS2DS12_ACC_R_STEP_DETECTPvP26LIS2DS12_ACC_STEP_DETECT_t 0x0800344e   Section        0  lis2ds12_acc.o(i._Z26LIS2DS12_ACC_R_STEP_DETECTPvP26LIS2DS12_ACC_STEP_DETECT_t)
    i._Z26LIS2DS12_ACC_W_STEP_CNT_ONPv26LIS2DS12_ACC_STEP_CNT_ON_t 0x0800346c   Section        0  lis2ds12_acc.o(i._Z26LIS2DS12_ACC_W_STEP_CNT_ONPv26LIS2DS12_ACC_STEP_CNT_ON_t)
    i._Z27ParticleSensor_NodeCallbackPvh     0x080034a4   Section        0  bsp_particlesensor.o(i._Z27ParticleSensor_NodeCallbackPvh)
    ParticleSensor_NodeCallback(void*, unsigned char) 0x080034a5   Thumb Code    18  bsp_particlesensor.o(i._Z27ParticleSensor_NodeCallbackPvh)
    i._Z28LIS2DS12_ACC_Get_StepCounterPvPh   0x080034bc   Section        0  lis2ds12_acc.o(i._Z28LIS2DS12_ACC_Get_StepCounterPvPh)
    i._Z28LIS2DS12_ACC_W_INT2_STEP_DETPv28LIS2DS12_ACC_INT2_STEP_DET_t 0x080034fc   Section        0  lis2ds12_acc.o(i._Z28LIS2DS12_ACC_W_INT2_STEP_DETPv28LIS2DS12_ACC_INT2_STEP_DET_t)
    i._Z35ComSlave_ReqExecuteUserCallbackNodePK21ComSlave_UserCallback 0x08003534   Section        0  bsp_comslave.o(i._Z35ComSlave_ReqExecuteUserCallbackNodePK21ComSlave_UserCallback)
    i._Z4loopv                               0x08003550   Section        0  main.o(i._Z4loopv)
    i._Z5setupv                              0x080035b8   Section        0  main.o(i._Z5setupv)
    i._Z8I2C_Scanb                           0x080035f8   Section        0  bsp_i2c_scan.o(i._Z8I2C_Scanb)
    i._Z8IMU_Initv                           0x0800370c   Section        0  bsp_imu.o(i._Z8IMU_Initv)
    i._ZN14HardwareSerial10IRQHandlerEv      0x08003824   Section        0  hardwareserial.o(i._ZN14HardwareSerial10IRQHandlerEv)
    i._ZN14HardwareSerial5beginEj            0x0800386c   Section        0  hardwareserial.o(i._ZN14HardwareSerial5beginEj)
    i._ZN14HardwareSerial5beginEj13SERIAL_Config 0x08003872   Section        0  hardwareserial.o(i._ZN14HardwareSerial5beginEj13SERIAL_Config)
    i._ZN14HardwareSerial5beginEj13SERIAL_Confighh 0x08003880   Section        0  hardwareserial.o(i._ZN14HardwareSerial5beginEj13SERIAL_Confighh)
    i._ZN14HardwareSerial5writeEh            0x08003998   Section        0  hardwareserial.o(i._ZN14HardwareSerial5writeEh)
    i._ZN14HardwareSerialC1EP13USART_TypeDef 0x080039b8   Section        0  hardwareserial.o(i._ZN14HardwareSerialC1EP13USART_TypeDef)
    i._ZN5Print11printNumberEyh              0x080039d4   Section        0  print.o(i._ZN5Print11printNumberEyh)
    i._ZN5Print5printEPKc                    0x08003a38   Section        0  print.o(i._ZN5Print5printEPKc)
    i._ZN5Print5printEc                      0x08003a3e   Section        0  print.o(i._ZN5Print5printEc)
    i._ZN5Print5printEhi                     0x08003a44   Section        0  print.o(i._ZN5Print5printEhi)
    i._ZN5Print5printEyi                     0x08003a52   Section        0  print.o(i._ZN5Print5printEyi)
    i._ZN5Print5writeEPKc                    0x08003a70   Section        0  print.o(i._ZN5Print5writeEPKc)
    i._ZN5Print5writeEPKvj                   0x08003a90   Section        0  print.o(i._ZN5Print5writeEPKvj)
    i._ZN5Print6printfEPKcz                  0x08003ab8   Section        0  print.o(i._ZN5Print6printfEPKcz)
    i._ZN5Print7printlnEPKc                  0x08003ae0   Section        0  print.o(i._ZN5Print7printlnEPKc)
    i._ZN5Print7printlnEhi                   0x08003af4   Section        0  print.o(i._ZN5Print7printlnEhi)
    i._ZN5Print7printlnEv                    0x08003b08   Section        0  print.o(i._ZN5Print7printlnEv)
    i._ZN7FT6336U13read_touch1_xEv           0x08003b20   Section        0  ft6336u.o(i._ZN7FT6336U13read_touch1_xEv)
    i._ZN7FT6336U13read_touch1_yEv           0x08003b40   Section        0  ft6336u.o(i._ZN7FT6336U13read_touch1_yEv)
    i._ZN7FT6336U17read_touch1_eventEv       0x08003b60   Section        0  ft6336u.o(i._ZN7FT6336U17read_touch1_eventEv)
    i._ZN7FT6336U8readByteEh                 0x08003b6c   Section        0  ft6336u.o(i._ZN7FT6336U8readByteEh)
    i._ZN7FT6336UC1Ev                        0x08003bb0   Section        0  ft6336u.o(i._ZN7FT6336UC1Ev)
    i._ZN7FT6336UD1Ev                        0x08003bbc   Section        0  ft6336u.o(i._ZN7FT6336UD1Ev)
    i._ZN7TwoWire11i2c_get_ackEv             0x08003bbe   Section        0  wire.o(i._ZN7TwoWire11i2c_get_ackEv)
    i._ZN7TwoWire12i2c_send_ackEv            0x08003bf4   Section        0  wire.o(i._ZN7TwoWire12i2c_send_ackEv)
    i._ZN7TwoWire12i2c_shift_inEv            0x08003c12   Section        0  wire.o(i._ZN7TwoWire12i2c_shift_inEv)
    i._ZN7TwoWire13i2c_send_nackEv           0x08003c4c   Section        0  wire.o(i._ZN7TwoWire13i2c_send_nackEv)
    i._ZN7TwoWire13i2c_shift_outEh           0x08003c6a   Section        0  wire.o(i._ZN7TwoWire13i2c_shift_outEh)
    i._ZN7TwoWire5beginEh                    0x08003ca8   Section        0  wire.o(i._ZN7TwoWire5beginEh)
    i._ZN7TwoWire7processEv                  0x08003ce2   Section        0  wire.o(i._ZN7TwoWire7processEv)
    i._ZN7TwoWire7set_sclEb                  0x08003d8a   Section        0  wire.o(i._ZN7TwoWire7set_sclEb)
    i._ZN7TwoWire7set_sdaEb                  0x08003db4   Section        0  wire.o(i._ZN7TwoWire7set_sdaEb)
    i._ZN7TwoWire8i2c_stopEv                 0x08003dce   Section        0  wire.o(i._ZN7TwoWire8i2c_stopEv)
    i._ZN7TwoWire9i2c_startEv                0x08003dec   Section        0  wire.o(i._ZN7TwoWire9i2c_startEv)
    i._ZN7TwoWireC1Ehhh                      0x08003e04   Section        0  wire.o(i._ZN7TwoWireC1Ehhh)
    i._ZN7TwoWireD1Ev                        0x08003e1c   Section        0  wire.o(i._ZN7TwoWireD1Ev)
    i._ZN8MAX3010510enableSlotEhh            0x08003e30   Section        0  max30105.o(i._ZN8MAX3010510enableSlotEhh)
    i._ZN8MAX3010510readPartIDEv             0x08003e62   Section        0  max30105.o(i._ZN8MAX3010510readPartIDEv)
    i._ZN8MAX3010510setLEDModeEh             0x08003e6a   Section        0  max30105.o(i._ZN8MAX3010510setLEDModeEh)
    i._ZN8MAX3010511setADCRangeEh            0x08003e74   Section        0  max30105.o(i._ZN8MAX3010511setADCRangeEh)
    i._ZN8MAX3010513readRegister8Ehh         0x08003e7e   Section        0  max30105.o(i._ZN8MAX3010513readRegister8Ehh)
    i._ZN8MAX3010513setPulseWidthEh          0x08003eba   Section        0  max30105.o(i._ZN8MAX3010513setPulseWidthEh)
    i._ZN8MAX3010513setSampleRateEh          0x08003ec4   Section        0  max30105.o(i._ZN8MAX3010513setSampleRateEh)
    i._ZN8MAX3010514getReadPointerEv         0x08003ece   Section        0  max30105.o(i._ZN8MAX3010514getReadPointerEv)
    i._ZN8MAX3010514readRevisionIDEv         0x08003ed6   Section        0  max30105.o(i._ZN8MAX3010514readRevisionIDEv)
    i._ZN8MAX3010514setFIFOAverageEh         0x08003ee6   Section        0  max30105.o(i._ZN8MAX3010514setFIFOAverageEh)
    i._ZN8MAX3010514writeRegister8Ehhh       0x08003ef0   Section        0  max30105.o(i._ZN8MAX3010514writeRegister8Ehhh)
    i._ZN8MAX3010515getWritePointerEv        0x08003f18   Section        0  max30105.o(i._ZN8MAX3010515getWritePointerEv)
    i._ZN8MAX3010518enableFIFORolloverEv     0x08003f20   Section        0  max30105.o(i._ZN8MAX3010518enableFIFORolloverEv)
    i._ZN8MAX3010519setPulseAmplitudeIREh    0x08003f2a   Section        0  max30105.o(i._ZN8MAX3010519setPulseAmplitudeIREh)
    i._ZN8MAX3010520setPulseAmplitudeRedEh   0x08003f34   Section        0  max30105.o(i._ZN8MAX3010520setPulseAmplitudeRedEh)
    i._ZN8MAX3010522setPulseAmplitudeGreenEh 0x08003f3e   Section        0  max30105.o(i._ZN8MAX3010522setPulseAmplitudeGreenEh)
    i._ZN8MAX3010526setPulseAmplitudeProximityEh 0x08003f48   Section        0  max30105.o(i._ZN8MAX3010526setPulseAmplitudeProximityEh)
    i._ZN8MAX301055beginER7TwoWirejh         0x08003f52   Section        0  max30105.o(i._ZN8MAX301055beginER7TwoWirejh)
    i._ZN8MAX301055checkEv                   0x08003f88   Section        0  max30105.o(i._ZN8MAX301055checkEv)
    i._ZN8MAX301055getIREv                   0x080040be   Section        0  max30105.o(i._ZN8MAX301055getIREv)
    i._ZN8MAX301055setupEhhhiii              0x080040d8   Section        0  max30105.o(i._ZN8MAX301055setupEhhhiii)
    i._ZN8MAX301057bitMaskEhhh               0x08004244   Section        0  max30105.o(i._ZN8MAX301057bitMaskEhhh)
    i._ZN8MAX301059clearFIFOEv               0x0800426c   Section        0  max30105.o(i._ZN8MAX301059clearFIFOEv)
    i._ZN8MAX301059safeCheckEh               0x08004296   Section        0  max30105.o(i._ZN8MAX301059safeCheckEh)
    i._ZN8MAX301059softResetEv               0x080042c2   Section        0  max30105.o(i._ZN8MAX301059softResetEv)
    i._ZN8MAX30105C1Ev                       0x080042f8   Section        0  max30105.o(i._ZN8MAX30105C1Ev)
    i._ZN8WireBase11requestFromEhi           0x080042fa   Section        0  wirebase.o(i._ZN8WireBase11requestFromEhi)
    i._ZN8WireBase11requestFromEii           0x08004334   Section        0  wirebase.o(i._ZN8WireBase11requestFromEii)
    i._ZN8WireBase15endTransmissionEv        0x0800433a   Section        0  wirebase.o(i._ZN8WireBase15endTransmissionEv)
    i._ZN8WireBase17beginTransmissionEh      0x0800435a   Section        0  wirebase.o(i._ZN8WireBase17beginTransmissionEh)
    i._ZN8WireBase17beginTransmissionEi      0x08004370   Section        0  wirebase.o(i._ZN8WireBase17beginTransmissionEi)
    i._ZN8WireBase4readEv                    0x08004376   Section        0  wirebase.o(i._ZN8WireBase4readEv)
    i._ZN8WireBase5writeEh                   0x080043b0   Section        0  wirebase.o(i._ZN8WireBase5writeEh)
    i._ZN8WireBase8setClockEj                0x080043d8   Section        0  wirebase.o(i._ZN8WireBase8setClockEj)
    i._ZN8WireBase9availableEv               0x080043da   Section        0  wirebase.o(i._ZN8WireBase9availableEv)
    i.__ARM_fpclassify                       0x080043e8   Section        0  fpclassify.o(i.__ARM_fpclassify)
    i.__NVIC_SetPriority                     0x08004410   Section        0  delay.o(i.__NVIC_SetPriority)
    __NVIC_SetPriority                       0x08004411   Thumb Code    32  delay.o(i.__NVIC_SetPriority)
    i.__sti___16_BSP_TouchPad_cpp_880b6338   0x08004430   Section        0  bsp_touchpad.o(i.__sti___16_BSP_TouchPad_cpp_880b6338)
    __sti___16_BSP_TouchPad_cpp_880b6338     0x08004431   Thumb Code    20  bsp_touchpad.o(i.__sti___16_BSP_TouchPad_cpp_880b6338)
    i.__sti___18_HardwareSerial_cpp_cfa1b6a6 0x08004450   Section        0  hardwareserial.o(i.__sti___18_HardwareSerial_cpp_cfa1b6a6)
    __sti___18_HardwareSerial_cpp_cfa1b6a6   0x08004451   Thumb Code    32  hardwareserial.o(i.__sti___18_HardwareSerial_cpp_cfa1b6a6)
    i.__sti___22_BSP_ParticleSensor_cpp_rateSpot 0x08004484   Section        0  bsp_particlesensor.o(i.__sti___22_BSP_ParticleSensor_cpp_rateSpot)
    __sti___22_BSP_ParticleSensor_cpp_rateSpot 0x08004485   Thumb Code     6  bsp_particlesensor.o(i.__sti___22_BSP_ParticleSensor_cpp_rateSpot)
    i.__sti___7_SPI_cpp_ce5662b4             0x08004490   Section        0  spi.o(i.__sti___7_SPI_cpp_ce5662b4)
    __sti___7_SPI_cpp_ce5662b4               0x08004491   Thumb Code    20  spi.o(i.__sti___7_SPI_cpp_ce5662b4)
    i.__sti___8_Wire_cpp_928ee5ff            0x080044b4   Section        0  wire.o(i.__sti___8_Wire_cpp_928ee5ff)
    __sti___8_Wire_cpp_928ee5ff              0x080044b5   Thumb Code    26  wire.o(i.__sti___8_Wire_cpp_928ee5ff)
    i._is_digit                              0x080044dc   Section        0  __printf_wp.o(i._is_digit)
    i.delay_ms                               0x080044ec   Section        0  delay.o(i.delay_ms)
    i.delay_us                               0x08004500   Section        0  delay.o(i.delay_us)
    i.digitalRead                            0x08004540   Section        0  arduino.o(i.digitalRead)
    i.digitalWrite                           0x08004560   Section        0  arduino.o(i.digitalWrite)
    i.main                                   0x08004580   Section        0  main.o(i.main)
    i.millis                                 0x080045a8   Section        0  delay.o(i.millis)
    i.pinMode                                0x080045b4   Section        0  arduino.o(i.pinMode)
    locale$$code                             0x08004624   Section       44  lc_ctype_c.o(locale$$code)
    locale$$code                             0x08004650   Section       44  lc_numeric_c.o(locale$$code)
    x$fpl$d2f                                0x0800467c   Section       98  d2f.o(x$fpl$d2f)
    x$fpl$ddiv                               0x080046e0   Section      688  ddiv.o(x$fpl$ddiv)
    ddiv_entry                               0x080046e7   Thumb Code     0  ddiv.o(x$fpl$ddiv)
    x$fpl$dflt                               0x08004990   Section       46  dflt_clz.o(x$fpl$dflt)
    x$fpl$dnaninf                            0x080049be   Section      156  dnaninf.o(x$fpl$dnaninf)
    x$fpl$dretinf                            0x08004a5a   Section       12  dretinf.o(x$fpl$dretinf)
    x$fpl$ffix                               0x08004a68   Section       54  ffix.o(x$fpl$ffix)
    x$fpl$ffixu                              0x08004aa0   Section       62  ffixu.o(x$fpl$ffixu)
    x$fpl$fmul                               0x08004ae0   Section      258  fmul.o(x$fpl$fmul)
    x$fpl$fnaninf                            0x08004be2   Section      140  fnaninf.o(x$fpl$fnaninf)
    x$fpl$fretinf                            0x08004c6e   Section       10  fretinf.o(x$fpl$fretinf)
    x$fpl$printf1                            0x08004c78   Section        4  printf1.o(x$fpl$printf1)
    .constdata                               0x08004c7c   Section       24  heartrate.o(.constdata)
    x$fpl$usenofp                            0x08004c7c   Section        0  usenofp.o(x$fpl$usenofp)
    FIRCoeffs                                0x08004c7c   Data          24  heartrate.o(.constdata)
    .constdata                               0x08004c94   Section     1792  gpio.o(.constdata)
    .constdata                               0x08005394   Section       17  __printf_flags_ss_wp.o(.constdata)
    maptable                                 0x08005394   Data          17  __printf_flags_ss_wp.o(.constdata)
    .constdata                               0x080053a8   Section        8  _printf_wctomb.o(.constdata)
    initial_mbstate                          0x080053a8   Data           8  _printf_wctomb.o(.constdata)
    .constdata                               0x080053b0   Section       40  _printf_hex_int_ll_ptr.o(.constdata)
    uc_hextab                                0x080053b0   Data          20  _printf_hex_int_ll_ptr.o(.constdata)
    lc_hextab                                0x080053c4   Data          20  _printf_hex_int_ll_ptr.o(.constdata)
    .constdata                               0x080053d8   Section      148  bigflt0.o(.constdata)
    tenpwrs_x                                0x080053d8   Data          60  bigflt0.o(.constdata)
    tenpwrs_i                                0x08005414   Data          64  bigflt0.o(.constdata)
    .constdata__ZTV14HardwareSerial          0x0800546c   Section       36  hardwareserial.o(.constdata__ZTV14HardwareSerial)
    .constdata__ZTV7FT6336U                  0x08005490   Section       16  ft6336u.o(.constdata__ZTV7FT6336U)
    .constdata__ZTV7TwoWire                  0x080054a0   Section       16  wire.o(.constdata__ZTV7TwoWire)
    locale$$data                             0x080054d0   Section      272  lc_ctype_c.o(locale$$data)
    __lcctype_c_name                         0x080054d4   Data           2  lc_ctype_c.o(locale$$data)
    __lcctype_c_start                        0x080054dc   Data           0  lc_ctype_c.o(locale$$data)
    locale$$data                             0x080055e0   Section       28  lc_numeric_c.o(locale$$data)
    __lcctype_c_end                          0x080055e0   Data           0  lc_ctype_c.o(locale$$data)
    __lcnum_c_name                           0x080055e4   Data           2  lc_numeric_c.o(locale$$data)
    __lcnum_c_start                          0x080055ec   Data           0  lc_numeric_c.o(locale$$data)
    __lcnum_c_point                          0x080055f8   Data           0  lc_numeric_c.o(locale$$data)
    __lcnum_c_thousands                      0x080055fa   Data           0  lc_numeric_c.o(locale$$data)
    __lcnum_c_grouping                       0x080055fb   Data           0  lc_numeric_c.o(locale$$data)
    .init_array                              0x080055fc   Section        4  bsp_particlesensor.o(.init_array)
    __lcnum_c_end                            0x080055fc   Data           0  lc_numeric_c.o(locale$$data)
    .init_array                              0x08005600   Section        4  bsp_touchpad.o(.init_array)
    .init_array                              0x08005604   Section        4  hardwareserial.o(.init_array)
    .init_array                              0x08005608   Section        4  wire.o(.init_array)
    .init_array                              0x0800560c   Section        4  spi.o(.init_array)
    .init_array                              0x08005610   Section        0  init_aeabi.o(.init_array)
    .data                                    0x20000000   Section       12  main.o(.data)
    lasttime                                 0x20000000   Data           4  main.o(.data)
    lasttime                                 0x20000004   Data           4  main.o(.data)
    lasttime                                 0x20000008   Data           4  main.o(.data)
    .data                                    0x2000000c   Section       10  bsp_imu.o(.data)
    isSend                                   0x2000000c   Data           1  bsp_imu.o(.data)
    response                                 0x2000000d   Data           1  bsp_imu.o(.data)
    WhoAmI                                   0x2000000e   Data           1  bsp_imu.o(.data)
    rst                                      0x2000000f   Data           1  bsp_imu.o(.data)
    stepDetect                               0x20000010   Data           1  bsp_imu.o(.data)
    dummy                                    0x20000011   Data           1  bsp_imu.o(.data)
    DataPack                                 0x20000012   Data           2  bsp_imu.o(.data)
    .data                                    0x20000018   Section       24  bsp_particlesensor.o(.data)
    DataPack                                 0x20000020   Data           4  bsp_particlesensor.o(.data)
    .data                                    0x20000030   Section        6  bsp_touchpad.o(.data)
    DataPack                                 0x20000030   Data           6  bsp_touchpad.o(.data)
    .data                                    0x20000038   Section        8  bsp_comslave.o(.data)
    CS_State                                 0x20000038   Data           1  bsp_comslave.o(.data)
    CS_TxID                                  0x20000039   Data           1  bsp_comslave.o(.data)
    CS_TxLen                                 0x2000003a   Data           1  bsp_comslave.o(.data)
    CS_CurrentUserCallback                   0x2000003c   Data           4  bsp_comslave.o(.data)
    .data                                    0x20000040   Section       24  heartrate.o(.data)
    .data                                    0x20000058   Section        2  adc.o(.data)
    ADC_DMA_RegCnt                           0x20000058   Data           1  adc.o(.data)
    IsInit                                   0x20000059   Data           1  adc.o(.data)
    .data                                    0x2000005c   Section      124  delay.o(.data)
    System_ms                                0x2000005c   Data           4  delay.o(.data)
    SysClock                                 0x20000060   Data         120  delay.o(.data)
    .data                                    0x200000d8   Section       20  stm32f10x_rcc.o(.data)
    ADCPrescTable                            0x200000d8   Data           4  stm32f10x_rcc.o(.data)
    APBAHBPrescTable                         0x200000dc   Data          16  stm32f10x_rcc.o(.data)
    .data                                    0x200000ec   Section       20  system_stm32f10x.o(.data)
    .bss                                     0x20000100   Section       12  bsp_imu.o(.bss)
    IMU_Node                                 0x20000100   Data          12  bsp_imu.o(.bss)
    .bss                                     0x2000010c   Section       72  bsp_particlesensor.o(.bss)
    ParticleSensor_Node                      0x2000010c   Data          12  bsp_particlesensor.o(.bss)
    particleSensor                           0x20000118   Data          60  bsp_particlesensor.o(.bss)
    .bss                                     0x20000154   Section       32  bsp_touchpad.o(.bss)
    touchPad                                 0x20000154   Data          20  bsp_touchpad.o(.bss)
    TouchPad_Node                            0x20000168   Data          12  bsp_touchpad.o(.bss)
    .bss                                     0x20000174   Section       67  bsp_comslave.o(.bss)
    CS_TxBuffer                              0x20000174   Data          67  bsp_comslave.o(.bss)
    .bss                                     0x200001b8   Section       64  heartrate.o(.bss)
    .bss                                     0x200001f8   Section      468  hardwareserial.o(.bss)
    .bss                                     0x200003cc   Section       88  wire.o(.bss)
    .bss                                     0x20000424   Section       84  spi.o(.bss)
    .bss                                     0x20000478   Section       54  adc.o(.bss)
    ADC_DMA_RegChannelList                   0x20000478   Data          18  adc.o(.bss)
    ADC_DMA_ConvertedValue                   0x2000048a   Data          36  adc.o(.bss)
    .bss                                     0x200004b0   Section       64  exti.o(.bss)
    EXTI_Function                            0x200004b0   Data          64  exti.o(.bss)
    .bss                                     0x200004f0   Section       32  timer.o(.bss)
    TIMx_Function                            0x200004f0   Data          32  timer.o(.bss)
    .bss                                     0x20000510   Section       96  libspace.o(.bss)
    HEAP                                     0x20000570   Section      512  startup_stm32f10x_md.o(HEAP)
    Heap_Mem                                 0x20000570   Data         512  startup_stm32f10x_md.o(HEAP)
    STACK                                    0x20000770   Section     1024  startup_stm32f10x_md.o(STACK)
    Stack_Mem                                0x20000770   Data        1024  startup_stm32f10x_md.o(STACK)
    __initial_sp                             0x20000b70   Data           0  startup_stm32f10x_md.o(STACK)

    Global Symbols

    Symbol Name                              Value     Ov Type        Size  Object(Section)

    BuildAttributes$$THM_ISAv4$P$D$K$B$S$PE$A:L22UL41UL21$X:L11$S22US41US21$IEEE1$IW$USESV6$~STKCKD$USESV7$~SHL$OTIME$ROPI$IEEEX$EBA8$UX$STANDARDLIB$REQ8$PRES8$EABIv2 0x00000000   Number         0  anon$$obj.o ABSOLUTE
    __ARM_use_no_argv                        0x00000000   Number         0  main.o ABSOLUTE
    _printf_flags                            0x00000000   Number         0  printf_stubs.o ABSOLUTE
    _printf_return_value                     0x00000000   Number         0  printf_stubs.o ABSOLUTE
    _printf_sizespec                         0x00000000   Number         0  printf_stubs.o ABSOLUTE
    _printf_widthprec                        0x00000000   Number         0  printf_stubs.o ABSOLUTE
    __ARM::default_unexpected_handler()       - Undefined Weak Reference
    typeinfo for Printable                    - Undefined Weak Reference
    __ARM_exceptions_buffer_required          - Undefined Weak Reference
    __ARM_exceptions_init                     - Undefined Weak Reference
    __alloca_initialize                       - Undefined Weak Reference
    __arm_preinit_                            - Undefined Weak Reference
    __sigvec_lookup                           - Undefined Weak Reference
    __user_heap_extent                        - Undefined Weak Reference
    _atexit_init                              - Undefined Weak Reference
    _call_atexit_fns                          - Undefined Weak Reference
    _clock_init                               - Undefined Weak Reference
    _fp_trap_init                             - Undefined Weak Reference
    _fp_trap_shutdown                         - Undefined Weak Reference
    _get_lc_collate                           - Undefined Weak Reference
    _get_lc_monetary                          - Undefined Weak Reference
    _get_lc_time                              - Undefined Weak Reference
    _getenv_init                              - Undefined Weak Reference
    _handle_redirection                       - Undefined Weak Reference
    _initio                                   - Undefined Weak Reference
    _mutex_acquire                            - Undefined Weak Reference
    _mutex_free                               - Undefined Weak Reference
    _mutex_release                            - Undefined Weak Reference
    _printf_mbtowc                            - Undefined Weak Reference
    _printf_wc                                - Undefined Weak Reference
    _signal_finish                            - Undefined Weak Reference
    _signal_init                              - Undefined Weak Reference
    _terminateio                              - Undefined Weak Reference
    __Vectors_Size                           0x000000ec   Number         0  startup_stm32f10x_md.o ABSOLUTE
    __Vectors                                0x08000000   Data           4  startup_stm32f10x_md.o(RESET)
    __dso_handle                             0x08000000   Number         0  startup_stm32f10x_md.o(RESET)
    __Vectors_End                            0x080000ec   Data           0  startup_stm32f10x_md.o(RESET)
    __main                                   0x080000ed   Thumb Code     8  __main.o(!!!main)
    __scatterload                            0x080000f5   Thumb Code     0  __scatter.o(!!!scatter)
    __scatterload_rt2                        0x080000f5   Thumb Code    44  __scatter.o(!!!scatter)
    __scatterload_rt2_thumb_only             0x080000f5   Thumb Code     0  __scatter.o(!!!scatter)
    __scatterload_null                       0x08000103   Thumb Code     0  __scatter.o(!!!scatter)
    __scatterload_copy                       0x08000129   Thumb Code    26  __scatter_copy.o(!!handler_copy)
    __scatterload_zeroinit                   0x08000145   Thumb Code    28  __scatter_zi.o(!!handler_zi)
    _printf_n                                0x08000161   Thumb Code     0  _printf_n.o(.ARM.Collect$$_printf_percent$$00000001)
    _printf_percent                          0x08000161   Thumb Code     0  _printf_percent.o(.ARM.Collect$$_printf_percent$$00000000)
    _printf_p                                0x08000167   Thumb Code     0  _printf_p.o(.ARM.Collect$$_printf_percent$$00000002)
    _printf_f                                0x0800016d   Thumb Code     0  _printf_f.o(.ARM.Collect$$_printf_percent$$00000003)
    _printf_e                                0x08000173   Thumb Code     0  _printf_e.o(.ARM.Collect$$_printf_percent$$00000004)
    _printf_g                                0x08000179   Thumb Code     0  _printf_g.o(.ARM.Collect$$_printf_percent$$00000005)
    _printf_a                                0x0800017f   Thumb Code     0  _printf_a.o(.ARM.Collect$$_printf_percent$$00000006)
    _printf_ll                               0x08000185   Thumb Code     0  _printf_ll.o(.ARM.Collect$$_printf_percent$$00000007)
    _printf_i                                0x0800018f   Thumb Code     0  _printf_i.o(.ARM.Collect$$_printf_percent$$00000008)
    _printf_d                                0x08000195   Thumb Code     0  _printf_d.o(.ARM.Collect$$_printf_percent$$00000009)
    _printf_u                                0x0800019b   Thumb Code     0  _printf_u.o(.ARM.Collect$$_printf_percent$$0000000A)
    _printf_o                                0x080001a1   Thumb Code     0  _printf_o.o(.ARM.Collect$$_printf_percent$$0000000B)
    _printf_x                                0x080001a7   Thumb Code     0  _printf_x.o(.ARM.Collect$$_printf_percent$$0000000C)
    _printf_lli                              0x080001ad   Thumb Code     0  _printf_lli.o(.ARM.Collect$$_printf_percent$$0000000D)
    _printf_lld                              0x080001b3   Thumb Code     0  _printf_lld.o(.ARM.Collect$$_printf_percent$$0000000E)
    _printf_llu                              0x080001b9   Thumb Code     0  _printf_llu.o(.ARM.Collect$$_printf_percent$$0000000F)
    _printf_llo                              0x080001bf   Thumb Code     0  _printf_llo.o(.ARM.Collect$$_printf_percent$$00000010)
    _printf_llx                              0x080001c5   Thumb Code     0  _printf_llx.o(.ARM.Collect$$_printf_percent$$00000011)
    _printf_l                                0x080001cb   Thumb Code     0  _printf_l.o(.ARM.Collect$$_printf_percent$$00000012)
    _printf_c                                0x080001d5   Thumb Code     0  _printf_c.o(.ARM.Collect$$_printf_percent$$00000013)
    _printf_s                                0x080001db   Thumb Code     0  _printf_s.o(.ARM.Collect$$_printf_percent$$00000014)
    _printf_lc                               0x080001e1   Thumb Code     0  _printf_lc.o(.ARM.Collect$$_printf_percent$$00000015)
    _printf_ls                               0x080001e7   Thumb Code     0  _printf_ls.o(.ARM.Collect$$_printf_percent$$00000016)
    _printf_percent_end                      0x080001ed   Thumb Code     0  _printf_percent_end.o(.ARM.Collect$$_printf_percent$$00000017)
    __rt_lib_init                            0x080001f1   Thumb Code     0  libinit.o(.ARM.Collect$$libinit$$00000000)
    __rt_lib_init_fp_1                       0x080001f3   Thumb Code     0  libinit2.o(.ARM.Collect$$libinit$$00000002)
    __rt_lib_init_heap_2                     0x080001f3   Thumb Code     0  libinit2.o(.ARM.Collect$$libinit$$00000005)
    __rt_lib_init_preinit_1                  0x080001f3   Thumb Code     0  libinit2.o(.ARM.Collect$$libinit$$00000004)
    __rt_lib_init_heap_1                     0x080001fb   Thumb Code     0  libinit2.o(.ARM.Collect$$libinit$$0000000A)
    __rt_lib_init_lc_common                  0x080001fb   Thumb Code     0  libinit2.o(.ARM.Collect$$libinit$$0000000F)
    __rt_lib_init_rand_1                     0x080001fb   Thumb Code     0  libinit2.o(.ARM.Collect$$libinit$$0000000E)
    __rt_lib_init_user_alloc_1               0x080001fb   Thumb Code     0  libinit2.o(.ARM.Collect$$libinit$$0000000C)
    __rt_lib_init_lc_collate_1               0x08000201   Thumb Code     0  libinit2.o(.ARM.Collect$$libinit$$00000011)
    __rt_lib_init_lc_ctype_2                 0x08000201   Thumb Code     0  libinit2.o(.ARM.Collect$$libinit$$00000012)
    __rt_lib_init_lc_ctype_1                 0x0800020d   Thumb Code     0  libinit2.o(.ARM.Collect$$libinit$$00000013)
    __rt_lib_init_lc_monetary_1              0x0800020d   Thumb Code     0  libinit2.o(.ARM.Collect$$libinit$$00000015)
    __rt_lib_init_lc_numeric_2               0x0800020d   Thumb Code     0  libinit2.o(.ARM.Collect$$libinit$$00000016)
    __rt_lib_init_alloca_1                   0x08000217   Thumb Code     0  libinit2.o(.ARM.Collect$$libinit$$0000002E)
    __rt_lib_init_argv_1                     0x08000217   Thumb Code     0  libinit2.o(.ARM.Collect$$libinit$$0000002C)
    __rt_lib_init_atexit_1                   0x08000217   Thumb Code     0  libinit2.o(.ARM.Collect$$libinit$$0000001B)
    __rt_lib_init_clock_1                    0x08000217   Thumb Code     0  libinit2.o(.ARM.Collect$$libinit$$00000021)
    __rt_lib_init_cpp_2                      0x08000217   Thumb Code     0  libinit2.o(.ARM.Collect$$libinit$$00000031)
    __rt_lib_init_exceptions_1               0x08000217   Thumb Code     0  libinit2.o(.ARM.Collect$$libinit$$00000030)
    __rt_lib_init_fp_trap_1                  0x08000217   Thumb Code     0  libinit2.o(.ARM.Collect$$libinit$$0000001F)
    __rt_lib_init_getenv_1                   0x08000217   Thumb Code     0  libinit2.o(.ARM.Collect$$libinit$$00000023)
    __rt_lib_init_lc_numeric_1               0x08000217   Thumb Code     0  libinit2.o(.ARM.Collect$$libinit$$00000017)
    __rt_lib_init_lc_time_1                  0x08000217   Thumb Code     0  libinit2.o(.ARM.Collect$$libinit$$00000019)
    __rt_lib_init_signal_1                   0x08000217   Thumb Code     0  libinit2.o(.ARM.Collect$$libinit$$0000001D)
    __rt_lib_init_stdio_1                    0x08000217   Thumb Code     0  libinit2.o(.ARM.Collect$$libinit$$00000025)
    __rt_lib_init_cpp_1                      0x0800021b   Thumb Code     0  libinit2.o(.ARM.Collect$$libinit$$00000032)
    __rt_lib_init_return                     0x0800021b   Thumb Code     0  libinit2.o(.ARM.Collect$$libinit$$00000033)
    __rt_lib_shutdown                        0x0800021d   Thumb Code     0  libshutdown.o(.ARM.Collect$$libshutdown$$00000000)
    __rt_lib_shutdown_cpp_2                  0x0800021f   Thumb Code     0  libshutdown2.o(.ARM.Collect$$libshutdown$$00000001)
    __rt_lib_shutdown_cpp_1                  0x08000225   Thumb Code     0  libshutdown2.o(.ARM.Collect$$libshutdown$$00000002)
    __rt_lib_shutdown_fp_trap_1              0x08000225   Thumb Code     0  libshutdown2.o(.ARM.Collect$$libshutdown$$00000007)
    __rt_lib_shutdown_heap_1                 0x08000225   Thumb Code     0  libshutdown2.o(.ARM.Collect$$libshutdown$$0000000F)
    __rt_lib_shutdown_return                 0x08000225   Thumb Code     0  libshutdown2.o(.ARM.Collect$$libshutdown$$00000010)
    __rt_lib_shutdown_signal_1               0x08000225   Thumb Code     0  libshutdown2.o(.ARM.Collect$$libshutdown$$0000000A)
    __rt_lib_shutdown_stdio_1                0x08000225   Thumb Code     0  libshutdown2.o(.ARM.Collect$$libshutdown$$00000004)
    __rt_lib_shutdown_user_alloc_1           0x08000225   Thumb Code     0  libshutdown2.o(.ARM.Collect$$libshutdown$$0000000C)
    __rt_entry                               0x08000227   Thumb Code     0  __rtentry.o(.ARM.Collect$$rtentry$$00000000)
    __rt_entry_presh_1                       0x08000227   Thumb Code     0  __rtentry2.o(.ARM.Collect$$rtentry$$00000002)
    __rt_entry_sh                            0x08000227   Thumb Code     0  __rtentry4.o(.ARM.Collect$$rtentry$$00000004)
    __rt_entry_li                            0x0800022d   Thumb Code     0  __rtentry2.o(.ARM.Collect$$rtentry$$0000000A)
    __rt_entry_postsh_1                      0x0800022d   Thumb Code     0  __rtentry2.o(.ARM.Collect$$rtentry$$00000009)
    __rt_entry_main                          0x08000231   Thumb Code     0  __rtentry2.o(.ARM.Collect$$rtentry$$0000000D)
    __rt_entry_postli_1                      0x08000231   Thumb Code     0  __rtentry2.o(.ARM.Collect$$rtentry$$0000000C)
    __rt_exit                                0x08000239   Thumb Code     0  rtexit.o(.ARM.Collect$$rtexit$$00000000)
    __rt_exit_ls                             0x0800023b   Thumb Code     0  rtexit2.o(.ARM.Collect$$rtexit$$00000003)
    __rt_exit_prels_1                        0x0800023b   Thumb Code     0  rtexit2.o(.ARM.Collect$$rtexit$$00000002)
    __rt_exit_exit                           0x0800023f   Thumb Code     0  rtexit2.o(.ARM.Collect$$rtexit$$00000004)
    Reset_Handler                            0x08000245   Thumb Code     8  startup_stm32f10x_md.o(.text)
    _maybe_terminate_alloc                   0x08000245   Thumb Code     0  maybetermalloc1.o(.emb_text)
    NMI_Handler                              0x0800024d   Thumb Code     2  startup_stm32f10x_md.o(.text)
    HardFault_Handler                        0x0800024f   Thumb Code     2  startup_stm32f10x_md.o(.text)
    MemManage_Handler                        0x08000251   Thumb Code     2  startup_stm32f10x_md.o(.text)
    BusFault_Handler                         0x08000253   Thumb Code     2  startup_stm32f10x_md.o(.text)
    UsageFault_Handler                       0x08000255   Thumb Code     2  startup_stm32f10x_md.o(.text)
    SVC_Handler                              0x08000257   Thumb Code     2  startup_stm32f10x_md.o(.text)
    DebugMon_Handler                         0x08000259   Thumb Code     2  startup_stm32f10x_md.o(.text)
    PendSV_Handler                           0x0800025b   Thumb Code     2  startup_stm32f10x_md.o(.text)
    ADC1_2_IRQHandler                        0x0800025f   Thumb Code     0  startup_stm32f10x_md.o(.text)
    CAN1_RX1_IRQHandler                      0x0800025f   Thumb Code     0  startup_stm32f10x_md.o(.text)
    CAN1_SCE_IRQHandler                      0x0800025f   Thumb Code     0  startup_stm32f10x_md.o(.text)
    DMA1_Channel1_IRQHandler                 0x0800025f   Thumb Code     0  startup_stm32f10x_md.o(.text)
    DMA1_Channel2_IRQHandler                 0x0800025f   Thumb Code     0  startup_stm32f10x_md.o(.text)
    DMA1_Channel3_IRQHandler                 0x0800025f   Thumb Code     0  startup_stm32f10x_md.o(.text)
    DMA1_Channel4_IRQHandler                 0x0800025f   Thumb Code     0  startup_stm32f10x_md.o(.text)
    DMA1_Channel5_IRQHandler                 0x0800025f   Thumb Code     0  startup_stm32f10x_md.o(.text)
    DMA1_Channel6_IRQHandler                 0x0800025f   Thumb Code     0  startup_stm32f10x_md.o(.text)
    DMA1_Channel7_IRQHandler                 0x0800025f   Thumb Code     0  startup_stm32f10x_md.o(.text)
    FLASH_IRQHandler                         0x0800025f   Thumb Code     0  startup_stm32f10x_md.o(.text)
    I2C1_ER_IRQHandler                       0x0800025f   Thumb Code     0  startup_stm32f10x_md.o(.text)
    I2C1_EV_IRQHandler                       0x0800025f   Thumb Code     0  startup_stm32f10x_md.o(.text)
    I2C2_ER_IRQHandler                       0x0800025f   Thumb Code     0  startup_stm32f10x_md.o(.text)
    I2C2_EV_IRQHandler                       0x0800025f   Thumb Code     0  startup_stm32f10x_md.o(.text)
    PVD_IRQHandler                           0x0800025f   Thumb Code     0  startup_stm32f10x_md.o(.text)
    RCC_IRQHandler                           0x0800025f   Thumb Code     0  startup_stm32f10x_md.o(.text)
    RTCAlarm_IRQHandler                      0x0800025f   Thumb Code     0  startup_stm32f10x_md.o(.text)
    RTC_IRQHandler                           0x0800025f   Thumb Code     0  startup_stm32f10x_md.o(.text)
    SPI1_IRQHandler                          0x0800025f   Thumb Code     0  startup_stm32f10x_md.o(.text)
    SPI2_IRQHandler                          0x0800025f   Thumb Code     0  startup_stm32f10x_md.o(.text)
    TAMPER_IRQHandler                        0x0800025f   Thumb Code     0  startup_stm32f10x_md.o(.text)
    TIM1_BRK_IRQHandler                      0x0800025f   Thumb Code     0  startup_stm32f10x_md.o(.text)
    TIM1_CC_IRQHandler                       0x0800025f   Thumb Code     0  startup_stm32f10x_md.o(.text)
    TIM1_TRG_COM_IRQHandler                  0x0800025f   Thumb Code     0  startup_stm32f10x_md.o(.text)
    USBWakeUp_IRQHandler                     0x0800025f   Thumb Code     0  startup_stm32f10x_md.o(.text)
    USB_HP_CAN1_TX_IRQHandler                0x0800025f   Thumb Code     0  startup_stm32f10x_md.o(.text)
    USB_LP_CAN1_RX0_IRQHandler               0x0800025f   Thumb Code     0  startup_stm32f10x_md.o(.text)
    WWDG_IRQHandler                          0x0800025f   Thumb Code     0  startup_stm32f10x_md.o(.text)
    __user_initial_stackheap                 0x08000261   Thumb Code     0  startup_stm32f10x_md.o(.text)
    __rt_ctype_table                         0x08000285   Thumb Code    16  rt_ctype_table.o(.text)
    free                                     0x08000295   Thumb Code    78  h1_free.o(.text)
    __aeabi_uldivmod                         0x080002e3   Thumb Code     0  lludivv7m.o(.text)
    _ll_udiv                                 0x080002e3   Thumb Code   238  lludivv7m.o(.text)
    __c89vsnprintf                           0x080003d1   Thumb Code    48  c89vsnprintf.o(.text)
    _printf_pre_padding                      0x08000405   Thumb Code    44  _printf_pad.o(.text)
    _printf_post_padding                     0x08000431   Thumb Code    34  _printf_pad.o(.text)
    _printf_int_dec                          0x08000455   Thumb Code   104  _printf_dec.o(.text)
    __printf                                 0x080004cd   Thumb Code   388  __printf_flags_ss_wp.o(.text)
    __aeabi_atexit                           0x08000655   Thumb Code    46  aeabi_atexit.o(.text)
    __aeabi_memclr                           0x08000683   Thumb Code     0  rt_memclr.o(.text)
    __rt_memclr                              0x08000683   Thumb Code    68  rt_memclr.o(.text)
    _memset                                  0x08000687   Thumb Code     0  rt_memclr.o(.text)
    strcmp                                   0x080006c9   Thumb Code   128  strcmpv7m.o(.text)
    __use_two_region_memory                  0x08000749   Thumb Code     2  heapauxi.o(.text)
    __rt_heap_escrow                         0x0800074b   Thumb Code     2  heapauxi.o(.text)
    __rt_heap_expand                         0x0800074d   Thumb Code     2  heapauxi.o(.text)
    __cpp_initialize__aeabi_                 0x08000751   Thumb Code    26  init_aeabi.o(.text)
    __rt_heap_descriptor                     0x08000775   Thumb Code     8  rt_heap_descriptor_intlibspace.o(.text)
    __rt_locale                              0x0800077d   Thumb Code     8  rt_locale_intlibspace.o(.text)
    __rt_ddtor_pointer_addr                  0x08000785   Thumb Code     8  rt_ddtor_pointer_addr_intlibspace.o(.text)
    __use_no_heap                            0x0800078d   Thumb Code     2  hguard.o(.text)
    __heap$guard                             0x0800078f   Thumb Code     2  hguard.o(.text)
    _terminate_user_alloc                    0x08000791   Thumb Code     2  init_alloc.o(.text)
    _init_user_alloc                         0x08000793   Thumb Code     2  init_alloc.o(.text)
    __Heap_Full                              0x08000795   Thumb Code    34  init_alloc.o(.text)
    __Heap_Broken                            0x080007b7   Thumb Code     6  init_alloc.o(.text)
    _init_alloc                              0x080007bd   Thumb Code    94  init_alloc.o(.text)
    malloc                                   0x0800081b   Thumb Code    94  h1_alloc.o(.text)
    _printf_truncate_signed                  0x08000879   Thumb Code    18  _printf_truncate.o(.text)
    _printf_truncate_unsigned                0x0800088b   Thumb Code    18  _printf_truncate.o(.text)
    _printf_str                              0x0800089d   Thumb Code    82  _printf_str.o(.text)
    _printf_int_common                       0x080008ef   Thumb Code   178  _printf_intcommon.o(.text)
    _printf_charcount                        0x080009a1   Thumb Code    40  _printf_charcount.o(.text)
    __lib_sel_fp_printf                      0x080009c9   Thumb Code     2  _printf_fp_dec.o(.text)
    _printf_fp_dec_real                      0x08000b7b   Thumb Code   620  _printf_fp_dec.o(.text)
    _printf_char_common                      0x08000df3   Thumb Code    32  _printf_char_common.o(.text)
    _sputc                                   0x08000e19   Thumb Code    10  _sputc.o(.text)
    _snputc                                  0x08000e23   Thumb Code    16  _snputc.o(.text)
    _printf_wctomb                           0x08000e35   Thumb Code   182  _printf_wctomb.o(.text)
    _printf_longlong_dec                     0x08000ef1   Thumb Code   108  _printf_longlong_dec.o(.text)
    _printf_longlong_oct                     0x08000f6d   Thumb Code    66  _printf_oct_int_ll.o(.text)
    _printf_int_oct                          0x08000faf   Thumb Code    24  _printf_oct_int_ll.o(.text)
    _printf_ll_oct                           0x08000fc7   Thumb Code    12  _printf_oct_int_ll.o(.text)
    _printf_longlong_hex                     0x08000fdd   Thumb Code    86  _printf_hex_int_ll_ptr.o(.text)
    _printf_int_hex                          0x08001033   Thumb Code    28  _printf_hex_int_ll_ptr.o(.text)
    _printf_ll_hex                           0x0800104f   Thumb Code    12  _printf_hex_int_ll_ptr.o(.text)
    _printf_hex_ptr                          0x0800105b   Thumb Code    18  _printf_hex_int_ll_ptr.o(.text)
    __cxa_finalize                           0x08001071   Thumb Code    66  cxa_finalize.o(.text)
    __aeabi_memclr4                          0x080010b3   Thumb Code     0  rt_memclr_w.o(.text)
    __aeabi_memclr8                          0x080010b3   Thumb Code     0  rt_memclr_w.o(.text)
    __rt_memclr_w                            0x080010b3   Thumb Code    78  rt_memclr_w.o(.text)
    _memset_w                                0x080010b7   Thumb Code     0  rt_memclr_w.o(.text)
    __user_libspace                          0x08001101   Thumb Code     8  libspace.o(.text)
    __user_perproc_libspace                  0x08001101   Thumb Code     0  libspace.o(.text)
    __user_perthread_libspace                0x08001101   Thumb Code     0  libspace.o(.text)
    __Heap_Initialize                        0x08001109   Thumb Code    10  h1_init.o(.text)
    __Heap_DescSize                          0x08001113   Thumb Code     4  h1_init.o(.text)
    __Heap_ProvideMemory                     0x08001117   Thumb Code    52  h1_extend.o(.text)
    _ll_udiv10                               0x0800114b   Thumb Code   138  lludiv10.o(.text)
    _printf_fp_infnan                        0x080011d5   Thumb Code   112  _printf_fp_infnan.o(.text)
    _printf_cs_common                        0x08001255   Thumb Code    20  _printf_char.o(.text)
    _printf_char                             0x08001269   Thumb Code    16  _printf_char.o(.text)
    _printf_string                           0x08001279   Thumb Code     8  _printf_char.o(.text)
    _printf_lcs_common                       0x08001281   Thumb Code    20  _printf_wchar.o(.text)
    _printf_wchar                            0x08001295   Thumb Code    16  _printf_wchar.o(.text)
    _printf_wstring                          0x080012a5   Thumb Code     8  _printf_wchar.o(.text)
    _btod_etento                             0x080012ad   Thumb Code   224  bigflt0.o(.text)
    _wcrtomb                                 0x08001391   Thumb Code    64  _wcrtomb.o(.text)
    __sig_exit                               0x080013d1   Thumb Code    10  defsig_exit.o(.text)
    __rt_SIGRTMEM                            0x080013db   Thumb Code    14  defsig_rtmem_outer.o(.text)
    _sys_exit                                0x080013e9   Thumb Code     8  sys_exit.o(.text)
    __user_setup_stackheap                   0x080013f5   Thumb Code    74  sys_stackheap_outer.o(.text)
    exit                                     0x0800143f   Thumb Code    18  exit.o(.text)
    __default_signal_display                 0x08001451   Thumb Code    50  defsig_general.o(.text)
